uc:_glClearStencil
xsh:_UInt16_System_IConvertible_ToChar_m2096055221_AdjustorThunk
zUe:__ZN23InterfaceActionInvoker1IP18Camera_t4157153871E6InvokeEjP11Il2CppClassP12Il2CppObjectS1_
_bh:_Array_TrueForAll_TisRuntimeObject_m1084992726_gshared
Mwe:__ZL95CanvasRenderer_t2598313366_CustomAttributesCacheGenerator_CanvasRenderer_SetMaterial_m824577244P21CustomAttributesCache
L7j:__ZN6il2cpp2vm5Array13GetByteLengthEP11Il2CppArray
MFi:_Array_InternalArray__set_Item_TisDateTime_t3738529785_m1331437427_gshared
cij:_KeyBuilder_get_Rng_m3373220441
rBe:__ZL102Image_t2670269651_CustomAttributesCacheGenerator_Image_t2670269651____eventAlphaThreshold_PropertyInfoP21CustomAttributesCache
Jod:__ZN15DownloadHandler7OnAbortEv
ODi:__Z37RuntimeInvoker_Enumerator_t1666852615PFvvEPK10MethodInfoPvPS4_
Gje:__ZL51AIUpdate_t2336814084_CustomAttributesCacheGeneratorP21CustomAttributesCache
Dya:__Z30GetIntermediateRendererManagerv
P5h:_U3CCreateWhereIteratorU3Ec__Iterator1D_1_System_Collections_Generic_IEnumeratorU3CTSourceU3E_get_Current_m1909387290_gshared
mSa:__Z21SourceMipLevelForBlitiiii
wEa:__ZN31CanvasBatchIntermediateRenderer15AddAsRenderNodeER15RenderNodeQueueRK20DeprecatedSourceData
Mph:_TimeSpan_get_Hours_m550761902
Kue:__ZL72GUISkin_t1244372282_CustomAttributesCacheGenerator_m_verticalSliderThumbP21CustomAttributesCache
Lic:__ZN9ShaderLab9SubShader15FindNamedPassesERKN4core12basic_stringIcNS1_20StringStorageDefaultIcEEEER13dynamic_arrayIPNS_4PassELj0EE
hig:_Capture_get_Index_m745081289
Ene:__ZL63PlayableOutputHandle_t4208053793_CustomAttributesCacheGeneratorP21CustomAttributesCache
F_:__ZN11UnityEngine15CloudWebService26CloudServiceEventWithParam12ToJsonStringER9JSONWrite
izd:_CanvasScaler_get_defaultSpriteDPI_m871626936
kkd:__ZN11UnityEngine7Connect14AppUpdateEventD0Ev
EEj:__ZNK15dense_hashtableINSt3__24pairIK10KeyWrapperIPK19Il2CppGenericMethodEPK26Il2CppGenericMethodIndicesEES6_N6il2cpp8metadata23Il2CppGenericMethodHashEN14dense_hash_mapIS6_SA_SE_NS6_14EqualsComparerINSD_26Il2CppGenericMethodCompareEEENS0_9allocatorISB_EEE9SelectKeyESI_SK_E10test_emptyEj
dpc:__Z59Register_UnityEngine_PlayerConnectionInternal_DisconnectAllv
cYd:__ZL66RuntimeArray_CustomAttributesCacheGenerator_Array_Sort_m3287581440P21CustomAttributesCache
rjj:_AnalyticsEventTracker_SendEvent_m1365958832
p2:__ZdlPv
bs:__ZN11UnityEngine9Animation28GenericAnimationBindingCacheD2Ev
knh:_UTF8Encoding_GetHashCode_m641510078
K7i:_X509Store_LoadCrl_m1881903843
lIi:_Array_Sort_TisUICharInfo_t75501106_TisUICharInfo_t75501106_m722747892_gshared
Rwg:_CaseInsensitiveComparer__ctor_m2101975011
ygi:__Z67RuntimeInvoker_Byte_t1134296376_Int32_t2950945753_Int32_t2950945753PFvvEPK10MethodInfoPvPS4_
bfi:__Z53RuntimeInvoker_UInt32_t2560061978_Decimal_t2948259380PFvvEPK10MethodInfoPvPS4_
Hsj:__ZL25UnresolvedVirtualCall_242P12Il2CppObjecti22OrderBlock_t1585977831PK10MethodInfo
F8b:__Z18RestoreRenderStateR20CameraRenderOldStateR17ShaderPassContext
Wyb:__Z18Transfer_BlittableI18StreamedBinaryReadILb1EELb1E5RectTIfEEvRK29SerializationCommandArgumentsR31RuntimeSerializationCommandInfo
Jub:__Z18Transfer_BlittableI24GenerateTypeTreeTransferLb0E11ColorRGBA32EvRK29SerializationCommandArgumentsR31RuntimeSerializationCommandInfo
ODb:__Z25scripting_class_from_name17ScriptingImagePtrPKcS1_
aFi:_Array_InternalArray__Insert_TisSingle_t1397266774_m3161726127_gshared
lUj:__ZN14dense_hash_mapI10KeyWrapperINSt3__24pairIPK12PropertyInfoP11Il2CppClassEEEj17ReflectionMapHashIS8_ENS9_14EqualsComparerINS1_8equal_toIS8_EEEENS1_9allocatorINS2_IKS9_jEEEEE15set_deleted_keyERSH_
GFb:__Z29scripting_class_enum_basetype17ScriptingClassPtr
PVi:_List_1_Clear_m3097985365_gshared
Eeg:_OidCollection_get_SyncRoot_m3531934854
pJc:__ZN6IDList10BeginOnGUIEv
Exa:__ZNK12BaseRenderer18GetRenderNodeCountEv
i0j:__ZN6il2cpp2vm9Exception25RaiseOutOfMemoryExceptionERKNS_5utils10StringViewIDsEEP19Il2CppSequencePoint
nmj:__ZN30GenericInterfaceActionInvoker1IP24SingleU5BU5D_t1444911251E6InvokeEPK10MethodInfoP12Il2CppObjectS1_
vHd:_PropertyBuilder_get_CanWrite_m2657562188
Eka:__ZL43__ManagedRegistrationHelperFunction_TexturePv
z_f:_InternalEnumerator_1_get_Current_m1477715453_gshared
HHh:_Enumerator__ctor_m2827156589_AdjustorThunk
wcb:__ZNK20LocalFileSystemPosix6ParentERK13FileEntryDataRN4core12basic_stringIcNS3_20StringStorageDefaultIcEEEE
Lhe:__ZL118TouchScreenKeyboard_t731888065_CustomAttributesCacheGenerator_TouchScreenKeyboard_Open_m3609399077____textPlaceholder6P21CustomAttributesCache
D0i:_Collection_1_System_Collections_IList_Remove_m1476284619_gshared
eMh:_ContractionComparer__ctor_m3439667810
sEf:_MonoType_IsPrimitiveImpl_m2401722705
rOg:_SHA1CryptoServiceProvider__ctor_m4195188793
Sna:__ZN9Scripting11UnityEngine9Profiling8Recorder12CleanupProxyEv
vbe:__ZL64MissingFieldException_t1989070983_CustomAttributesCacheGeneratorP21CustomAttributesCache
WCb:__ZN18StreamedBinaryReadILb0EE21TransferSTLStyleArrayI13dynamic_arrayI11ColorRGBA32Lj0EEEEvRT_17TransferMetaFlags
YCd:_Dropdown_Hide_m504034854
O5i:_DeriveBytes_set_HashName_m3612196732
IGf:_NumberFormatter_NumberToString_m264078176
$ah:_Array_InternalArray__ICollection_Remove_TisLink_t3209266973_m897088622_gshared
S9e:_Vector2_get_up_m2647420593
vPb:__ZN7ApiGLES17CopyBufferSubDataEjjlll
Yhh:_Array_InternalArray__ICollection_CopyTo_TisUInt64_t4134040092_m691431926_gshared
i0i:__ZN23InterfaceActionInvoker2Ii22OrderBlock_t1585977831E6InvokeEjP11Il2CppClassP12Il2CppObjectiS0_
Hcg:_IPAddress_ToString_m1181734207
rlh:_StringBuilder_Append_m1965104174
qLc:__ZN5Unity9rapidjson15GenericDocumentINS0_4UTF8IcEE13JSONAllocatorS4_E11ParseStreamILj1ES3_NS0_25GenericInsituStringStreamIS3_EEEERS5_RT1_
zCj:__ZNSt3__26vectorIPK10Il2CppTypeNS_9allocatorIS3_EEE7reserveEj
GBh:_EqualityComparer_1__cctor_m3766928733_gshared
Y$b:__ZN25CameraStackRenderingState20GetOrCreateBuiltinRTE24BuiltinRenderTextureTypeii17DepthBufferFormat19RenderTextureFormatj22RenderTextureReadWrite14VRTextureUsagei
E9h:_UnityAction_1_Invoke_m610765085_gshared
ypg:_Array_GetValue_m116098292
npf:_Kernel_modInverse_m652700340
GOa:__ZNK14Texture2DArray26CanReuploadDataToGfxDeviceEv
Ewe:__ZL57CanvasRenderer_t2598313366_CustomAttributesCacheGeneratorP21CustomAttributesCache
cwa:__ZN17GlobalGameManager23VirtualRedirectTransferER17RemapPPtrTransfer
y5c:_sfnt_stream_close
CAb:__ZN18StreamedBinaryReadILb1EE8TransferI13dynamic_arrayIsLj0EEEEvRT_PKc17TransferMetaFlags
vqj:__ZL25UnresolvedVirtualCall_122P12Il2CppObject29CullingGroupEvent_t1722745023PK10MethodInfo
xKc:__ZN5IMGUI18RepaintModalWindowER8GUIState
Z9f:_HybridDictionary_get_IsSynchronized_m2987560362
Mqj:__ZL25UnresolvedVirtualCall_139P12Il2CppObject17Color_t2555686324PK10MethodInfo
qBa:__ZNK15dense_hashtableINSt3__24pairIKN9ShaderLab7Program23ShaderKeywordSetAndHashEPKNS2_10SubProgramEEES4_NS3_24ShaderKeywordHashFunctorEN14dense_hash_mapIS4_S8_SA_NS0_8equal_toIS4_EE13stl_allocatorIS9_L18MemLabelIdentifier67ELi16EEE9SelectKeyESD_SG_E23find_position_with_hashERS5_j
NAg:_CompareInfo_Finalize_m404687489
gXa:__Z23SetSpriteMeshIndexCountP14SharedMeshDataj
nnh:_UTF8Decoder_GetChars_m1236346907
q3e:_Quaternion_GetHashCode_m2636680144_AdjustorThunk
Dte:__ZL99AudioSource_t3935305588_CustomAttributesCacheGenerator_AudioSource_t3935305588____clip_PropertyInfoP21CustomAttributesCache
zbk:__ZN6il2cpp8metadata13GenericMethod9GetMethodEPK19Il2CppGenericMethod
Nq:__ZNSt3__26vectorIN4core12basic_stringIcNS1_20StringStorageDefaultIcEEEENS_9allocatorIS5_EEE7reserveEj
YIf:_Default_SelectProperty_m1220817815
XJe:_RemotingConfiguration_IsRemotelyActivatedClientType_m4117048589
R8e:_Transform_TransformPoint_m226827784
_xj:_ListPool_1_Get_m738675669_gshared
uLb:__ZN13GfxDeviceGLES11SetViewportERK5RectTIiE
gGc:__Z24Time_Get_Custom_PropTimev
Nd:_emscripten_glDepthRange
i2i:_SslStreamBase_BeginNegotiateHandshake_m4180435790
RWc:__ZN9Scripting11UnityEngine10UILineInfo12CleanupProxyEv
Yac:__ZNSt3__26vectorINS_4pairIN4core12basic_stringIcNS2_20StringStorageDefaultIcEEEES6_EE13stl_allocatorIS7_L18MemLabelIdentifier38ELi16EEE12__move_rangeEPS7_SC_SC_
kfc:__Z14resize_trimmedINSt3__26vectorIN9ShaderLab20SerializedSubProgram12UAVParameterENS0_9allocatorIS4_EEEEEvRT_j
wLc:__ZN5Unity9rapidjson13GenericReaderINS0_4UTF8IcEES3_13JSONAllocatorE11ParseObjectILj1ENS0_25GenericInsituStringStreamIS3_EENS0_15GenericDocumentIS3_S4_S4_EEEEvRT0_RT1_
wxd:_StandaloneInputModule_GetRawMoveVector_m2737091079
aDe:__ZL62Selectable_t3250028441_CustomAttributesCacheGenerator_m_ColorsP21CustomAttributesCache
T_g:_Convert_ToDateTime_m2616935982
HNb:__ZThn10632_N13GfxDeviceGLES22SetScissorRectPlatformERK5RectTIiE
S2i:_SslStreamBase_EndWrite_m4073224031
yaa:__ZNSt3__218__insertion_sort_3IRNS_6__lessI14ObjectLoadDataS2_EEPS2_EEvT0_S6_T_
Lte:__ZL92Event_t2956885303_CustomAttributesCacheGenerator_Event_Internal_GetMousePosition_m1101229675P21CustomAttributesCache
dPi:_List_1_System_Collections_ICollection_get_SyncRoot_m1244917400_gshared
_ka:__ZL50__ManagedRegistrationHelperFunction_PostLateUpdatePv
PRa:__ZN4crndL20crnd_default_reallocEPvjPjbS0_
gCi:__Z54RuntimeInvoker_CustomAttributeNamedArgument_t287865710PFvvEPK10MethodInfoPvPS4_
yoe:__ZL122SupportedRenderingFeatures_t353898663_CustomAttributesCacheGenerator_U3CrendererSupportsReflectionProbesU3Ek__BackingFieldP21CustomAttributesCache
CTj:__ZN15dense_hashtableINSt3__24pairIK10KeyWrapperIPK22Il2CppGenericParameterEPK24MonoGenericParameterInfoEES6_N6il2cpp5utils11PointerHashIS4_EEN14dense_hash_mapIS6_SA_SF_NS6_14EqualsComparerINS0_8equal_toIS5_EEEENS0_9allocatorISB_EEE9SelectKeyESK_SM_E13set_empty_keyERKSB_
oYa:__ZN18SpriteAtlasManager19AddRequestingSpriteE4PPtrI6SpriteE
S6h:_Predicate_1_EndInvoke_m3987519925_gshared
ave:__ZL102GUIStyle_t3956901511_CustomAttributesCacheGenerator_GUIStyle_INTERNAL_CALL_GetRectOffsetPtr_m152975056P21CustomAttributesCache
AQ:__ZNK4PPtrI9AudioClipEptEv
jCf:_UnmanagedMemoryStream_Write_m930787521
K7b:__ZN23ScriptableRenderContextC2Ev
NFd:_GridLayoutGroup_get_spacing_m2409263614
Wya:__ZN4PPtrI13RenderTextureE8TransferI18StreamedBinaryReadILb0EEEEvRT_
GLh:_List_1_CheckIndex_m581273900_gshared
n7c:_UNITY_FT_Stream_GetChar
Jaf:_WaitForSeconds_t1699091251_marshal_pinvoke
oyj:_ObjectPool_1_get_countAll_m819305395_gshared
vzb:__Z18Transfer_BlittableI18StreamedBinaryReadILb1EELb1EdEvRK29SerializationCommandArgumentsR31RuntimeSerializationCommandInfo
zRi:_List_1_ToArray_m190175978_gshared
NFb:__Z26BuildSerializationCacheFor17ScriptingClassPtrRb
Btd:_EventSystem_get_firstSelectedGameObject_m1576206896
qRb:__ZN7ApiGLES15BlitFramebufferEN2gl6HandleILNS0_10ObjectTypeE9EEENS0_15FramebufferReadES3_S3_iiiiiiiiNS0_15FramebufferTypeE
AWj:_il2cpp_class_get_name
Joi:__Z112RuntimeInvoker_RuntimeObject_RuntimeObject_RuntimeObject_RuntimeObject_RuntimeObject_RuntimeObject_RuntimeObjectPFvvEPK10MethodInfoPvPS4_
OZf:_InternalEnumerator_1_System_Collections_IEnumerator_get_Current_m3553395619_AdjustorThunk
F_d:__ZL70AssemblyVersionCompatibility_t766556580_CustomAttributesCacheGeneratorP21CustomAttributesCache
Yme:__ZL60ReadOnlyAttribute_t3518714744_CustomAttributesCacheGeneratorP21CustomAttributesCache
ppg:_Array_SetValue_m3998268557
yDh:_EqualityComparer_1__cctor_m818408565_gshared
RRc:__ZN8JSONRead8TransferI8Vector4fEEvRT_PKc17TransferMetaFlagsb
fAd:_ColorBlock_set_highlightedColor_m2089444414_AdjustorThunk
gyi:__Z59RuntimeInvoker_Boolean_t97287965_X509ChainStatus_t133602714PFvvEPK10MethodInfoPvPS4_
v5e:_RectTransform_INTERNAL_set_anchoredPosition_m939517950
lxf:_Context_EndSwitchingSecurityParameters_m4148956166
y2c:_otv_PairPos_validate
z8d:__ZL63ThreadStateException_t3003788475_CustomAttributesCacheGeneratorP21CustomAttributesCache
qy:__ZN7mecanim9animation14CopyHumanPosesEPKNS0_18AnimationNodeStateEPS1_RKNS_6bitsetILj83EEE
sMj:__ZN6il2cpp6icalls8mscorlib6SystemL8IsStaticEPK12PropertyInfo
SGb:__Z9InitInputv
xTj:__ZN30dense_hashtable_const_iteratorINSt3__24pairIK10KeyWrapperIPK22Il2CppGenericParameterEPK24MonoGenericParameterInfoEES6_N6il2cpp5utils11PointerHashIS4_EEN14dense_hash_mapIS6_SA_SF_NS6_14EqualsComparerINS0_8equal_toIS5_EEEENS0_9allocatorISB_EEE9SelectKeyESK_SM_E30advance_past_empty_and_deletedEv
s4c:_UNITY_tt_face_build_cmaps
JPj:__ZN6il2cpp2gc19AppendOnlyGCHashMapINSt3__24pairIPK10MethodInfoP11Il2CppClassEEP22Il2CppReflectionMethod17ReflectionMapHashIS9_ENS2_8equal_toIS9_EEE3AddERKS9_SB_
vgb:__ZN16MemoryFileSystem6DeleteER13FileEntryDatab
sji:__Z81RuntimeInvoker_Void_t1185182177_RuntimeObject_Int64_t3736567304_Int32_t2950945753PFvvEPK10MethodInfoPvPS4_
ZMi:_List_1_set_Item_m1979164443_gshared
lgh:_Array_InternalArray__ICollection_Add_TisLink_t3209266973_m77922316_gshared
XOa:__ZL21BlitScaleStbImageImplRK14ImageReferenceRS_NS_10ColorSpaceE
Erg:_Boolean_System_IConvertible_ToUInt16_m3465173538_AdjustorThunk
Is:__ZL48__ManagedRegistrationHelperFunction_SkeletonBonePv
etj:__ZL25UnresolvedVirtualCall_267P12Il2CppObjectiiPK10MethodInfo
jcf:_InputField_get_keyboardType_m1248105267
zqb:__Z29Transfer_Blittable_ArrayFieldI14SafeBinaryReadyEvRT_R9ArrayInfoRK23StaticTransferFieldInfo
HQ:__ZN20SoundChannelInstance15setChannelGroupEPN4FMOD12ChannelGroupE
i9i:_Match__ctor_m2425511580
vRh:_KeyPairPersistence_Remove_m1876145547
E$d:__ZL63FileNotFoundException_t225391025_CustomAttributesCacheGeneratorP21CustomAttributesCache
ic:invoke_vifffii
iCb:__Z35Transfer_Blittable_FixedBufferFieldI18StreamedBinaryReadILb0EEaEvRK29SerializationCommandArgumentsR31RuntimeSerializationCommandInfo
Peb:__ZNK25MultiBlocksMemoryFileData5CloneEv
Gqg:_AsyncCallback_BeginInvoke_m2710486612
khk:_GC_add_ext_descriptor
_Nj:__ZNK15dense_hashtableINSt3__24pairIK10KeyWrapperINS1_IPK14Il2CppAssemblyP11Il2CppClassEEEjEES9_17ReflectionMapHashIS8_EN14dense_hash_mapIS9_jSD_NS9_14EqualsComparerINS0_8equal_toIS8_EEEENS0_9allocatorISB_EEE9SelectKeyESI_SK_E23find_position_with_hashERSA_j
iKi:_LayoutGroup_SetProperty_TisSingle_t1397266774_m793506911_gshared
pik:__ZN6il2cpp2os14WindowsRuntime22GetRestrictedErrorInfoEv
zPe:_CryptoConfig_CreateFromName_m1538277313
Zdb:__ZN17ArchiveFileSystem11CreateAsDirER13FileEntryData
Crk:dynCall_iiiiiiiiiiii
op:__ZN9Scripting11UnityEngine2AI18NavMeshBuildSource9InitProxyEv
ucf:_InputField_set_caretPositionInternal_m3823580651
jjd:__ZN18UnityConnectClient16IsServiceEnabledEv
Fqa:__ZN9Scripting11UnityEngine10ColorGamut9InitProxyEv
Vgb:__ZN22VertexDeclarationCacheD0Ev
qmf:_Selectable_set_interactable_m3105888815
LEa:__ZL26KeywordSetToStringDontSortRKNSt3__26vectorIN4core12basic_stringIcNS1_20StringStorageDefaultIcEEEENS_9allocatorIS5_EEEERS5_
tha:__ZN6prcoreL17RemapGenericFloatI16TexFormatRGFloat17TexFormatRGBAHalfEEvPKNS_9InnerInfoE
IS:__ZN12AudioManager22CreateFMODSoundFromWWWEP10IWWWStream15FMOD_SOUND_TYPE17FMOD_SOUND_FORMATjjbbP10SampleClip
bxc:__ZNK32RendererMaterialAnimationBinding15GenerateBindingERKN4core12basic_stringIcNS0_20StringStorageDefaultIcEEEEbRN11UnityEngine9Animation14GenericBindingE
FNd:_TargetException__ctor_m4172127019
wQi:_List_1_CheckCollection_m274117203_gshared
Dxe:__ZL70EventSystem_t1003666588_CustomAttributesCacheGenerator_m_FirstSelectedP21CustomAttributesCache
L8:__ZN8Remapper23GetOrGenerateInstanceIDERK26SerializedObjectIdentifier
TAd:_ColorTween_get_startColor_m3792586410_AdjustorThunk
gbb:__ZN17FileSystemHandler10AtomicMoveER13FileEntryDataS1_
_Fe:__ZL105TrackableField_t1772682203_CustomAttributesCacheGenerator_TrackableField__ctor_m3758796351____validTypes0P21CustomAttributesCache
ILe:_BinaryFormatter_get_SurrogateSelector_m2111882017
Ikg:_X509CertificateCollection__ctor_m3365535796
glb:__ZN11TextureData17GetImageReferenceEii
aHf:_CustomInfo__ctor_m426096741
Ttd:_EventSystem_ToString_m3779610692
yXa:__ZN6Sprite8TransferI24GenerateTypeTreeTransferEEvRT_
SIe:_SoapTypeAttribute_get_IsInteropXmlType_m629667929
Iqc:__Z48Register_UnityEngine_Transform_SetAsFirstSiblingv
oVf:_InternalEnumerator_1_System_Collections_IEnumerator_get_Current_m694606607_gshared
DXa:__ZN7SubMesh8TransferI24GenerateTypeTreeTransferEEvRT_
tdj:_Literal_IsComplex_m4067122560
Yzj:_NativeTypeAttribute__ctor_m133676646
tUb:__ZN19GfxThreadableDevice20SetShadersThreadableEPP10GpuProgramPPK20GpuProgramParametersPKPKh
FUh:_Collection_1_System_Collections_IList_Contains_m296643274_gshared
lJg:_DirectoryInfo__ctor_m126519516
XJd:_MethodBase_GetMethodFromIntPtr_m3014201362
t$h:__ZN21InterfaceFuncInvoker1I19Color32_t2600501292iE6InvokeEjP11Il2CppClassP12Il2CppObjecti
xcj:_Reference_get_CapturingGroup_m3861468528
Zfi:__Z40RuntimeInvoker_TypeAttributes_t113483779PFvvEPK10MethodInfoPvPS4_
nqc:__ZN9Transform23SetSiblingIndexInternalEib
hRi:_List_1_Clear_m1143167521_gshared
xOc:__ZN9JSONWrite8TransferI13dynamic_arrayIaLj0EEEEvRT_PKc17TransferMetaFlags
FWh:_Collection_1_SetItem_m794903769_gshared
rYg:_Enumerator_MoveNext_m635366482
jmg:_X509Extension_Equals_m1222951829
Gw:__ZN7mecanim5human12HumanPoseSubERNS0_9HumanPoseERKS1_S4_
KDi:__Z37RuntimeInvoker_Enumerator_t1789501480PFvvEPK10MethodInfoPvPS4_
e5j:__ZN6il2cpp8metadata15GenericMetadata15GetGenericClassEiPK17Il2CppGenericInst
_tg:_Char_GetTypeCode_m2433327340_AdjustorThunk
_ob:__Z18Transfer_BlittableI14SafeBinaryReadLb0E10Matrix4x4fEvRK29SerializationCommandArgumentsR31RuntimeSerializationCommandInfo
cFb:__Z24GetFixedBehaviourManagerv
PWd:__ZL69IntPtr_t_CustomAttributesCacheGenerator_IntPtr_op_Equality_m408849716P21CustomAttributesCache
XKj:__ZN6il2cpp2vm10ThreadPool4WaitEP17Il2CppAsyncResultPPv
Flg:_PKCS12_Encrypt_m2617413749
u7i:_X509Crl_VerifySignature_m1377612461
Qmk:_vfprintf
ZKc:__ZN10GUIManager12AddGUIScriptER8ListNodeI13MonoBehaviourE
nma:__ZL53__ManagedRegistrationHelperFunction_StackTraceUtilityPv
HYg:_Stack_Clear_m2010200235
MNa:__ZL13SortTexByNameRKNSt3__24pairIN9ShaderLab16FastPropertyNameEN18UnityPropertySheet11UnityTexEnvEEES7_
i$c:_cf2_getVStore
Jvd:_PointerEventData_set_pointerPressRaycast_m1363193059
JZb:__ZN20DynamicPropertySheetD0Ev
eQd:_SafeHandle_Dispose_m4229010569
abc:__ZN14SafeBinaryRead17RegisterConverterEPKcS1_PFbPvRS_E
pge:__ZL77RuntimePlatform_t4159857903_CustomAttributesCacheGenerator_OSXDashboardPlayerP21CustomAttributesCache
$0:__ZN35RegisterRuntimeInitializeAndCleanup8RegisterEPFvPvES2_iS0_
jQb:__ZN7ApiGLES20DrawElementsIndirectE16GfxPrimitiveTypejjj
ZLf:_FieldBuilder_SetValue_m828035213
d1h:_ReadOnlyCollection_1_System_Collections_IList_get_IsFixedSize_m733459177_gshared
A5h:__ZN28GenericInterfaceFuncInvoker0IfE6InvokeEPK10MethodInfoP12Il2CppObject
kXd:__ZL72Enum_t4135868527_CustomAttributesCacheGenerator_Enum_ToObject_m121962870P21CustomAttributesCache
bZh:__ZN23InterfaceActionInvoker2IP24ObjectU5BU5D_t2843939325iE6InvokeEjP11Il2CppClassP12Il2CppObjectS1_i
uGc:__Z21Object_CUSTOM_DestroyP12Il2CppObjectf
ghe:__ZL99SetupCoroutine_t2062820429_CustomAttributesCacheGenerator_SetupCoroutine_InvokeMoveNext_m3199342729P21CustomAttributesCache
sWb:__ZN8Material26ResetAllCachedMaterialDataEP6Shader
lni:__Z63RuntimeInvoker_Void_t1185182177_RuntimeObject_Int16_t2552820387PFvvEPK10MethodInfoPvPS4_
z7c:_UNITY_TT_Get_MM_Var
WMe:_ObjectManager_AddFixup_m2154325362
X$f:_Comparer_1__cctor_m3761458313_gshared
M4g:_DateTimeOffset_CompareTo_m1350732322_AdjustorThunk
aa:invoke_diddi
kcd:__ZNK2UI6Canvas13GetRenderModeEv
mXe:_PersistentCall__ctor_m1217622171
aeh:_Array_compare_TisCustomAttributeTypedArgument_t2723150157_m1384644047_gshared
wkg:_StrongName_get_TokenAlgorithm_m1794722022
job:__Z18Transfer_BlittableI14SafeBinaryReadLb0EiEvRK29SerializationCommandArgumentsR31RuntimeSerializationCommandInfo
JIj:__ZN6il2cpp2vm13MetadataCache30GetPropertyDefinitionFromIndexEi
kij:_SymmetricTransform_Transform_m1683494363
C4e:_Rect_Contains_m1232228501
smd:__ZN22BaseUnityConnectClient17InitializeSessionERKN4core12basic_stringIcNS0_20StringStorageDefaultIcEEEES6_N19CloudServiceHandler13InitModeFlagsE
TZd:__ZL56KeyCollection_t4251528776_CustomAttributesCacheGeneratorP21CustomAttributesCache
sti:__Z74RuntimeInvoker_RuntimeObject_Int32_t2950945753_RuntimeObject_RuntimeObjectPFvvEPK10MethodInfoPvPS4_
kWi:_List_1_get_Item_m200663048_gshared
iIe:_ReturnMessage_get_Exception_m3375728265
txk:_emscripten_glDeleteBuffers__wrapper
tVf:_InternalEnumerator_1_MoveNext_m3664960764_AdjustorThunk
kDc:__ZN13MonoBehaviour34StopCoroutineFromEnumeratorManagedE18ScriptingObjectPtr
ihe:__ZL57DebugLogHandler_t826086171_CustomAttributesCacheGeneratorP21CustomAttributesCache
SOi:_List_1__ctor_m1345008423_gshared
A5c:_gray_raster_reset
Rs:__ZN9Scripting11UnityEngine9HumanBone12CleanupProxyEv
qTc:__ZN11UnityEngine9Analytics18SceneLoadTimeEvent12SetSceneLoadERKN4core12basic_stringIcNS2_20StringStorageDefaultIcEEEEiyyyy
C4a:__ZN30RuntimeInitializeOnLoadManager8TransferI18StreamedBinaryReadILb0EEEEvRT_
A_g:_DateTimeOffset__ctor_m2084804982
V3c:_UNITY_tt_face_load_pclt
Xnb:__ZN9profiling17ScriptingProfiler31UpdateRegisteredScriptingEventsEv
$mc:__ZL34GetComponentsImplementationRecurseILb1ELi0ELi2EEbR10GameObjectbRK17CompareParametersRK39GetComponentsImplementation_ReturnValue
Rpg:_Array_Sort_m3698291233
g_e:_Material_GetTexture_m3545614349
HYa:__ZN13ScreenManager22SetResolutionImmediateEii14FullscreenModei
cei:__Z64RuntimeInvoker_RuntimeObject_Int32_t2950945753_Int16_t2552820387PFvvEPK10MethodInfoPvPS4_
UPh:_ASN1_get_Length_m1923878580
xCh:_EqualityComparer_1__cctor_m4244842342_gshared
cZb:__ZNK6Camera18WorldToScreenPointERK8Vector3fPb
I6e:_SendMouseEvents_DoSendMouseEvents_m2140870850
Xgd:__ZN14UnityAnalyticsD0Ev
iaj:_PatternCompiler_EmitJump_m3915926156
RKb:__Z18IsCompressedFormat14GraphicsFormat
_w:__ZN7mecanim9animation19AdjustPoseForMotionERKNS0_14AvatarConstantERKNS0_14SkeletonTQSMapERKN4math4trsXERNS_10ValueArrayERNS_8skeleton13SkeletonPoseTIS8_EESG_
oNe:_SerializationEntry_get_Name_m1530029541_AdjustorThunk
KLd:_MonoMethod_GetBaseDefinition_m2844667474
$ph:__Z33il2cpp_codegen_check_add_overflowxx
P6:__ZNSt3__227__insertion_sort_incompleteIRPFbRKN18AwakeFromLoadQueue4ItemES4_EPS2_EEbT0_S9_T_
kti:__Z71RuntimeInvoker_Boolean_t97287965_AnimatorControllerPlayable_t1015767841PFvvEPK10MethodInfoPvPS4_
xge:__ZL73RuntimePlatform_t4159857903_CustomAttributesCacheGenerator_MetroPlayerARMP21CustomAttributesCache
FIg:_InvalidOperationException__ctor_m1685032583
JGj:__ZN14dense_hash_mapI10KeyWrapperIN6il2cpp5utils13dynamic_arrayIPK10Il2CppTypeLj4EEEEPFvvENS1_8metadata19Il2CppSignatureHashENS8_14EqualsComparerINSB_22Il2CppSignatureCompareEEENSt3__29allocatorINSG_4pairIKS8_SA_EEEEE15set_deleted_keyERSJ_
Hqh:_TimeSpan_op_Subtraction_m3592306516
vEh:_EqualityComparer_1_System_Collections_IEqualityComparer_GetHashCode_m1517903420_gshared
fWa:__ZN26EnlightenSystemInformation8TransferI14SafeBinaryReadEEvRT_
q5a:__ZN24GenerateTypeTreeTransfer8TransferINSt3__26vectorIN15ResourceManager10DependencyE13stl_allocatorIS4_L18MemLabelIdentifier52ELi16EEEEEEvRT_PKc17TransferMetaFlags
jwj:_CanvasRenderer_SplitUIVertexStreams_m2753637362
Tui:__Z119RuntimeInvoker_Void_t1185182177_RuntimeObject_Single_t1397266774_Single_t1397266774_SByte_t1669577662_Int32_t2950945753PFvvEPK10MethodInfoPvPS4_
bAa:__ZN27PerObjectLightCullingOutputD2Ev
V0a:__ZN12MeshRendererD0Ev
TT:__ZN12AudioManager35GetCurrentSpatializerDefinitionNameEv
d8e:_TouchScreenKeyboard_get_active_m4267591905
Cma:__ZN9Scripting11UnityEngine14WaitForSeconds9InitProxyEv
VSj:__ZNK15dense_hashtableINSt3__24pairIK10KeyWrapperIPK14Il2CppAssemblyEPK22Il2CppMonoAssemblyNameEES6_N6il2cpp5utils11PointerHashIS4_EEN14dense_hash_mapIS6_SA_SF_NS6_14EqualsComparerINS0_8equal_toIS5_EEEENS0_9allocatorISB_EEE9SelectKeyESK_SM_E8min_sizeEjj
yh:_utime
zne:__ZL56PlayableGraph_t3515989261_CustomAttributesCacheGeneratorP21CustomAttributesCache
Bcj:_BalancingGroup_Compile_m2575117193
vVj:__ZNSt3__26vectorIN6il2cpp2vm17TypeNameParseInfoENS_9allocatorIS3_EEE8allocateEj
Ws:__ZN9Scripting11UnityEngine22AnimatorTransitionInfo9InitProxyEv
d9i:_Mark_get_Index_m3048692661_AdjustorThunk
S3i:_TlsServerSettings_get_CertificateRequest_m842655670
on:FUNCTION_TABLE_viiiiif
x$f:_DefaultComparer_Compare_m3931992727_gshared
tn:FUNCTION_TABLE_viiiiii
q_f:_InternalEnumerator_1_System_Collections_IEnumerator_get_Current_m1847780851_AdjustorThunk
ahj:_GUILayoutUtility_get_spaceStyle_m3392862907
zGg:_Int32_System_IConvertible_ToType_m3009233912_AdjustorThunk
B_g:_DateTimeOffset__ctor_m74032857
ymg:_SmallXmlParser_Error_m3899025466
ZF:__ZN7mecanim9animation22DestroyAvatarWorkspaceEPNS0_15AvatarWorkspaceERNS_6memory9AllocatorE
Arh:_Type_type_is_assignable_from_m76737532
YHc:__ZN9Scripting11UnityEngine14GUILayoutGroup12CleanupProxyEv
qhf:_MaskableGraphic_ParentMaskStateChanged_m1092090553
fOa:__ZN14PlayableOutput17SetSourcePlayableEP8Playable
u4a:__ZNSt3__26vectorIN4core12basic_stringIcNS1_20StringStorageDefaultIcEEEE13stl_allocatorIS5_L18MemLabelIdentifier13ELi16EEE8__appendEj
AF:__ZN7mecanim9animation29MotionOutputGetDeltaTransformEPKNS0_12MotionOutputE
pTc:__ZN27PerformanceReportingManager21OnSceneTimingCallbackERK15SceneLoadTimingRKN4core12basic_stringIcNS3_20StringStorageDefaultIcEEEE
t4i:_ValidationResult_get_ErrorCode_m1533688152
Upc:__Z43Transform_CUSTOM_INTERNAL_get_localRotationP12Il2CppObjectP11Quaternionf
tBg:_CultureInfo_get_Parent_m672689885
Hhk:__ZN6il2cpp6icalls8mscorlib6System10Reflection4Emit13ModuleBuilder13RegisterTokenEP29Il2CppReflectionModuleBuilderP12Il2CppObjecti
Rli:__Z50RuntimeInvoker_Int64_t3736567304_SByte_t1669577662PFvvEPK10MethodInfoPvPS4_
yvk:_glGetShaderInfoLog__wrapper
Toe:__ZL63SpriteBone_t303320096_CustomAttributesCacheGenerator_m_ParentIdP21CustomAttributesCache
A6f:_Transform_1_EndInvoke_m2716226219_gshared
bi:_emscripten_glGetTexParameteriv
Aka:__ZL49__ManagedRegistrationHelperFunction_ComputeBufferPv
xjd:__ZN11UnityEngine7Connect15DeviceInfoEvent7GFXInfoD2Ev
Wwk:_glGenTextures__wrapper
lZj:__ZN15dense_hashtableINSt3__24pairIK10KeyWrapperINS1_IP11Il2CppClassjEEES4_EES6_N6il2cpp8metadata14ArrayClassHashEN14dense_hash_mapIS6_S4_SB_NS6_14EqualsComparerINSA_17ArrayClassCompareEEENS0_9allocatorIS8_EEE9SelectKeyESF_SH_EC2EjRKSB_RKSF_RKSJ_
$lh:_UnicodeEncoding_GetHashCode_m354003420
Hfc:__ZN9ShaderLab20SerializedSubProgram14ConstantBufferaSERKS1_
y9g:_Enum_Equals_m3617313991
CXd:__ZL69RuntimeArray_CustomAttributesCacheGenerator_Array_SetValue_m394135409P21CustomAttributesCache
sxi:__Z74RuntimeInvoker_Boolean_t97287965_LineTypeU26_t2430394419_Int32_t2950945753PFvvEPK10MethodInfoPvPS4_
cLa:__ZN8PlayableD0Ev
vg:emscriptenWebGLGetBufferBinding
gM:__ZN12AudioManager8TransferI19StreamedBinaryWriteILb0EEEEvRT_
Tmf:_Slider_UpdateCachedReferences_m3259451627
Rde:__ZL63X509ChainStatusFlags_t1026973125_CustomAttributesCacheGeneratorP21CustomAttributesCache
Gli:__Z50RuntimeInvoker_Double_t594665363_Double_t594665363PFvvEPK10MethodInfoPvPS4_
nki:__Z60RuntimeInvoker_Void_t1185182177_StreamingContext_t3711869237PFvvEPK10MethodInfoPvPS4_
yFe:__ZL62Shadow_t773074319_CustomAttributesCacheGenerator_m_EffectColorP21CustomAttributesCache
d_j:__ZN15dense_hashtableINSt3__24pairIK10KeyWrapperINS1_IP11Il2CppClassjEEES4_EES6_N6il2cpp8metadata14ArrayClassHashEN14dense_hash_mapIS6_S4_SB_NS6_14EqualsComparerINSA_17ArrayClassCompareEEENS0_9allocatorIS8_EEE9SelectKeyESF_SH_E6insertERKS8_
tDd:_U3CShowU3Ec__AnonStorey1_U3CU3Em__0_m2340880019
vmd:__ZN22BaseUnityConnectClient38PrepareConfigRequestOnMainThreadStaticEPS_
emf:_Selectable_OnSetProperty_m1693943217
CLh:_List_1_GetIndex_m2300811709_gshared
axc:__ZNK32RendererMaterialAnimationBinding12GetPPtrValueERKN11UnityEngine9Animation10BoundCurveE
tBb:__Z18Transfer_BlittableI18StreamedBinaryReadILb0EELb0E8Vector2fEvRK29SerializationCommandArgumentsR31RuntimeSerializationCommandInfo
vfd:__ZN2UI11CanvasGroup12CleanupClassEv
n4i:_TlsStream_Flush_m3793197834
GMi:_List_1_GetIndex_m2832472557_gshared
ibb:__ZN22LocalFileSystemHandler9MakeLocalER13FileEntryDatab
adk:__ZN6il2cpp2vm8Profiler10AllocationEP12Il2CppObjectP11Il2CppClass
VAe:__ZL61Graphic_t1660335611_CustomAttributesCacheGenerator_m_MaterialP21CustomAttributesCache
Kga:__Z13FormatOrderedPKcz
PMj:__ZN6il2cpp2vm8basepathEPKc
sYf:_InternalEnumerator_1_get_Current_m1506120701_AdjustorThunk
egg:_X509Chain_GetAuthorityKeyIdentifier_m614536199
mXc:__ZN14SafeBinaryRead21TransferSTLStyleArrayI10vector_mapINSt3__24pairIttEEfN20TextRenderingPrivate8FontImpl14KerningCompareENS2_9allocatorINS3_IS4_fEEEEEEEvRT_17TransferMetaFlags
_vf:_TlsServerFinished__ctor_m1445633918
UGf:_NumberFormatter_FastIntegerToString_m390846811
yge:__ZL68RuntimePlatform_t4159857903_CustomAttributesCacheGenerator_WP8PlayerP21CustomAttributesCache
m0a:__ZN14CompressedMesh10GetQualityE15MeshCompression
A4b:__ZN25DeferredRenderLoopScratchD0Ev
gz:__ZN27AnimationLayerMixerPlayable14SetInputWeightEif
cri:__Z83RuntimeInvoker_Void_t1185182177_RuntimeObject_Single_t1397266774_Single_t1397266774PFvvEPK10MethodInfoPvPS4_
mvd:_PhysicsRaycaster_Raycast_m776323695
r9e:_UnityException__ctor_m1456865679
Cw:__ZN7mecanim9animation17EvaluateHumanPoseERKNS0_18ClipMuscleConstantERKNS0_15ClipMuscleInputEPKfRKNS0_12MotionOutputERNS_5human9HumanPoseE
wye:__ZL92PointerEventData_t3807901092_CustomAttributesCacheGenerator_U3CscrollDeltaU3Ek__BackingFieldP21CustomAttributesCache
Sec:__ZN15dense_hashtableINSt3__24pairIKiN4core17string_with_labelILi1EEEEEi18SInt32HashFunctionN14dense_hash_mapIiS5_S7_NS0_8equal_toIiEE13stl_allocatorIS6_L18MemLabelIdentifier1ELi16EEE9SelectKeyESA_SD_E9copy_fromERKSG_j
vJf:_CustomAttributeNamedArgument_GetHashCode_m2317130892
N4a:__ZN15ResourceManagerD0Ev
vCh:_EqualityComparer_1_get_Default_m990790318_gshared
$Ke:_WellKnownClientTypeEntry_ToString_m1119458503
DBa:__ZN22CreateGpuProgramOutputD2Ev
oVi:_List_1_get_Item_m1378751541_gshared
Fwb:__Z18Transfer_BlittableI19StreamedBinaryWriteILb0EELb1EsEvRK29SerializationCommandArgumentsR31RuntimeSerializationCommandInfo
R5d:__ZL52HMACSHA512_t923916539_CustomAttributesCacheGeneratorP21CustomAttributesCache
l9f:_ValueCollection_CopyTo_m2188334703_gshared
K5e:__ZN23InterfaceActionInvoker1IP25RectTransform_t3704657025E6InvokeEjP11Il2CppClassP12Il2CppObjectS1_
tOg:_SHA1CryptoServiceProvider_Finalize_m1793183797
GZg:_Convert_ToByte_m4146281512
cGh:_HashSet_1_System_Collections_Generic_ICollectionU3CTU3E_CopyTo_m408073502_gshared
jsf:_EncryptedPrivateKeyInfo_get_EncryptedData_m491452551
xbb:__ZN12HandlerChain4OpenER13FileEntryData14FilePermission16FileAutoBehavior
Ygh:_Array_InternalArray__ICollection_Add_TisPlayerLoopSystem_t105772105_m1930641144_gshared
UAi:__Z72RuntimeInvoker_Void_t1185182177_Int32_t2950945753_RaycastHit_t1056001966PFvvEPK10MethodInfoPvPS4_
hae:__ZL79Convert_t2465617642_CustomAttributesCacheGenerator_Convert_ToUInt16_m1147931813P21CustomAttributesCache
NPj:__ZN15dense_hashtableINSt3__24pairIK10KeyWrapperINS1_IPK10MethodInfoP11Il2CppClassEEEjEES9_17ReflectionMapHashIS8_EN14dense_hash_mapIS9_jSD_NS9_14EqualsComparerINS0_8equal_toIS8_EEEENS0_9allocatorISB_EEE9SelectKeyESI_SK_E6insertERKSB_
VK:__ZL55__ManagedRegistrationHelperFunction_AudioPlayableOutputPv
BTc:__ZN27PerformanceReportingManager29OnSceneLoadedAfterAwakeStaticEPS_iR18AwakeFromLoadQueueN19RuntimeSceneManager11LoadingModeE
npg:_Array_SetValue_m394135409
T9:__ZN14FileCacherReadD2Ev
H7a:__ZN13RendererScene23UpdatePreviousFrameDataEii
j0e:_MonoBehaviour_StopCoroutine_m615723318
Jmc:__Z50Register_UnityEngine_CullingGroup_FinalizerFailurev
SLi:_Mesh_GetAllocArrayFromChannel_TisVector2_t2156229523_m1057679375_gshared
gRg:_SecurityPermission_IsSubsetOf_m545000671
FAa:__ZNK4PPtrI5FlareEcvPS0_Ev
Zz:__ZN26AnimatorControllerPlayable6MemoryD2Ev
BDi:__Z56RuntimeInvoker_Int32_t2950945753_SpriteState_t1362986479PFvvEPK10MethodInfoPvPS4_
Jjc:__ZN12ShaderErrors11ShaderErrorC2EOS0_
Apk:__ZNKSt3__221__basic_string_commonILb1EE20__throw_out_of_rangeEv
PVe:_Cursor_get_lockState_m2828192107
Jgi:__Z78RuntimeInvoker_Boolean_t97287965_RuntimeObject_RuntimeObject_Int32_t2950945753PFvvEPK10MethodInfoPvPS4_
aKj:_UpdatedEventHandler_Invoke_m1320302085
YVg:_String_Format_m630303134
T2j:__ZNK15dense_hashtableINSt3__24pairIK10KeyWrapperIP14Il2CppIUnknownEjEES5_N6il2cpp5utils11PointerHashIS3_EEN14dense_hash_mapIS5_jSB_NS5_14EqualsComparerINS0_8equal_toIS4_EEEENS0_9allocatorIS7_EEE9SelectKeyESG_SI_E12test_deletedERK24dense_hashtable_iteratorIS7_S5_SB_SK_SG_SI_E
vS:__ZN9AudioClip23VirtualRedirectTransferER18StreamedBinaryReadILb0EE
VG:__ZN26AnimatorOverrideController23VirtualRedirectTransferER24GenerateTypeTreeTransfer
LVi:_List_1_AddEnumerable_m2724989594_gshared
MWi:_List_1_Contains_m2043463915_gshared
Lti:__Z82RuntimeInvoker_Vector2_t2156229523_Vector2_t2156229523_RuntimeObject_RuntimeObjectPFvvEPK10MethodInfoPvPS4_
XEc:__Z70Register_UnityEngine_Playables_PlayableHandle_GetPlayableType_Injectedv
pJb:__ZNK4PPtrI23ShaderVariantCollectionEcvPS0_Ev
pP:__ZN5audio5mixer22UpdateAudioMixerMemoryERKNS0_18AudioMixerConstantERNS0_16AudioMixerMemoryEfPN4FMOD6SystemEf
Cj:_glCopyTexSubImage2D
ixc:__ZNK24RendererAnimationBinding13GetFloatValueERKN11UnityEngine9Animation10BoundCurveE
$Z:__ZNK15DownloadHandler14HasPendingDataEv
w9e:_UnitySynchronizationContext_ExecuteTasks_m1310741010
$Mg:_RIPEMD160Managed_CompressFinal_m497690796
xGb:__ZN18ScreenManagerWebGL13SetShowCursorEb
SRf:_InternalEnumerator_1_MoveNext_m1773160976_gshared
uUb:__ZN13DrawImmediateC2ER9GfxDevice
bEa:__ZN18VertexChannelsInfoC2ERA12_K11ChannelInfo
Bpf:_Kernel_MultiplyMod2p32pmod_m451690680
Wob:__Z18Transfer_BlittableI14SafeBinaryReadLb0E5RectTIfEEvRK29SerializationCommandArgumentsR31RuntimeSerializationCommandInfo
YGf:_NumberFormatter_NumberToString_m2562899600
JPg:_SymmetricAlgorithm_get_FeedbackSize_m3666584308
G2c:_otv_u_C_x_Ox
pVc:__ZL44__ManagedRegistrationHelperFunction_ColliderPv
AXd:__ZL70RuntimeArray_CustomAttributesCacheGenerator_Array_GetValue_m1062368071P21CustomAttributesCache
Kxk:_emscripten_glGenVertexArrays__wrapper
Tvh:_Version_Clone_m1749041863
t5f:_ShimEnumerator_get_Key_m4155849607_gshared
xPa:__ZN6prcoreL21CreateRemapAnyBlitterE13TextureFormatS0_
Nsf:_RSAManaged_ExportParameters_m1754454264
EBc:__ZN17AnimationCurveTplIfE16StripInvalidKeysEv
Qrg:_Boolean_Equals_m535526264_AdjustorThunk
cDi:__Z71RuntimeInvoker_KeyValuePair_2_t71524366_Int32_t2950945753_RuntimeObjectPFvvEPK10MethodInfoPvPS4_
eod:__ZN13dynamic_arrayIiLj0EE6insertEPiPKiS3_
ddd:__ZNK2UI6Canvas17GetSortingLayerIDEv
H1g:_Convert_ToUInt16_m3116648921
zCc:__ZL12HashLen0to16PKcj
tXj:_il2cpp_method_has_attribute
AVa:__ZN8Renderer24SetupNewRendererForSceneEv
vrh:_Type_internal_from_name_m1721940673
MXj:_il2cpp_type_get_class_or_element_class
LIi:_Array_swap_TisCustomAttributeTypedArgument_t2723150157_TisCustomAttributeTypedArgument_t2723150157_m365781156_gshared
Dyg:_Environment_get_TickCount_m2088073110
yKe:_RemotingServices_GetMethodBaseFromName_m3194612939
$Pc:__Z35Transfer_Blittable_FixedBufferFieldI8JSONReadtEvRK29SerializationCommandArgumentsR31RuntimeSerializationCommandInfo
BAa:__ZN4PPtrI7TextureE8TransferI14SafeBinaryReadEEvRT_
Dzc:__ZN14PlayableOutput6HandleEv
MWa:__ZNK6Sprite22GetTypeVirtualInternalEv
Rpa:__ZN9Scripting11UnityEngine12Experimental9Playables22MaterialEffectPlayable9InitProxyEv
jmd:__ZNSt3__26__treeINS_12__value_typeIN4core12basic_stringIcNS2_20StringStorageDefaultIcEEEEN11UnityEngine7Connect19RemoteSettingsValueEEENS_19__map_value_compareIS6_SA_NS_4lessIS6_EELb1EEE13stl_allocatorISA_L18MemLabelIdentifier6ELi16EEE16__construct_nodeIJNS_4pairIS6_S9_EEEEENS_10unique_ptrINS_11__tree_nodeISA_PvEENS_22__tree_node_destructorISF_ISP_LSG_6ELi16EEEEEEDpOT_
nn:FUNCTION_TABLE_iiiiiiiiiiiiii
Uzj:_NativePropertyAttribute__ctor_m2033094153
vod:__ZN19UnityConnectService18OnPlayerQuitStaticEPS_
x3c:_UNITY_tt_get_cmap_info
hAf:_SslClientStream_RaiseServerCertificateValidation_m3477149273
Kvb:__Z29Transfer_Blittable_ArrayFieldI24GenerateTypeTreeTransfer5RectTIiEEvRT_R9ArrayInfoRK23StaticTransferFieldInfo
AGa:__ZN16ReflectionProbes8ScheduleEN18ReflectionProbeJob7JobTypeEP15ReflectionProbei
cwf:_ClientSessionInfo_KeepAlive_m1020179566
bXi:_List_1_ToArray_m4056539300_gshared
Q_d:__ZL51Calendar_t1661121569_CustomAttributesCacheGeneratorP21CustomAttributesCache
$aa:__ZN16MessageForwarder13HandleMessageEPviR11MessageData
Ycb:__Z18IsDirectoryCreatedRKN4core12basic_stringIcNS_20StringStorageDefaultIcEEEE
VQg:_String_FormatHelper_m3913915042
bbd:__ZN2UI13CanvasManagerD2Ev
aJf:_ConstructorInfo__cctor_m1016079270
vDj:__ZN15dense_hashtableINSt3__24pairIK10KeyWrapperIPKcEP11Il2CppClassEES5_N6il2cpp5utils11StringUtils12StringHasherIS4_EEN14dense_hash_mapIS5_S8_SE_NS5_14EqualsComparerINSB_13VmStringUtils21CaseSensitiveComparerEEENS0_9allocatorIS9_EEE9SelectKeyESJ_SL_E15set_deleted_keyERKS9_
GUh:__ZN21InterfaceFuncInvoker1Ib20UIVertex_t4057497605E6InvokeEjP11Il2CppClassP12Il2CppObjectS0_
VXh:_ReadOnlyCollection_1_Contains_m1700717617_gshared
kng:_AttrListImpl_get_Names_m977594476
tJf:_CustomAttributeData_GetHashCode_m3727773664
EZc:_UNITY_FT_GlyphLoader_Done
lga:__ZNSt3__23mapIiN11TypeManager18TypeCallbackStructENS_4lessIiEENS_9allocatorINS_4pairIKiS2_EEEEEixERS7_
dve:__ZL89GUIStyle_t3956901511_CustomAttributesCacheGenerator_GUIStyle_get_stretchWidth_m3556443132P21CustomAttributesCache
xNd:_Pointer_Box_m389276611
tnb:__ZNK17InstancingBatcher15RenderInstancesERK19ShaderPropertySheetRKNS_22RenderInstancesConfigsERK11MeshBuffersRK16DrawBuffersRange16VertexInputMasks
E7g:_StackTrace_get_FrameCount_m344690939
H9:__ZN13dynamic_arrayIcLj0EE6insertEPcPKcS3_
XBf:_UnexceptionalStreamWriter_Write_m363195622
Lze:__ZL108U3CStartU3Ec__Iterator0_t1249263001_CustomAttributesCacheGenerator_U3CStartU3Ec__Iterator0__ctor_m1316384627P21CustomAttributesCache
x4c:_tt_cmap14_char_var_index
rCb:__Z35Transfer_Blittable_FixedBufferFieldI18StreamedBinaryReadILb0EEdEvRK29SerializationCommandArgumentsR31RuntimeSerializationCommandInfo
hdf:_Selectable_OnPointerDown_m1086067264
C8c:_psh_globals_new
NCd:_Dropdown_SetupTemplate_m628218778
tnh:_Thread_GetCompressedStack_m2923422412
Atf:__ZN28GenericInterfaceFuncInvoker2IbP26X509Certificate_t713131622P22Int32U5BU5D_t385246372E6InvokeEPK10MethodInfoP12Il2CppObjectS1_S3_
Y_e:_Matrix4x4_MultiplyPoint3x4_m4145063176
teg:_X509BasicConstraintsExtension_ToString_m1809935297
chb:__ZN9GfxDevice20SetMaxBufferedFramesEi
Lxj:_TweenRunner_1_StartTween_m1055628540_gshared
b_h:_ReadOnlyCollection_1_System_Collections_IList_Remove_m4129318771_gshared
WJi:_GameObject_GetComponents_TisRuntimeObject_m1246177135_gshared
mP:__ZN24AudioScriptBufferManagerD2Ev
Srk:dynCall_vdd
LCf:_MethodAccessException__ctor_m3542088436
vcc:__Z23ConvertIntegerToTypePtrIsEbPvR14SafeBinaryRead
ut:__ZN9Scripting11UnityEngine10Animations26AnimatorControllerPlayable9InitProxyEv
_ug:_ArrayListWrapper_get_Capacity_m51087796
Oef:_LayoutElement_get_minHeight_m4160507569
Emd:__ZN11UnityEngine7Connect13ConfigHandler13ConfigChangedERKN4core12basic_stringIcNS2_20StringStorageDefaultIcEEEEb
RBh:_EqualityComparer_1_System_Collections_IEqualityComparer_GetHashCode_m2230215241_gshared
aEe:__ZL60ContentSizeFitter_t3850442145_CustomAttributesCacheGeneratorP21CustomAttributesCache
myg:_Hashtable_Contains_m2145146412
Cfe:__ZL64UnmarshalledAttribute_t1517743549_CustomAttributesCacheGeneratorP21CustomAttributesCache
Dja:__ZN6prcoreL29inner_stretch_rgb565_bilinearEPKNS_9InnerInfoE
H1f:_Enumerator__ctor_m1195706188_AdjustorThunk
nDa:__Z26TransformVerticesInnerLoopILb0ELb0ELb1EEvPhRK10Matrix4x4fRK10Matrix3x3fjPKhiS8_ii25GfxTransformVerticesFlagsj
lkk:__ZN6il2cpp2os9FastMutex4LockEv
QFg:_Int32_FindCurrency_m3541026887
kkg:_Interval_CompareTo_m3282557545
Iyk:_pthread_cond_wait__wrapper
H3b:__ZNK14RenderSettings19GetFlatAmbientColorEv
ICa:__ZN8DrawUtil24DrawMeshRawFromNodeQueueERK15RenderNodeQueuej16VertexInputMasksi
E3a:__ZN18StreamedBinaryReadILb0EE21TransferSTLStyleArrayI10vector_mapIPKN5Unity4TypeE7Hash128NSt3__24lessIS6_EENS8_9allocatorINS8_4pairIS6_S7_EEEEEEEvRT_17TransferMetaFlags
dB:__ZNK27StateMachineBehaviourPlayer15IsSenderEnabledEv
oQj:__ZN6il2cpp2gc19AppendOnlyGCHashMapINSt3__24pairIPK11Il2CppImageP11Il2CppClassEEP22Il2CppReflectionModule17ReflectionMapHashIS9_ENS2_8equal_toIS9_EEE11TryGetValueERKS9_PSB_
DDe:__ZL58Text_t1901882714_CustomAttributesCacheGenerator_m_FontDataP21CustomAttributesCache
tMf:_GenericTypeParameterBuilder_IsPrimitiveImpl_m1952010459
GZh:_ReadOnlyCollection_1_CopyTo_m3474153465_gshared
r8i:_RijndaelManagedTransform_TransformBlock_m1610137419
Cqc:__Z40Register_UnityEngine_Transform_SetParentv
T6d:__ZL94WindowsIdentity_t2948242406_CustomAttributesCacheGenerator_WindowsIdentity_Dispose_m3466258450P21CustomAttributesCache
OOa:__ZN14Texture2DArray17UploadToGfxDeviceEv
dO:__Z14FMODMemoryFreePvjPKc
hre:__ZL100RectTransform_t3704657025_CustomAttributesCacheGenerator_RectTransform_INTERNAL_get_rect_m3130887130P21CustomAttributesCache
iJh:_Enumerator__ctor_m2029608698_gshared
Kpa:__ZN9Scripting11UnityEngine12Experimental10PlayerLoop11FixedUpdate12CleanupProxyEv
dLj:_NetFxCoreExtensions_GetMethodInfo_m444570327
mrh:_Type_get_IsSystemType_m624798880
z$e:_Mesh_SetNormals_m2521889643
e$d:__ZL77RegionInfo_t1090270226_CustomAttributesCacheGenerator_U3CU3Ef__switchU24map1BP21CustomAttributesCache
P$c:_cf2_glyphpath_moveTo
OUi:_List_1_AddCollection_m1469681717_gshared
eEc:__Z51Register_UnityEngine_Texture_get_texelSize_Injectedv
q7e:_StackTraceUtility_SetProjectFolder_m830524047
Dx:__ZN7mecanim23TransformValueArrayLoopEiiiRKN4math4trsXES3_RNS_10ValueArrayEf
rwf:_ClientSessionInfo_Finalize_m2165787049
yKc:__ZN5IMGUI14GUIWindowStateD2Ev
ovf:_ClientContext_Clear_m1774063253
XAc:__ZN4Mesh17SetIndicesComplexEPKvjj16GfxPrimitiveTypeij
Y3g:_DateTime_AddSeconds_m332574389_AdjustorThunk
d9e:_RequestAtlasCallback_Invoke_m378128467
rsg:_Byte_System_IConvertible_ToSByte_m1869482168
Hji:__Z99RuntimeInvoker_RuntimeObject_RuntimeObject_RuntimeObject_StreamingContext_t3711869237_RuntimeObjectPFvvEPK10MethodInfoPvPS4_
Ajj:_AnalyticsEventTracker_Awake_m2780522130
FE:__ZN7mecanim5human10RetargetToEPKNS0_5HumanEPKNS0_9HumanPoseES6_RKN4math4trsXEPS4_PNS_8skeleton13SkeletonPoseTIS8_EESF_
wx:__ZN7mecanim9animation8SeekClipERKNS0_12StreamedClipERNS0_18StreamedClipMemoryEf
SYe:_GameObject_Internal_AddComponentWithType_m3797731663
lm:_emscripten_glIsTexture
Sk:_emscripten_glHint
Eij:_Check_SourceAndPredicate_m2332465641
qXd:__ZL70RuntimeArray_CustomAttributesCacheGenerator_Array_get_Length_m21610649P21CustomAttributesCache
l7c:_ft_var_readpackeddeltas
One:__ZL80Logger_t274032455_CustomAttributesCacheGenerator_U3ClogEnabledU3Ek__BackingFieldP21CustomAttributesCache
qzh:_Dictionary_2_Clear_m1938428402_gshared
Syb:__Z35Transfer_Blittable_FixedBufferFieldI18StreamedBinaryReadILb1EEtEvRK29SerializationCommandArgumentsR31RuntimeSerializationCommandInfo
Fth:_UInt32_System_IConvertible_ToInt64_m2261037378
om:_SDL_UpperBlit
vGa:__Z35GetTextureDecodeValuesWithIntensity16TextureUsageMode17TextureColorSpace10ColorSpacef
mbj:_Parser_ParseRepetitionBounds_m1246581246
Zah:_Array_InternalArray__ICollection_Remove_TisChar_t3634460470_m4143749387_gshared
IUb:__ZN15dense_hashtableINSt3__24pairIK9TextureIDiEES2_14GfxGenericHashIS2_EN14GfxDoubleCacheIS2_iS6_NS0_8equal_toIS2_EEN31GfxDoubleCacheConcurrencyPolicy11LocklessGetE42GfxDoubleCacheDefaultEmptyDeletedGeneratorIS2_EE9SelectKeyES9_13stl_allocatorIS4_L18MemLabelIdentifier24ELi16EEE14squash_deletedEv
dsc:__Z13RegisterClassI14Texture2DArrayEvPKc
mRj:__ZN15dense_hashtableINSt3__24pairIK10KeyWrapperINS1_IPK12PropertyInfoP11Il2CppClassEEEjEES9_17ReflectionMapHashIS8_EN14dense_hash_mapIS9_jSD_NS9_14EqualsComparerINS0_8equal_toIS8_EEEENS0_9allocatorISB_EEE9SelectKeyESI_SK_ED2Ev
Yjh:_Encoding_GetBytes_m3823106599
FAg:_GregorianCalendar__ctor_m979779718
Izf:_SslClientStream__ctor_m2402546929
gUe:_Camera_get_pixelRect_Injected_m2326986893
Bag:_DictionaryNodeEnumerator_get_Entry_m2309234501
AAj:__ZNK10KeyWrapperIPK22Il2CppGenericParameterE14EqualsComparerINSt3__28equal_toIS2_EEEclERKS3_SA_
X9:__ZN14FileCacherRead16UnlockCacheBlockEj
vIh:_Enumerator_Dispose_m951715887_AdjustorThunk
bTf:_InternalEnumerator_1_System_Collections_IEnumerator_Reset_m521819017_AdjustorThunk
uH:__ZN26AnimatorOverrideController8TransferI24GenerateTypeTreeTransferEEvRT_
$Jg:_IsolatedStorageException__ctor_m1022659452
c4:__ZN10InstancingL21OnGraphicsCapsChangedEv
rsb:__Z18Transfer_BlittableI17RemapPPtrTransferLb1E8Vector3fEvRK29SerializationCommandArgumentsR31RuntimeSerializationCommandInfo
m2d:__ZL61ClassInterfaceType_t4029497327_CustomAttributesCacheGeneratorP21CustomAttributesCache
Qle:__ZL101SystemInfo_t3561985952_CustomAttributesCacheGenerator_SystemInfo_GetOperatingSystemFamily_m1440411909P21CustomAttributesCache
uph:_WaitHandle_get_Handle_m3260446580
qJh:_Enumerator_VerifyState_m1745883925_AdjustorThunk
Gc:_emscripten_glUniform1f
MXg:_SortedList__ctor_m1261191695
HYj:__ZN6il2cpp2vm6Thread28GetThreadStaticDataForThreadEiP12Il2CppThread
q3h:_ReadOnlyCollection_1_System_Collections_IList_get_IsReadOnly_m165706550_gshared
Sei:__Z75RuntimeInvoker_Int32_t2950945753_DecimalU26_t3714369516_Int64U26_t200113976PFvvEPK10MethodInfoPvPS4_
p_c:__Z20ParseImageParametersR11UTF16StringRiRN20TextRenderingPrivate16TextFormatChangeE
RDe:__ZL55CanvasScaler_t2767979955_CustomAttributesCacheGeneratorP21CustomAttributesCache
PVh:_Collection_1_RemoveItem_m2942561924_gshared
Lc:_emscripten_glUniform1i
fub:__Z18Transfer_BlittableI24GenerateTypeTreeTransferLb1EN4math12int3_storageEEvRK29SerializationCommandArgumentsR31RuntimeSerializationCommandInfo
NE:__ZN12_GLOBAL__N_119PreProcessAnimationER35AnimationPlayableEvaluationConstantR17AnimationPlayable
ujf:__Z14bankers_roundff
cQj:__ZN15dense_hashtableINSt3__24pairIK10KeyWrapperINS1_IPK10MethodInfoP11Il2CppClassEEEjEES9_17ReflectionMapHashIS8_EN14dense_hash_mapIS9_jSD_NS9_14EqualsComparerINS0_8equal_toIS8_EEEENS0_9allocatorISB_EEE9SelectKeyESI_SK_E12expand_arrayEjN21dense_hash_map_traits17integral_constantIbLb0EEE
uY:__ZN11UnityEngine15CloudWebService16SessionContainer20RestoreSessionHeaderERKN4core12basic_stringIcNS2_20StringStorageDefaultIcEEEES8_RNS0_13SessionHeaderE
F9f:_ValueCollection_System_Collections_Generic_ICollectionU3CTValueU3E_Contains_m875763171_gshared
Pod:__ZN22UnityWebRequestManager13BackendRetainEv
xAc:__ZN8Material28ApplyMaterialPropertyDrawersEv
zjk:__ZN6il2cpp2os12Cryptography23GetCryptographyProviderEv
fBj:__ZN24dense_hashtable_iteratorINSt3__24pairIK10KeyWrapperIPK22Il2CppGenericParameterEP11Il2CppClassEES6_N6il2cpp5utils11PointerHashIS4_EEN14dense_hash_mapIS6_S9_SE_NS6_14EqualsComparerINS0_8equal_toIS5_EEEENS0_9allocatorISA_EEE9SelectKeyESJ_SL_E30advance_past_empty_and_deletedEv
pu:__ZN11UnityEngine9Animation27CreateAvatarBindingConstantER9TransformPKN7mecanim9animation14AvatarConstantERNS3_6memory9AllocatorE
ybg:_MonoTODOAttribute__ctor_m1298576268
Ygf:_MaskableGraphic_get_onCullStateChanged_m3331479633
Xii:__Z151RuntimeInvoker_RuntimeObject_Int32_t2950945753_RuntimeObject_ObjectU5BU5DU26_t712384779_RuntimeObject_RuntimeObject_RuntimeObject_ObjectU26_t2146539884PFvvEPK10MethodInfoPvPS4_
ihd:__ZN8JSONRead19TransferSTLStyleMapINSt3__23mapIN4core12basic_stringIcNS3_20StringStorageDefaultIcEEEEN11UnityEngine9Analytics16LimitEventConfigENS1_4lessIS7_EE13stl_allocatorINS1_4pairIKS7_SA_EEL18MemLabelIdentifier6ELi16EEEEEEvRT_17TransferMetaFlags
vDc:__ZN9BlobWriteC2ER13dynamic_arrayIhLj16EE24TransferInstructionFlags19BuildTargetPlatform
wzd:_CanvasUpdateRegistry__ctor_m2005397069
Vpe:__ZL77Input_t1431474628_CustomAttributesCacheGenerator_Input_GetAxisRaw_m2316819917P21CustomAttributesCache
d8:__ZN14MessageHandler3GetEv
OKd:_MonoMethodInfo_GetCallingConvention_m3156036493
BYe:_SupportedRenderingFeatures_FallbackMixedLightingModeByRef_m3859171964
_c:_emscripten_glAttachShader
c2:__Z40DebugStringToFilePostprocessedStacktraceRK21DebugStringToFileData
oHd:_Image__cctor_m1927508576
coh:_SendOrPostCallback_EndInvoke_m2485163446
_gc:__ZNSt3__26vectorIN4core12basic_stringIcNS1_20StringStorageDefaultIcEEEENS_9allocatorIS5_EEE6assignIPS5_EENS_9enable_ifIXaasr21__is_forward_iteratorIT_EE5valuesr16is_constructibleIS5_NS_15iterator_traitsISC_E9referenceEEE5valueEvE4typeESC_SC_
OUa:__ZThn32_N8Renderer15AddAsRenderNodeER15RenderNodeQueueRK20DeprecatedSourceData
eRb:__ZN13dynamic_arrayIN18GlslGpuProgramGLES9GLProgramELj0EE6insertEPS1_jRKS1_
u_f:_InternalEnumerator_1_get_Current_m3331252162_AdjustorThunk
kWd:__ZL76String_t_CustomAttributesCacheGenerator_String_Concat_m1809518182____values0P21CustomAttributesCache
Dob:__Z18Transfer_BlittableI14SafeBinaryReadLb0E11QuaternionfEvRK29SerializationCommandArgumentsR31RuntimeSerializationCommandInfo
$Bb:__Z18Transfer_BlittableI18StreamedBinaryReadILb0EELb1E12PropertyNameEvRK29SerializationCommandArgumentsR31RuntimeSerializationCommandInfo
M1:_tlsf_walk_heap
Mii:__Z49RuntimeInvoker_Void_t1185182177_OpCode_t123070264PFvvEPK10MethodInfoPvPS4_
s_j:__ZNK15dense_hashtableINSt3__24pairIK10KeyWrapperIP11Il2CppClassES4_EES5_N6il2cpp8metadata16SZArrayClassHashEN14dense_hash_mapIS5_S4_SA_NS5_14EqualsComparerINS9_19SZArrayClassCompareEEENS0_9allocatorIS7_EEE9SelectKeyESE_SG_E10test_emptyERK24dense_hashtable_iteratorIS7_S5_SA_SI_SE_SG_E
fri:__Z69RuntimeInvoker_Void_t1185182177_Int32_t2950945753_HitInfo_t3229609740PFvvEPK10MethodInfoPvPS4_
cse:__ZL59AnimatorClipInfo_t3156717155_CustomAttributesCacheGeneratorP21CustomAttributesCache
e2g:_Convert_ToUInt32_m3592050311
gb:invoke_vif
LJi:_Component_GetComponents_TisRuntimeObject_m2416546752_gshared
hb:invoke_vid
WWf:_InternalEnumerator_1__ctor_m2202456613_AdjustorThunk
Spk:__ZNSt3__212basic_stringIcNS_11char_traitsIcEENS_9allocatorIcEEE6insertEjPKc
jb:invoke_vii
GYb:__ZNK12ImageFilters8DoRenderER17ShaderPassContextP13RenderTextureS3_RKNSt3__26vectorI11ImageFilterNS4_9allocatorIS6_EEEE
Pua:__ZN12TLSAllocatorI14StackAllocatorE16ThreadInitializeEP13BaseAllocator
kki:__Z82RuntimeInvoker_Boolean_t97287965_SByte_t1669577662_RuntimeObject_SByte_t1669577662PFvvEPK10MethodInfoPvPS4_
nhb:__ZN9GfxDevice32UpdateStereoViewProjectionMatrixE21MonoOrStereoscopicEye
M_:__Z29GetCloudWebServicesModuleSpecv
_dd:__Z41CanvasRenderer_CUSTOM_DisableRectClippingP12Il2CppObject
XDf:_MonoType_GetConstructorImpl_m441167626
Cka:__ZL45__ManagedRegistrationHelperFunction_CoroutinePv
vld:__ZNSt3__26__treeINS_12__value_typeIN4core12basic_stringIcNS2_20StringStorageDefaultIcEEEE14CallbackArray3IRKS6_R8JSONReadbEEENS_19__map_value_compareIS6_SD_NS_4lessIS6_EELb1EEE13stl_allocatorISD_L18MemLabelIdentifier6ELi16EEE4findIS6_EENS_15__tree_iteratorISD_PNS_11__tree_nodeISD_PvEEiEERKT_
a$i:_Collection_1_IsFixedSize_m3709118201_gshared
Afb:__ZN25SingleBlockMemoryFileDataD0Ev
lK:__ZNSt3__26vectorI14ConstantStringNS_9allocatorIS1_EEE6assignINS_11__wrap_iterIPS1_EEEENS_9enable_ifIXaasr21__is_forward_iteratorIT_EE5valuesr16is_constructibleIS1_NS_15iterator_traitsISA_E9referenceEEE5valueEvE4typeESA_SA_
u3h:_ReadOnlyCollection_1_CopyTo_m586367390_gshared
pY:__ZN11UnityEngine15CloudWebService16SessionContainer21ConvertFromFolderTimeERKN4core12basic_stringIcNS2_20StringStorageDefaultIcEEEEPjPt
fPe:_CodeAccessPermission_Equals_m1555575992
nqb:__ZNSt3__26vectorI8GUIStyle13stl_allocatorIS1_L18MemLabelIdentifier1ELi16EEE7reserveEj
j_h:_ReadOnlyCollection_1_Contains_m3869904379_gshared
q$j:__ZN6il2cpp6icalls8mscorlib6System9Threading6Thread27GetSerializedCurrentCultureEP12Il2CppThread
Xdh:__ZN21InterfaceFuncInvoker2IibbE6InvokeEjP11Il2CppClassP12Il2CppObjectbb
Owf:_Context_set_ReadSequenceNumber_m2154909392
m8i:_RijndaelTransform_SubByte_m3037693507
Etc:__Z31CalculateHierarchyTransformType23TransformAccessReadOnly
FN:__ZN4FMOD8ChannelI11setPositionEjj
wZe:_Input_INTERNAL_CALL_GetTouch_m3481893561
nfk:_GC_set_fl_marks
h4a:__ZNSt3__26vectorIN30RuntimeInitializeOnLoadManager15ClassMethodInfoE13stl_allocatorIS2_L18MemLabelIdentifier13ELi16EEE7reserveEj
qhb:__ZN9GfxDevice17SetStereoViewportE15StereoscopicEyeRK5RectTIiE
bga:__ZN17BaseObjectManager13StaticDestroyEPv
F0:__GLOBAL__sub_I_Runtime_Graphics_Mesh_1_cpp
Wvj:_CanvasRenderer_INTERNAL_CALL_GetColor_m597074473
qPd:_ClassInterfaceAttribute__ctor_m637338123
Nmh:_UTF7Decoder_GetChars_m3413809261
nT:__ZN12AudioManager14UpdateListenerERK8Vector3fS2_S2_S2_
sXd:__ZL70RuntimeArray_CustomAttributesCacheGenerator_Array_get_Rank_m3448755881P21CustomAttributesCache
wLf:_EnumBuilder_GetEvent_m4074915332
lLg:_FileSystemInfo_get_FullName_m3468398407
B8e:_Vector3_get_forward_m3100859705
HL:__ZN4FMOD6Reverb13setPropertiesEPK22FMOD_REVERB_PROPERTIES
xZj:__ZN15dense_hashtableINSt3__24pairIK10KeyWrapperIP11Il2CppClassES4_EES5_N6il2cpp8metadata16SZArrayClassHashEN14dense_hash_mapIS5_S4_SA_NS5_14EqualsComparerINS9_19SZArrayClassCompareEEENS0_9allocatorIS7_EEE9SelectKeyESE_SG_E5clearEv
s_b:__ZN9DepthPass13PrepareSubsetEjRK10RenderNodeifRK17ShaderReplaceData
UUg:_String_IndexOf_m3406607758
Qfc:__ZN9ShaderLab20SerializedSubProgram16TextureParameter8TransferI14SafeBinaryReadEEvRT_
sqf:_ASN1__ctor_m3517592395
l3c:_otv_BaseCoord_validate
dBc:__Z35SetMeshComponentFromArrayFromScriptR4Mesh30InternalScriptingShaderChannel34InternalScriptingVertexChannelTypei17ScriptingArrayPtri
fGa:__ZN4PPtrI6ShaderE8TransferI19StreamedBinaryWriteILb0EEEEvRT_
Bgh:_Array_InternalArray__ICollection_Add_TisCustomAttributeNamedArgument_t287865710_m4157175270_gshared
Gq:__ZN4core20StringStorageDefaultIcE6assignEPKcj
Kuh:_UInt64_System_IConvertible_ToUInt64_m2135047981_AdjustorThunk
Gpf:_BigInteger_ModPow_m3776562770
H6j:__ZN15dense_hashtableINSt3__24pairIK10KeyWrapperIP12Il2CppObjectEN6il2cpp2gc9CachedCCWEEES5_NS7_5utils11PointerHashIS3_EEN14dense_hash_mapIS5_S9_SD_NS5_14EqualsComparerINS0_8equal_toIS4_EEEENS0_9allocatorISA_EEE9SelectKeyESI_SK_E3endEv
wld:__ZNSt3__26__treeINS_12__value_typeIN4core12basic_stringIcNS2_20StringStorageDefaultIcEEEE14CallbackArray3IRKS6_R8JSONReadbEEENS_19__map_value_compareIS6_SD_NS_4lessIS6_EELb1EEE13stl_allocatorISD_L18MemLabelIdentifier6ELi16EEE25__emplace_unique_key_argsIS6_JNS_4pairIS6_SC_EEEEENSN_INS_15__tree_iteratorISD_PNS_11__tree_nodeISD_PvEEiEEbEERKT_DpOT0_
Pyf:_RecordProtocol_ProcessChangeCipherSpec_m15839975
Bug:_ArrayList_IndexOf_m305368842
EWi:_List_1_Add_m2996644200_gshared
r8b:__ZN6Camera6SetFarEf
uLe:_FormatterConverter_ToBoolean_m1680758923
nja:__ZN6prcoreL12RemapGenericI17TexFormatABGR888817TexFormatARGB8888EEvPKNS_9InnerInfoE
mva:__ZN11GameManager17MainThreadCleanupEv
EYg:_Stack_get_Count_m2258661097
$Xh:_ReadOnlyCollection_1__ctor_m1345363288_gshared
Hdd:__Z50Register_UnityEngine_UISystemProfilerApi_EndSamplev
kwh:_Dictionary_2_System_Collections_ICollection_get_SyncRoot_m2020472285_gshared
ZYf:_InternalEnumerator_1_System_Collections_IEnumerator_Reset_m1775752715_AdjustorThunk
Vfe:__ZL91Application_t1852185770_CustomAttributesCacheGenerator_Application_get_isPlaying_m100394690P21CustomAttributesCache
FRd:_ConfigHandler_OnProcessingInstruction_m4212209262
sSi:_List_1_Reverse_m3290386475_gshared
vMe:_SerializationCallbacks_GetSerializationCallbacks_m2939476649
omb:__ZNSt3__26vectorIN20GpuProgramParameters19AtomicCounterBufferENS_9allocatorIS2_EEE21__push_back_slow_pathIRKS2_EEvOT_
Z5c:_UNITY_tt_slot_init
aWb:__ZZ23InitPlayerLoopCallbacksvEN41PostLateUpdateUpdateResolutionRegistrator7ForwardEv
H4f:_KeyCollection_GetEnumerator_m1168803204_gshared
QDb:__Z25scripting_array_class_get17ScriptingClassPtrj
aOc:__ZL22Transfer_ManagedObjectI9JSONWriteLb1EEvRK29SerializationCommandArgumentsR31RuntimeSerializationCommandInfo
gS:__ZNK10SampleClip22GetTypeVirtualInternalEv
iib:__ZN9GfxDevice20DestroyRenderSurfaceER12ObjectHandleI17RenderSurface_TagP17RenderSurfaceBaseE
BYg:_Stack__ctor_m2602729586
ldi:__Z77RuntimeInvoker_Byte_t1134296376_RuntimeObject_Int32_t2950945753_RuntimeObjectPFvvEPK10MethodInfoPvPS4_
m9d:__ZL81Convert_t2465617642_CustomAttributesCacheGenerator_Convert_ToDateTime_m1031474510P21CustomAttributesCache
rGg:_Int32_System_IConvertible_ToInt32_m265310525_AdjustorThunk
gqg:_Array_slow_swapper_m4116724811
j7b:__ZN12_GLOBAL__N_15qAsinEff
qWe:_Display__ctor_m3105658851
lXg:_HashValues_get_IsSynchronized_m3461082747
sSf:_InternalEnumerator_1_System_Collections_IEnumerator_get_Current_m2629988057_AdjustorThunk
Qua:__ZN12TLSAllocatorI14StackAllocatorE13ThreadCleanupEv
JZa:__ZN14SafeBinaryRead21TransferSTLStyleArrayI13dynamic_arrayI8Vector4fLj0EEEEvRT_17TransferMetaFlags
PN:__Z18GetAudioManagerPtrv
XSf:_InternalEnumerator_1_Dispose_m2043273260_AdjustorThunk
Tck:__ZThn4_N6il2cpp2vm13ComObjectBase16MarshalInterfaceEP13Il2CppIStreamRK10Il2CppGuidPvjS7_j
R$g:_Convert_ToDouble_m996590115
Hdc:__Z27FindActiveTransformWithPathPKc
x0h:_ReadOnlyCollection_1_System_Collections_IList_Remove_m4169110229_gshared
jth:_UInt16_ToString_m3020002356
_ff:_LayoutRebuilder_LayoutComplete_m68578143
mAj:_RequiredByNativeCodeAttribute__ctor_m119855101
Bxa:__ZN12BaseRendererD0Ev
mcc:__Z29StdTemplateConversionFunctionIbyEbPvR14SafeBinaryRead
i8i:_RijndaelManaged_GenerateKey_m1736287430
Ogj:_GUIStyle_get_fixedWidth_m2576616348
iye:__ZL90PointerEventData_t3807901092_CustomAttributesCacheGenerator_U3ClastPressU3Ek__BackingFieldP21CustomAttributesCache
aYg:_SortedList_Find_m3363512987
z0b:__ZNK6Camera7GetNearEv
eMf:_GenericTypeParameterBuilder_GetConstructorImpl_m863833310
U3f:_Enumerator_get_Current_m3687673883_AdjustorThunk
wcd:__ZN2UI13CanvasManager8SortListEv
NQb:__ZN7ApiGLES11UnmapBufferEjN2gl12BufferTargetE
idk:__ZN6il2cpp5utilsL24Utf32CharToSurrogatePairEjRA2_Ds
CRa:__Z25GetNextAllowedTextureSizeib13TextureFormat
HGb:__ZN20LocalFileSystemWebGL4CopyER13FileEntryDataS1_
v$:__ZN19CloudServiceHandler6RetainEv
olk:__ZN6il2cpp2os9Semaphore4WaitEb
RYh:_ReadOnlyCollection_1_System_Collections_IList_IndexOf_m198887188_gshared
Uui:__Z71RuntimeInvoker_Vector2_t2156229523_Vector2_t2156229523_Rect_t2360479859PFvvEPK10MethodInfoPvPS4_
xIc:__Z36Event_CUSTOM_Internal_SetNativeEventPv
dmh:_UTF32Encoding_GetBytes_m3180303867
NWi:_List_1_CopyTo_m4034402519_gshared
C_h:_ReadOnlyCollection_1_System_Collections_IList_Clear_m2007013334_gshared
I8a:__Z34scripting_liveness_calculation_endPv
Vsg:_Char_GetDataTablePointers_m754571594
y9j:__ZN6il2cpp2os6ThreadC2Ev
UOf:_U3CGetEnumeratorU3Ec__Iterator0_System_Collections_Generic_IEnumeratorU3CTU3E_get_Current_m1566629109_gshared
Ovc:__ZN28ReflectionProbeAnchorManager7CleanupEv
_4g:_DateTimeOffset_get_UtcDateTime_m1021718282_AdjustorThunk
Mja:__ZN16memory_pool_implILi64EE15AutoPoolWrapper12UninitializeEPv
Rw:__ZN21AnimationClipPlayable22ProcessAnimationNoClipEPK35AnimationPlayableEvaluationConstantPK32AnimationPlayableEvaluationInputP33AnimationPlayableEvaluationOutput
Y9f:_HybridDictionary_get_Count_m1166314536
i4i:_TlsStream_Write_m1412844442
DPc:__Z18Transfer_BlittableI8JSONReadLb0E8Vector3fEvRK29SerializationCommandArgumentsR31RuntimeSerializationCommandInfo
iYj:__ZN6il2cpp2vm6Thread6DetachEP12Il2CppThread
L4i:_GeneralNames_get_DNSNames_m3788548987
xMi:_List_1_AddCollection_m2026039026_gshared
R8c:_Render_Single_Pass
Gtj:_Hacker_OnUserInput_m1095014035
jNe:_SerializationEntry_t648286436_marshal_pinvoke
Vka:__ZL56__ManagedRegistrationHelperFunction_TextureMixerPlayablePv
Du:__ZN7mecanim8skeleton30SkeletonBuildReverseIndexArrayEPiPKiPKNS0_8SkeletonES6_
UIc:__Z19GetGUIBlendMaterialv
BCf:_Math_Round_m3018379666
hli:__Z41RuntimeInvoker_Boolean_t97287965_IntPtr_tPFvvEPK10MethodInfoPvPS4_
oak:__ZN6il2cpp2os10ThreadImpl5SleepEjb
c6f:__ZN28GenericInterfaceFuncInvoker1IbbE6InvokeEPK10MethodInfoP12Il2CppObjectb
TYh:_ReadOnlyCollection_1_System_Collections_IList_Remove_m1965826685_gshared
pmd:__ZN22BaseUnityConnectClient12IsNewSessionEv
sue:__ZL82LayoutCache_t78309876_CustomAttributesCacheGenerator_LayoutCache__ctor_m3885940174P21CustomAttributesCache
Z6g:_Delegate_CreateDelegate_m1051651521
fch:_PlayableHandle_IsPlayableOfType_TisRuntimeObject_m503495943_AdjustorThunk
kxk:_glBindSampler__wrapper
iVb:__ZNSt3__26vectorIN20ArchiveStorageHeader12StorageBlockE13stl_allocatorIS2_L18MemLabelIdentifier55ELi16EEE8__appendEj
Gf:_emscripten_set_mouseup_callback
G_e:_Mathf_Clamp_m3350697880
$jb:__ZN9GfxDevice27SetRandomWriteTargetTextureEi9TextureID
dyh:_Dictionary_2_System_Collections_Generic_ICollectionU3CSystem_Collections_Generic_KeyValuePairU3CTKeyU2CTValueU3EU3E_Contains_m3033743418_gshared
xki:__Z165RuntimeInvoker_Void_t1185182177_UInt32U26_t3735378166_Int32_t2950945753_UInt32U26_t3735378166_Int32_t2950945753_Int32_t2950945753_Int32_t2950945753_Int32_t2950945753PFvvEPK10MethodInfoPvPS4_
aPg:_SHA384Managed_processWord_m3832940157
Rjh:_Encoding_get_DecoderFallback_m1525880676
o4d:__ZL59ITrackingHandler_t1244553475_CustomAttributesCacheGeneratorP21CustomAttributesCache
IQe:_DSASignatureDeformatter__ctor_m2759753186
vhg:_X509ChainElementCollection_System_Collections_IEnumerable_GetEnumerator_m3829089536
DUh:_Collection_1_System_Collections_IEnumerable_GetEnumerator_m801406918_gshared
AGb:__ZNK18ScreenManagerWebGL8GetWidthEv
EIj:__ZN6il2cpp2vm13MetadataCache33GetFieldDefaultValueDataFromIndexEi
Wph:_TimeSpan_get_TotalHours_m306507525_AdjustorThunk
dS:__ZN10SampleClipD2Ev
v8h:_InvokableCall_1_remove_Delegate_m790146436_gshared
j7h:_Predicate_1_Invoke_m2389850270_gshared
ZBf:_UnmanagedMemoryStream_get_CanSeek_m2636857629
a8a:__Z13GetGISettingsv
k0i:_Collection_1_RemoveAt_m1813368096_gshared
f$:__ZN11UnityEngine15CloudWebService20WebRequestRestClientC2Ev
y1c:_cff_cmap_unicode_init
jah:_Array_InternalArray__ICollection_Contains_TisRuntimeObject_m4067783231_gshared
ika:__ZL60__ManagedRegistrationHelperFunction_AssemblyIsEditorAssemblyPv
_9:__ZN14FileCacherRead13GetFileLengthEv
J9h:_UnityAction_1_EndInvoke_m542551745_gshared
FZi:_Collection_1_IsValidItem_m3080586124_gshared
OCd:_DropdownItem_set_text_m3702712387
Yzd:_ClipperRegistry_Register_m2407166513
sok:_readlink
IRj:__ZN15dense_hashtableINSt3__24pairIK10KeyWrapperINS1_IPK9EventInfoP11Il2CppClassEEEjEES9_17ReflectionMapHashIS8_EN14dense_hash_mapIS9_jSD_NS9_14EqualsComparerINS0_8equal_toIS8_EEEENS0_9allocatorISB_EEE9SelectKeyESI_SK_E12resize_deltaEjj
JKd:_MonoCMethod_Invoke_m2700167622
qXg:_KeyMarker__cctor_m2590194914
Akk:__ZN6il2cpp2os13SemaphoreImplC2Eii
mNg:_RIPEMD160Managed_F_m2051853483
V_a:__ZNK6Sprite9GetBoundsE8Vector2fbb
Qza:__ZNK19RenderEventsContext21CleanupCommandBuffersEv
bvj:_TextGenerator_PopulateWithErrors_m1222498386
E$h:_ReadOnlyCollection_1_System_Collections_Generic_ICollectionU3CTU3E_Clear_m2102011098_gshared
mOb:__ZN11ContextGLES6CreateEi
Lvj:_WillRenderCanvases_BeginInvoke_m1804779886
rri:__Z52RuntimeInvoker_Boolean_t97287965_Vector3_t3722313464PFvvEPK10MethodInfoPvPS4_
KPi:_List_1_set_Capacity_m3382070520_gshared
Ewi:__Z68RuntimeInvoker_Boolean_t97287965_RuntimeObject_ObjectU26_t2146539884PFvvEPK10MethodInfoPvPS4_
yef:_U3CMouseDragOutsideRectU3Ec__Iterator1_Dispose_m267465418
A6g:_Decimal_CompareTo_m3502307243_AdjustorThunk
QCb:__Z19TransferField_ArrayI18StreamedBinaryReadILb0EE27Converter_SimpleNativeClassI17AnimationCurveTplIfEEEvRK23StaticTransferFieldInfoR31RuntimeSerializationCommandInfoRT0_
iva:__ZN14StackAllocator16FrameMaintenanceEb
fUa:__Z18ReadStringFromFilePN4core17string_with_labelILi1EEERKNS_12basic_stringIcNS_20StringStorageDefaultIcEEEE
wOc:__ZN9JSONWrite8TransferI13dynamic_arrayIjLj0EEEEvRT_PKc17TransferMetaFlags
Iaa:__ZNK10GameObject20QueryComponentByTypeEPKN5Unity4TypeE
T5g:_Decimal_System_IConvertible_ToInt32_m1488426794_AdjustorThunk
bDf:_MonoCustomAttrs_IsUserCattrProvider_m2878058089
BBe:__ZL71InputField_t3762917431_CustomAttributesCacheGenerator_m_HideMobileInputP21CustomAttributesCache
lQa:__ZN11TextureData5ResetEv
Nnc:__Z53Register_UnityEngine_GameObject_get_activeInHierarchyv
fQg:_ToBase64Transform_InternalTransformFinalBlock_m360524956
rng:_ActivationContext_Dispose_m2038725770
hsb:__Z35Transfer_Blittable_FixedBufferFieldI17RemapPPtrTransferiEvRK29SerializationCommandArgumentsR31RuntimeSerializationCommandInfo
O5:__ZL30InitializeCoreScriptingClassesv
aGa:__ZN15SerializeTraitsI12fixed_bitsetILi28EjEE8TransferI18StreamedBinaryReadILb0EEEEvRS1_RT_
Dg:_glBlitFramebuffer
heb:__ZN17ArchiveFileSystem5TouchER13FileEntryData
O4f:_KeyCollection_System_Collections_Generic_IEnumerableU3CTKeyU3E_GetEnumerator_m818204647_gshared
csb:__Z35Transfer_Blittable_SingleValueFieldI14SafeBinaryReadhEvRT_R17GeneralMonoObjectRK23StaticTransferFieldInfo
Dkc:__ZN12CachedWriter15CompleteWritingEv
tQa:__ZNK12CubemapArray22GetTypeVirtualInternalEv
Kn:FUNCTION_TABLE_vif
Ln:FUNCTION_TABLE_vid
iJi:_Dictionary_2_Do_CopyTo_TisInt32_t2950945753_TisRuntimeObject_m213146570_gshared
Nn:FUNCTION_TABLE_vii
T8a:__Z40scripting_liveness_calculation_from_root18ScriptingObjectPtrPv
yAe:__ZL67OptionDataList_t1438173104_CustomAttributesCacheGenerator_m_OptionsP21CustomAttributesCache
C3d:__ZL65IContributeDynamicSink_t2255997386_CustomAttributesCacheGeneratorP21CustomAttributesCache
NKa:__ZN7Texture23VirtualRedirectTransferER24GenerateTypeTreeTransfer
JYc:_UNITY_FT_Set_Transform
$wc:__ZNK32RendererMaterialAnimationBinding12SetPPtrValueERKN11UnityEngine9Animation10BoundCurveEi
t5j:__ZN6il2cpp8metadata15GenericMetadata20RegisterGenericClassEP18Il2CppGenericClass
Pwk:_glDeleteFramebuffers__wrapper
CYi:_Collection_1_System_Collections_IList_get_IsFixedSize_m2620019318_gshared
Vgi:__Z220RuntimeInvoker_Boolean_t97287965_RuntimeObject_Int32U26_t1369213839_Int32_t2950945753_Int32_t2950945753_Int32_t2950945753_RuntimeObject_SByte_t1669577662_Int32_t2950945753_ContractionU26_t961830454_ContextU26_t3937453398PFvvEPK10MethodInfoPvPS4_
ale:__ZL73Rect_t2360479859_CustomAttributesCacheGenerator_Rect_get_zero_m4034156123P21CustomAttributesCache
eoc:__Z36Register_UnityEngine_RectOffset_Initv
dQh:_BitConverterLE_GetUIntBytes_m949779219
I$c:_cff_blend_build_vector
xdg:_WebHeaderCollection_ToString_m1263025316
eWf:_InternalEnumerator_1_MoveNext_m1015797184_gshared
pji:__Z91RuntimeInvoker_Void_t1185182177_RuntimeObject_RuntimeObject_RuntimeObject_Int32_t2950945753PFvvEPK10MethodInfoPvPS4_
RMd:_GetterAdapter_Invoke_m3767885970
LQi:_List_1__ctor_m747758800_gshared
x7i:_X509Extension_get_Oid_m4107042796
Onf:_SpriteState_set_pressedSprite_m3368686500_AdjustorThunk
sWg:_String_CreateString_m2818852475
bIh:_Enumerator_get_Current_m335492761_AdjustorThunk
mtd:_BaseRaycaster_get_renderOrderPriority_m1110184610
swj:_CanvasRenderer_get_hasMoved_m2236392341
N0e:_MessageEvent__ctor_m1231650089
Tab:__ZNK15Lz4Decompressor16DecompressMemoryEPKvPjPvS2_
KCf:_MemberAccessException__ctor_m3713703094
nza:__Z11IsCoroutine18ScriptingMethodPtrRK22CommonScriptingClasses
g0d:__ZL117GenericTypeParameterBuilder_t1988827940_CustomAttributesCacheGenerator_GenericTypeParameterBuilder_Equals_m3260957994P21CustomAttributesCache
okc:__ZN4core8hash_mapINS_12basic_stringIcNS_20StringStorageDefaultIcEEEE10vector_setI4PPtrI11SpriteAtlasENSt3__24lessIS8_EE13stl_allocatorIS8_L18MemLabelIdentifier81ELi16EEENS_4hashIS4_EENS9_8equal_toIS4_EEEixERKS4_
apj:__ZL24UnresolvedVirtualCall_47P12Il2CppObject20DateTime_t3738529785PK10MethodInfo
yNa:__Z35UnityPropertySheet_MakeSortedColorsRKNSt3__23mapIN9ShaderLab16FastPropertyNameE10ColorRGBAfNS_4lessIS2_EENS_9allocatorINS_4pairIKS2_S3_EEEEEER10vector_mapIS2_S3_S5_NS6_INS7_IS2_S3_EEEEE
An:FUNCTION_TABLE_iiiiiiffiiiiiiiiiffffiii
P3c:_UNITY_tt_face_load_os2
iih:_Array_InternalArray__ICollection_CopyTo_TisUICharInfo_t75501106_m4268526610_gshared
xrb:__Z29Transfer_Blittable_ArrayFieldI14SafeBinaryRead8Vector4fEvRT_R9ArrayInfoRK23StaticTransferFieldInfo
h8j:__GLOBAL__sub_I_BoehmGC_cpp
RG:__ZNK26AnimatorOverrideController22GetTypeVirtualInternalEv
QIf:_Default_check_arguments_m3882727959
Nkg:_PKCS12_Compare_m2975811353
fnh:_UTF8Encoding_GetMaxCharCount_m3762459613
XJf:_ModuleBuilder_RegisterToken_m4166846047
TVb:__ZZ23InitPlayerLoopCallbacksvEN51PostLateUpdateUpdateCustomRenderTexturesRegistrator7ForwardEv
hif:_RawImage_OnPopulateMesh_m1115858855
tii:__Z74RuntimeInvoker_MonoFileType_t221779374_IntPtr_t_MonoIOErrorU26_t1548853198PFvvEPK10MethodInfoPvPS4_
fJj:__ZN6il2cpp2vm13MetadataCache25GetStringLiteralFromIndexEi
Sng:_Hashtable_ToPrime_m33531354
ox:__ZN7mecanim9animation12EvaluateClipEPKNS0_4ClipEPKNS0_9ClipInputEPNS0_10ClipMemoryEPNS0_10ClipOutputE
jVh:_Collection_1_IsSynchronized_m1117613618_gshared
uV:__ZN11AudioModule6UpdateEv
z4f:_KeyCollection_System_Collections_Generic_ICollectionU3CTKeyU3E_Remove_m2555909644_gshared
$tj:_Keyboard_WarnIfTerminalNotConneced_m1063217717
u8j:__ZN15dense_hashtableINSt3__24pairIK10KeyWrapperIPcES3_EES4_N6il2cpp5utils15PassThroughHashIS3_EEN14dense_hash_mapIS4_S3_SA_NS4_14EqualsComparerINS0_8equal_toIS3_EEEENS0_9allocatorIS6_EEE9SelectKeyESF_SH_E5clearEv
osh:_TypeInitializationException__ctor_m3546444694
Vpc:__ZNK9Transform16GetLocalRotationEv
C3f:_Enumerator_System_Collections_IEnumerator_Reset_m4278714428_gshared
sWa:__ZN4PPtrI11LightProbesE8TransferI18StreamedBinaryReadILb0EEEEvRT_
h_:__ZN11UnityEngine15CloudWebService23WebRequestUploadHandler17ConsumeUploadDataEj
MKj:__ZNSt3__214__split_bufferI6pollfdRNS_9allocatorIS1_EEEC2EjjS4_
nRd:_CrossAppDomainData_get_DomainID_m3516796532
BLg:_MemoryStream_set_Position_m3169779190
l7b:__ZN13RenderManager29SetCurrentCameraAndStackStateEP6CameraP25CameraStackRenderingState
Sud:_ExecuteEvents_get_scrollHandler_m2659345019
Jva:__ZNSt3__26__treeINS_12__value_typeIjN4core12basic_stringIcNS2_20StringStorageDefaultIcEEEEEENS_19__map_value_compareIjS7_NS_4lessIjEELb1EEE13stl_allocatorIS7_L18MemLabelIdentifier7ELi16EEE7destroyEPNS_11__tree_nodeIS7_PvEE
l_j:__ZN15dense_hashtableINSt3__24pairIK10KeyWrapperINS1_IP11Il2CppClassjEEES4_EES6_N6il2cpp8metadata14ArrayClassHashEN14dense_hash_mapIS6_S4_SB_NS6_14EqualsComparerINSA_17ArrayClassCompareEEENS0_9allocatorIS8_EEE9SelectKeyESF_SH_E12resize_deltaEjj
Sh:_JS_WebRequest_Release
_le:__ZL85Time_t2420636075_CustomAttributesCacheGenerator_Time_t2420636075____time_PropertyInfoP21CustomAttributesCache
RY:__ZN11UnityEngine15CloudWebService14DataErrorEventD0Ev
x1j:__ZN6il2cpp6icalls8mscorlib6System4Type20internal_from_handleEi
Kee:__ZL72RequiredByNativeCodeAttribute_t4130846357_CustomAttributesCacheGeneratorP21CustomAttributesCache
iSd:_Context__ctor_m254302079
Ppa:__ZN9Scripting11UnityEngine12Experimental9Playables20TextureMixerPlayable9InitProxyEv
wSh:_KeyGeneratedEventHandler_EndInvoke_m3057317531
nTa:__ZN19ShaderPropertySheet16SetArrayPropertyEN9ShaderLab16FastPropertyNameENS_12PropertyTypeEPKvj
bkf:_Selectable_FindSelectable_m2348614027
fjh:_DecoderReplacementFallbackBuffer_GetNextChar_m2858228391
tBd:_FloatTween_get_duration_m1227071020
n6j:__ZN15dense_hashtableINSt3__24pairIK10KeyWrapperIP12Il2CppObjectEN6il2cpp2gc9CachedCCWEEES5_NS7_5utils11PointerHashIS3_EEN14dense_hash_mapIS5_S9_SD_NS5_14EqualsComparerINS0_8equal_toIS4_EEEENS0_9allocatorISA_EEE9SelectKeyESI_SK_E16reset_thresholdsEv
vDd:_DropdownItem_OnPointerEnter_m1492957598
kbd:__ZN2UI11CanvasGroup23VirtualRedirectTransferER19StreamedBinaryWriteILb0EE
fNd:_ParameterInfo_get_ParameterType_m4197803362
Shi:__Z91RuntimeInvoker_Void_t1185182177_Int32U26_t1369213839_Int32U26_t1369213839_Int32_t2950945753PFvvEPK10MethodInfoPvPS4_
Tqa:__ZN9Scripting11UnityEngine9BoundsInt9InitProxyEv
dAj:_StaticAccessorAttribute_set_Type_m2333258271
A2d:__ZL91SafeHandle_t3273388951_CustomAttributesCacheGenerator_SafeHandle_DangerousAddRef_m614714386P21CustomAttributesCache
Bkd:__ZN11UnityEngine15PlatformWrapper16GetApplicationIdEv
e6c:_UNITY_TT_Get_VMetrics
ehg:_X509Chain__cctor_m993507223
tqi:__Z69RuntimeInvoker_Color_t2555686324_Color_t2555686324_Single_t1397266774PFvvEPK10MethodInfoPvPS4_
LCh:_EqualityComparer_1__ctor_m2283513024_gshared
Qvg:_SimpleEnumerator__cctor_m2844299657
lCf:_LocalDataStoreSlot__ctor_m4104083971
bHi:_Array_qsort_TisVector3_t3722313464_m4117329442_gshared
Q0h:_ReadOnlyCollection_1_System_Collections_Generic_IListU3CTU3E_RemoveAt_m3849058645_gshared
Hmj:_AudioSource_ReadExtensionName_m725112169
L6i:_X509CertificateEnumerator_System_Collections_IEnumerator_Reset_m2039524926
Hni:__Z128RuntimeInvoker_Void_t1185182177_RuntimeObject_BooleanU26_t4125257963_SByte_t1669577662_Int32U26_t1369213839_Int32U26_t1369213839PFvvEPK10MethodInfoPvPS4_
kLa:__ZN7Texture21GetMasterTextureLimitEv
c8f:_Enumerator_Dispose_m3503748991_AdjustorThunk
S1a:__ZN13dynamic_arrayI9InputAxisLj0EE18resize_initializedEj12ResizePolicy
d9b:__Z12CanAddScriptR10GameObject17ScriptingClassPtrPS1_S2_
HUj:__ZN6il2cpp2vm10Reflection12HasAttributeEP12Il2CppObjectP11Il2CppClass
Fti:__Z103RuntimeInvoker_Boolean_t97287965_RuntimeObject_Vector2_t2156229523_RuntimeObject_Vector3U26_t3464235976PFvvEPK10MethodInfoPvPS4_
U3h:_Comparison_1_BeginInvoke_m3263247262_gshared
I4:__ZN9ShaderLabL25StaticInitializeShaderLabEPv
U:Math_max
kEe:__ZL64HorizontalLayoutGroup_t2586782146_CustomAttributesCacheGeneratorP21CustomAttributesCache
Tpj:__ZL24UnresolvedVirtualCall_92P12Il2CppObjectPK10MethodInfo
zWj:_il2cpp_class_get_methods
QSc:__GLOBAL__sub_I_artifacts_WebGL_codegenerator_0_cpp_3495
iub:__Z18Transfer_BlittableI24GenerateTypeTreeTransferLb0EN4math12int2_storageEEvRK29SerializationCommandArgumentsR31RuntimeSerializationCommandInfo
D7g:_StackTrace_get_trace_m1194606084
TTg:_Single_CompareTo_m2785801815_AdjustorThunk
G9j:__ZN6il2cpp2os6Thread16GetCurrentThreadEv
Yld:__ZN11UnityEngine7Connect20RemoteConfigSettings10UnregisterEv
sFi:_Array_InternalArray__Insert_TisUILineInfo_t4195266810_m3191124053_gshared
dlc:__ZN10GameObject13ComponentPair15SetComponentPtrEPN5Unity9ComponentE
gvk:_glBlitFramebuffer__wrapper
Xze:__ZL75U3COnFinishSubmitU3Ec__Iterator0_t3413438900_CustomAttributesCacheGeneratorP21CustomAttributesCache
Pva:__ZN10TagManager8TransferI19StreamedBinaryWriteILb0EEEEvRT_
n8a:__ZN11PreloadData23VirtualRedirectTransferER18StreamedBinaryReadILb0EE
lYa:__ZN13sorted_vectorI4PPtrI11SpriteAtlasENSt3__24lessIS2_EE13stl_allocatorIS2_L18MemLabelIdentifier1ELi16EEE21sort_clear_duplicatesEv
e8d:__ZL58ManualResetEvent_t451242010_CustomAttributesCacheGeneratorP21CustomAttributesCache
KAe:__ZL60FontData_t746620069_CustomAttributesCacheGenerator_m_MinSizeP21CustomAttributesCache
ora:__ZN9Scripting11UnityEngine24AssemblyIsEditorAssembly12CleanupProxyEv
btg:_Char_System_IConvertible_ToDateTime_m3564102661
OOj:__ZN15dense_hashtableINSt3__24pairIK10KeyWrapperINS1_IPK9FieldInfoP11Il2CppClassEEEjEES9_17ReflectionMapHashIS8_EN14dense_hash_mapIS9_jSD_NS9_14EqualsComparerINS0_8equal_toIS8_EEEENS0_9allocatorISB_EEE9SelectKeyESI_SK_E16reset_thresholdsEv
MK:__ZN13RuntimeStaticINSt3__26vectorI12WebCamDeviceNS0_9allocatorIS2_EEEELb0EE13StaticDestroyEPv
KWa:__ZN6Sprite17MainThreadCleanupEv
pvk:_glBlendFuncSeparate__wrapper
vqe:__ZL116PlayerConnectionInternal_t3892293164_CustomAttributesCacheGenerator_PlayerConnectionInternal_SendMessage_m2378413408P21CustomAttributesCache
FP:__ZN10AudioMixer14UpdateMuteSoloEv
S8:__Z17GetMonoManagerPtrv
RAa:__ZN12BaseRenderer25FlattenSharedMaterialDataILb0EEEbRKS_R22PerThreadPageAllocatorR10RenderNode
fxa:__ZN9Transform35SetLocalPositionWithoutNotificationERKN4math7_float3Ey
qve:__ZL87GUIUtility_t1868551600_CustomAttributesCacheGenerator_U3CguiIsExitingU3Ek__BackingFieldP21CustomAttributesCache
oie:__ZL101MonoBehaviour_t3962482529_CustomAttributesCacheGenerator_MonoBehaviour_StartCoroutine_Auto_m594129169P21CustomAttributesCache
Ti:_JS_Eval_ClearTimeout
Vif:_Raycast2DCallback_Invoke_m1500574149
Kmb:__ZN7ApiGLES16SetPatchVerticesEi
rI:__ZZN26AnimatorOverrideController15InitializeClassEvEN30FunctorImpl_86kDidModifyMotion4CallEPviR11MessageData
Xcj:_CharacterClass_Compile_m3296067317
i9j:__ZN6il2cpp2gc16GarbageCollector16InvokeFinalizersEv
yxj:_OnOverrideControllerDirtyCallback_EndInvoke_m2432606376
qsg:_Byte_System_IConvertible_ToInt64_m285584218_AdjustorThunk
r4e:_Rect_get_size_m477575021_AdjustorThunk
WAj:__ZN6il2cpp2vm5Class20FromGenericParameterEPK22Il2CppGenericParameter
S$:__ZN19CloudServiceHandler11FlushEventsEv
wfa:__ZN15GlobalCallbacksC2Ev
_Ud:_MethodCall_System_Runtime_Remoting_Messaging_IInternalMessage_set_Uri_m1919576807
Dgh:_Array_InternalArray__ICollection_Add_TisLabelData_t360167391_m1648183135_gshared
c1f:_Comparer_1_System_Collections_IComparer_Compare_m2016223770_gshared
r_h:_ReadOnlyCollection_1_System_Collections_Generic_ICollectionU3CTU3E_Add_m1738170497_gshared
rFe:__ZL57BaseMeshEffect_t2440176439_CustomAttributesCacheGeneratorP21CustomAttributesCache
Emi:__Z74RuntimeInvoker_DateTime_t3738529785_DateTime_t3738529785_Int32_t2950945753PFvvEPK10MethodInfoPvPS4_
v_c:_UNITY_FT_New_Memory_Face
B0i:_Collection_1_System_Collections_IList_IndexOf_m3271188411_gshared
sVd:__ZL52IComparable_t36111218_CustomAttributesCacheGeneratorP21CustomAttributesCache
mLg:_MonoIO_GetFileStat_m678141354
e2c:_UNITY_FT_Load_Sfnt_Table
_Bd:__Z15CastclassSealedP12Il2CppObjectP11Il2CppClass
upc:__ZN15ApplicationInfo14GetSandboxTypeEv
jsb:__Z18Transfer_BlittableI17RemapPPtrTransferLb1EhEvRK29SerializationCommandArgumentsR31RuntimeSerializationCommandInfo
p6g:_Decimal_IsZero_m4250358244_AdjustorThunk
YBf:_UnmanagedMemoryStream_get_CanRead_m3770815400
T7b:__ZN16ReflectionProbes40UpdateRealtimeReflectionProbesTimeslicedEv
_Wa:__ZN14SafeBinaryRead21TransferSTLStyleArrayI13dynamic_arrayI8Vector2fLj0EEEEvRT_17TransferMetaFlags
pmj:__ZN23InterfaceActionInvoker1IP24SingleU5BU5D_t1444911251E6InvokeEjP11Il2CppClassP12Il2CppObjectS1_
b4j:__ZNSt3__26__treeINS_12__value_typeIP24Il2CppReflectionAssemblyPvEENS_19__map_value_compareIS3_S5_NS_4lessIS3_EELb1EEENS_9allocatorIS5_EEE16__insert_node_atEPNS_16__tree_node_baseIS4_EERSF_SF_
CZg:_Decimal_u64_m3374804932
Hsh:_UInt16_System_IConvertible_ToInt32_m1950778303_AdjustorThunk
S3a:__ZNK30RuntimeInitializeOnLoadManager22GetTypeVirtualInternalEv
bGj:__ZN15dense_hashtableINSt3__24pairIK10KeyWrapperIN6il2cpp5utils13dynamic_arrayIPK10Il2CppTypeLj4EEEEPFvvEEESA_NS3_8metadata19Il2CppSignatureHashEN14dense_hash_mapISA_SD_SG_NSA_14EqualsComparerINSF_22Il2CppSignatureCompareEEENS0_9allocatorISE_EEE9SelectKeyESK_SM_E12resize_deltaEjj
vwc:__ZN16ReflectionProbes15InitializeClassEv
$Y:__ZN13dynamic_arrayIN11UnityEngine15CloudWebService14DataErrorEvent15FileErrorDetailELj0EE18resize_initializedEj12ResizePolicy
nXd:__ZL71Enum_t4135868527_CustomAttributesCacheGenerator_Enum_Format_m2588135982P21CustomAttributesCache
tHj:__ZNK15dense_hashtableINSt3__24pairIK10KeyWrapperIPK11Il2CppClassEPKcEES6_N6il2cpp5utils11PointerHashIS3_EEN14dense_hash_mapIS6_S9_SE_NS6_14EqualsComparerINS0_8equal_toIS5_EEEENS0_9allocatorISA_EEE9SelectKeyESJ_SL_E12test_deletedEj
z_h:_ReadOnlyCollection_1_System_Collections_ICollection_CopyTo_m2527663815_gshared
Y2j:__ZN6il2cpp2vm5Image9GetCorlibEv
naf:_Vector3_get_left_m2428419009
h7j:__ZN6il2cpp2vm11MethodStack17GetStackFramesRawEv
H1d:__ZL50Pointer_t2088917139_CustomAttributesCacheGeneratorP21CustomAttributesCache
cgk:_GC_reclaim_uninit
g7a:__ZN16LightmapSettings11UnshareDataEv
Fud:_ExecuteEvents_Execute_m113814934
Sba:__ZN13RuntimeStaticINSt3__23mapIN4core12basic_stringIcNS2_20StringStorageDefaultIcEEEES6_NS0_4lessIS6_EE13stl_allocatorINS0_4pairIKS6_S6_EEL18MemLabelIdentifier13ELi16EEEELb0EE13StaticDestroyEPv
zVe:_Coroutine_ReleaseCoroutine_m947702340
j1f:_Enumerator_System_Collections_IEnumerator_get_Current_m2979767597_AdjustorThunk
r9h:__ZN30GenericInterfaceActionInvoker1I17Color_t2555686324E6InvokeEPK10MethodInfoP12Il2CppObjectS0_
eSe:_MD5CryptoServiceProvider_ProcessFinalBlock_m2241588515
llf:_ScrollRect_GetBounds_m449872505
Rj:_glIsVertexArray
Emg:_SmallXmlParser_Read_m3485223434
GFg:_Int16_Parse_m2276856944
iWf:_InternalEnumerator_1__ctor_m3443175323_AdjustorThunk
Zad:__ZL42__ManagedRegistrationHelperFunction_CanvasPv
cta:__ZN5Unity9Component8TransferI18StreamedBinaryReadILb0EEEEvRT_
k1d:__ZL131CustomAttributeData_t1084486650_CustomAttributesCacheGenerator_CustomAttributeData_t1084486650____ConstructorArguments_PropertyInfoP21CustomAttributesCache
ea:invoke_fff
hok:_mbsinit
_tk:b14
sjg:_RepeatContext_get_Expression_m255006542
$Dc:__Z34RenderTexture_Get_Custom_PropWidthP12Il2CppObject
Qbd:__ZN2UI6Canvas17MainThreadCleanupEv
gja:__ZN6prcoreL12RemapGenericI17TexFormatARGB155517TexFormatRGBA8888EEvPKNS_9InnerInfoE
PCj:__ZN13Il2CppHashMapIPK19Il2CppGenericMethodPK26Il2CppGenericMethodIndicesN6il2cpp8metadata23Il2CppGenericMethodHashENS7_26Il2CppGenericMethodCompareENSt3__29allocatorINSA_4pairIK10KeyWrapperIS2_ES5_EEEEEC2EjRKS8_RKS9_
LId:_TypeBuilder_HasElementTypeImpl_m1871001960
YSg:_SecurityFrame__ctor_m2140076703_AdjustorThunk
BHi:_Array_Resize_TisVector2_t2156229523_m3382835435_gshared
nBh:_DefaultComparer_Equals_m2458578172_gshared
dnb:__ZN7ApiGLES13CreateProgramEv
aIa:__ZN11HaloManager7AddHaloEv
K1f:_Enumerator_VerifyState_m4003066746_gshared
ORa:__ZN4crnd12crn_unpackerD2Ev
aL:__ZN9Scripting11UnityEngine12Experimental5Audio19AudioSampleProvider9InitProxyEv
fk:_emscripten_glTexImage2D
Y$f:_Comparer_1_System_Collections_IComparer_Compare_m2537217645_gshared
QCa:__ZN16MeshVertexFormat20GetVertexDeclarationER9GfxDevice16VertexInputMasksPKS_
D5:__ZN18ScriptingArguments9AddStringEPKc
wgk:_setup_header
Vtg:_Char_ToString_m3588025615
sch:_SetPropertyUtility_SetStruct_TisAspectMode_t3417192999_m1565063249_gshared
j_i:_Collection_1_get_Count_m2853642267_gshared
M_h:_ReadOnlyCollection_1_System_Collections_IList_get_IsReadOnly_m375760151_gshared
t4d:__ZL53IEnvoyInfo_t2180778907_CustomAttributesCacheGeneratorP21CustomAttributesCache
CQh:_CryptoConvert_ToCapiKeyBlob_m3371450375
fPa:__ZL23stbir__resize_arbitraryPvPKviiiS_iiiffffPfiij14stbir_datatype12stbir_filterS4_10stbir_edgeS5_16stbir_colorspace
Cub:__Z18Transfer_BlittableI24GenerateTypeTreeTransferLb1E8Vector4fEvRK29SerializationCommandArgumentsR31RuntimeSerializationCommandInfo
cuk:b18
qk:_pthread_detach
hKj:__ZN6il2cpp2vm19SocketPollingThread7RunLoopEv
bEd:_FontUpdateTracker_UntrackText_m1981515690
TRi:_List_1_System_Collections_ICollection_get_SyncRoot_m1937857346_gshared
DFe:__ZL64AnalyticsEventTracker_t2285229262_CustomAttributesCacheGeneratorP21CustomAttributesCache
Izc:__ZN15DirectorManager20ScheduleGraphDestroyERK14HPlayableGraph
FDb:__ZNSt3__213__stable_sortIRN10vector_mapI17ScriptingClassPtrPKN5Unity4TypeENS_4lessIS2_EENS_9allocatorINS_4pairIS2_S6_EEEEE13value_compareENS_11__wrap_iterIPSB_EEEEvT0_SJ_T_NS_15iterator_traitsISJ_E15difference_typeEPNSM_10value_typeEi
jNh:_SimpleCollator_FillSurrogateSortKeyRaw_m725998232
XSi:_List_1_AddEnumerable_m1284696147_gshared
Kcg:_IPAddress_Equals_m1823478787
USd:_Context_CreateNewContext_m3053563976
lle:__ZL83RectOffset_t1369453676_CustomAttributesCacheGenerator_RectOffset_set_top_m713260669P21CustomAttributesCache
zhc:__ZN9ShaderLab25SerializedTextureProperty8TransferI24GenerateTypeTreeTransferEEvRT_
_Ii:_Array_swap_TisVector2_t2156229523_TisVector2_t2156229523_m345092822_gshared
CZi:_Collection_1_get_Item_m1773274637_gshared
zSj:__ZN6il2cpp2gc19AppendOnlyGCHashMapINSt3__24pairIPK14Il2CppAssemblyP11Il2CppClassEEP24Il2CppReflectionAssembly17ReflectionMapHashIS9_ENS2_8equal_toIS9_EEEC2Ev
w4c:_tt_cmap14_char_next
oxb:__Z18Transfer_BlittableI19StreamedBinaryWriteILb0EELb0EdEvRK29SerializationCommandArgumentsR31RuntimeSerializationCommandInfo
v0:__GLOBAL__sub_I_Runtime_Camera_RenderLoops_2_cpp
lua:__ZN11NamedObject8TransferI18StreamedBinaryReadILb0EEEEvRT_
uTb:__ZNK17GPUSkinPoseBuffer12GetBoneCountEv
cXe:_InvokableCall_remove_Delegate_m1376110510
lyg:_Hashtable_Clear_m3112193608
Pmh:_UTF8Encoding_InternalGetByteCount_m771565606
D2j:__ZNK15dense_hashtableINSt3__24pairIK10KeyWrapperIP14Il2CppIUnknownEjEES5_N6il2cpp5utils11PointerHashIS3_EEN14dense_hash_mapIS5_jSB_NS5_14EqualsComparerINS0_8equal_toIS4_EEEENS0_9allocatorIS7_EEE9SelectKeyESG_SI_E12test_deletedEj
BQc:__Z18Transfer_BlittableI8JSONReadLb1EyEvRK29SerializationCommandArgumentsR31RuntimeSerializationCommandInfo
eOi:_List_1_System_Collections_IList_Remove_m3654336679_gshared
Tpe:__ZL51GUILayer_t2783472903_CustomAttributesCacheGeneratorP21CustomAttributesCache
VZd:__ZL56IDictionary_2_t3177279192_CustomAttributesCacheGeneratorP21CustomAttributesCache
SCa:__ZN9GfxDevice20GetVertexDeclarationERK18VertexChannelsInfoNS_30VertexDeclarationMRUCacheIndexE
udh:_Array_InternalArray__IEnumerable_GetEnumerator_TisUInt64_t4134040092_m1382862496_gshared
Nk:_emscripten_glMatrixMode
uhf:_MaskableGraphic_UnityEngine_UI_IClippable_get_gameObject_m1739855597
gDg:_NumberFormatInfo_get_RawPercentGroupSizes_m97703232
Yu:__ZN8Animator23VirtualRedirectTransferER18StreamedBinaryReadILb0EE
tEg:_Guid__ctor_m3562600567_AdjustorThunk
i3g:_DateTime_System_IConvertible_ToInt16_m3239820399
jY:__ZN11UnityEngine15CloudWebService14DataDispatcher16PrepareDataBlockERNS0_16SessionContainerE
VTb:__ZN18GfxFramebufferGLES5ClearE13GfxClearFlagsRK10ColorRGBAffib
KOi:_List_1_Sort_m2163953164_gshared
dgh:_MonoProperty_StaticGetterAdapterFrame_TisRuntimeObject_m4131530968_gshared
eCb:__ZL26Transfer_SimpleNativeClassI18StreamedBinaryReadILb0EE10RectOffsetLb0EEvRK29SerializationCommandArgumentsR31RuntimeSerializationCommandInfo
fVf:_InternalEnumerator_1_get_Current_m2316281569_gshared
c_b:__ZL12DepthPassJobPN21GfxDeviceAsyncCommand10ArgScratchEPKNS_3ArgE
Sfc:__ZNSt3__26vectorIN9ShaderLab20SerializedSubProgram16TextureParameterENS_9allocatorIS3_EEE6assignINS_11__wrap_iterIPS3_EEEENS_9enable_ifIXaasr21__is_forward_iteratorIT_EE5valuesr16is_constructibleIS3_NS_15iterator_traitsISC_E9referenceEEE5valueEvE4typeESC_SC_
b0e:_MonoBehaviour_IsInvoking_m3285132449
P7f:_Transform_1_EndInvoke_m1701794896_gshared
SLc:__ZN5Unity9rapidjson6WriterI16TempBufferWriterNS0_4UTF8IcEES4_13JSONAllocatorE11WriteDoubleEd
vjd:__ZThn1172_N18UnityConnectClientD0Ev
voh:_Thread_SetCachedCurrentUICulture_m1729523031
olb:__ZN14GfxDeviceStats16CopyAllDrawStatsERKS_
kef:_InputField_get_minHeight_m2822964544
R6f:__ZN23GenericVirtFuncInvoker1I27DictionaryEntry_t3123975638iE6InvokeEPK10MethodInfoP12Il2CppObjecti
nvf:_ClientContext_set_ClientHelloProtocol_m4189379912
Om:FUNCTION_TABLE_iiiiiiiiiiii
ASi:_List_1_get_Item_m1686506901_gshared
A4f:_KeyCollection_System_Collections_Generic_IEnumerableU3CTKeyU3E_GetEnumerator_m1982109872_gshared
XEa:__ZN16GraphicsSettingsD0Ev
v2:__Z12FormatBufferPciPKcz
Old:__ZNSt3__26__treeINS_12__value_typeIN4core12basic_stringIcNS2_20StringStorageDefaultIcEEEE14CallbackArray3IRKS6_R8JSONReadbEEENS_19__map_value_compareIS6_SD_NS_4lessIS6_EELb1EEE13stl_allocatorISD_L18MemLabelIdentifier6ELi16EEE7destroyEPNS_11__tree_nodeISD_PvEE
n:cttz_i8
w$c:_UNITY_FT_GlyphLoader_Add
Xod:__ZN9Scripting11UnityEngine10Networking29UnityWebRequestAsyncOperation9InitProxyEv
bnj:_AudioListener_INTERNAL_CALL_ReadExtensionPropertyName_m330480156
JEe:__ZL78LayoutRebuilder_t541313304_CustomAttributesCacheGenerator_U3CU3Ef__mgU24cache0P21CustomAttributesCache
Epi:__Z53RuntimeInvoker_Interval_t1802865632_Int32_t2950945753PFvvEPK10MethodInfoPvPS4_
K1g:_Convert_ToUInt16_m867476252
Kl:_emscripten_glViewport
_ck:__ZN6il2cpp6icalls8mscorlib6System15MonoCustomAttrs17IsDefinedInternalEP12Il2CppObjectP20Il2CppReflectionType
pIh:_Enumerator__ctor_m40451936_AdjustorThunk
ori:__Z53RuntimeInvoker_Vector3_t3722313464_Single_t1397266774PFvvEPK10MethodInfoPvPS4_
Gxj:_SkeletonBone_t4134054672_marshal_pinvoke_back
K3d:__ZL115SynchronizationAttribute_t3946661254_CustomAttributesCacheGenerator_SynchronizationAttribute_IsContextOK_m324067792P21CustomAttributesCache
Pqa:__ZN9Scripting11UnityEngine10CacheIndex9InitProxyEv
eJf:_CustomAttributeData_get_Constructor_m489601093
T0c:_cff_parse_font_bbox
sMh:_MSCompatUnicodeTable_Category_m1834196420
fpc:__Z35Application_Get_Custom_PropIsEditorv
g2a:__ZN14PlayerSettings23VirtualRedirectTransferER18StreamedBinaryReadILb0EE
qgi:__Z85RuntimeInvoker_Void_t1185182177_Int32_t2950945753_Int32_t2950945753_Int32_t2950945753PFvvEPK10MethodInfoPvPS4_
q8g:_Double_CompareTo_m3151899116
Glk:__ZN6il2cpp2os5Event5ResetEv
g4c:_tt_name_ascii_from_other
Clj:_ToggleGroup__ctor_m3308114662
b5j:__ZN6il2cpp8metadata15GenericMetadata17InflateParametersEPK13ParameterInfohPK20Il2CppGenericContextb
WNg:_RSAParameters_t1728406613_marshal_pinvoke_back
pIi:_Array_Sort_TisUILineInfo_t4195266810_m3737783007_gshared
Mqc:__ZNK17AnimationCurveTplIfE8EvaluateEfPNS0_5CacheE
ly:__ZNK17AnimationPlayable27GetNextCompatibleDescendantEj
Ewf:_Context_get_LastHandshakeMsg_m2730646725
Mbe:__ZL59ResolveEventArgs_t1779456501_CustomAttributesCacheGeneratorP21CustomAttributesCache
w_c:__ZN13dynamic_arrayIN4core17string_with_labelILi35EEELj0EE6insertEPS2_jRKS2_
mua:__ZN4PPtrI6SpriteE8TransferI18StreamedBinaryReadILb0EEEEvRT_
kve:__ZL64GUIUtility_t1868551600_CustomAttributesCacheGenerator_s_SkinModeP21CustomAttributesCache
r4i:_TlsStream_Write_m188217214
c3c:_otv_LigatureSubst_validate
Aoj:__ZL24UnresolvedVirtualCall_19P12Il2CppObject25DSAParameters_t1885824122PK10MethodInfo
nHb:__Z25SetNeedToPerformRenderingb
bqk:__ZN10__cxxabiv116__shim_type_infoD2Ev
qEc:__Z45MonoBehaviour_CUSTOM_Internal_CancelInvokeAllP12Il2CppObject
Tbj:_Alternation__ctor_m1629257642
khd:__ZN8JSONRead12TransferPairINSt3__24pairIN4core12basic_stringIcNS3_20StringStorageDefaultIcEEEEN11UnityEngine9Analytics16LimitEventConfigEEEEEvRT_17TransferMetaFlagsPKN5Unity9rapidjson12GenericValueINSG_4UTF8IcEE13JSONAllocatorEE
pwa:__ZN10GameObjectD2Ev
q_b:__ZN14qsort_internal30FindAndMovePivotToLastPositionIP15RODataDepthPassi17ROSorterDepthPassEEvT_S4_T0_T1_
MCf:_MethodAccessException__ctor_m3411913042
$Dh:_EqualityComparer_1__ctor_m1767308726_gshared
R6b:__ZN12CullingGroup10SendEventsEPK17CullingGroupEventj
OKj:__ZNSt3__214__split_bufferI6pollfdRNS_9allocatorIS1_EEED2Ev
kDg:_NumberFormatInfo_get_PerMilleSymbol_m1360140831
etf:_EncryptedData_get_EncryptionAlgorithm_m905084934
ddh:_Array_InternalArray__IEnumerable_GetEnumerator_TisCustomAttributeTypedArgument_t2723150157_m1333528454_gshared
fwd:_PointerInputModule__ctor_m3728889932
PUa:__ZThn32_NK8Renderer8GetLayerEv
OIh:_Enumerator_System_Collections_IEnumerator_Reset_m2915500989_gshared
Y0c:_cff_parse_vsindex
y3j:__ZN30dense_hashtable_const_iteratorINSt3__24pairIK10KeyWrapperINS1_IPKcS4_EEEiEES6_24NamespaceAndNamePairHashN14dense_hash_mapIS6_iS9_NS6_14EqualsComparerI26NamespaceAndNamePairEqualsEENS0_9allocatorIS8_EEE9SelectKeyESD_SF_E30advance_past_empty_and_deletedEv
RFg:_Int32_ValidDigit_m1059003769
zzk:_emscripten_glTexParameterfv__wrapper
x5e:_RectTransform_INTERNAL_get_sizeDelta_m2173368204
ece:__ZL54MemberFilter_t426314064_CustomAttributesCacheGeneratorP21CustomAttributesCache
iff:_LayoutGroup_get_rectTransform_m442863741
Kob:__Z18Transfer_BlittableI14SafeBinaryReadLb1E9BoundsIntEvRK29SerializationCommandArgumentsR31RuntimeSerializationCommandInfo
ftc:__ZN2UI13RectTransform17GetLocalPositionZEv
Hwk:b63
qXj:_il2cpp_method_get_param_count
uba:__ZNK5Unity4Type21FindAllDerivedClassesER13dynamic_arrayIPKS0_Lj0EENS0_17TypeFilterOptionsE
Apc:__ZN10systeminfo19ISOToSystemLanguageERN4core12basic_stringIcNS0_20StringStorageDefaultIcEEEE
sRj:__ZNK15dense_hashtableINSt3__24pairIK10KeyWrapperINS1_IPK12PropertyInfoP11Il2CppClassEEEjEES9_17ReflectionMapHashIS8_EN14dense_hash_mapIS9_jSD_NS9_14EqualsComparerINS0_8equal_toIS8_EEEENS0_9allocatorISB_EEE9SelectKeyESI_SK_E3endEv
T3h:__ZN28GenericInterfaceFuncInvoker2Ii39CustomAttributeNamedArgument_t287865710S0_E6InvokeEPK10MethodInfoP12Il2CppObjectS0_S0_
kKi:_LayoutGroup_SetProperty_TisAxis_t3613393006_m3591044743_gshared
kvh:_UnauthorizedAccessException__ctor_m40101894
DXd:__ZL69RuntimeArray_CustomAttributesCacheGenerator_Array_SetValue_m282347242P21CustomAttributesCache
iod:__ZN22BaseUnityConnectClient14AppRunningTickEj
c8c:_ps_dimension_done
G9c:__Z46Register_UnityEngine_TextGenerator_Dispose_cppv
tji:__Z67RuntimeInvoker_GCHandle_t3351438187_RuntimeObject_Int32_t2950945753PFvvEPK10MethodInfoPvPS4_
u8g:_Double_Parse_m4153729520
ubi:_IndexedSet_1_AddUnique_m861843892_gshared
hde:__ZL59HybridDictionary_t4070033136_CustomAttributesCacheGeneratorP21CustomAttributesCache
OVa:__ZN16LightmapSettings8TransferI14SafeBinaryReadEEvRT_
hOb:__ZN17BufferManagerGLES13ReleaseBufferEP14DataBufferGLES
muf:_CipherSuite_Write_m1172814058
gBf:_SynchronizedWriter_Write_m301917713
j3:__ZN9profiling6MarkerC2EPKc13ProfilerGroupNS0_5FlagsE
B$f:__ZN21InterfaceFuncInvoker1Ii22UILineInfo_t4195266810E6InvokeEjP11Il2CppClassP12Il2CppObjectS0_
yQc:__Z18Transfer_BlittableI8JSONReadLb1EjEvRK29SerializationCommandArgumentsR31RuntimeSerializationCommandInfo
$Jf:_ConstructorBuilder_get_IsCompilerContext_m3364441562
dWe:_Debug_LogWarning_m3752629331
nsc:__Z13RegisterClassIN2UI13RectTransformEEvPKc
vqa:__ZN9Scripting11UnityEngine7Texture9InitProxyEv
a3h:_ReadOnlyCollection_1_System_Collections_Generic_IListU3CTU3E_RemoveAt_m4037795630_gshared
Pki:__Z117RuntimeInvoker_Void_t1185182177_RuntimeObject_Int32_t2950945753_Int32_t2950945753_Int32_t2950945753_Int32_t2950945753PFvvEPK10MethodInfoPvPS4_
$Ya:__ZNK13ScreenManager17GetFullscreenModeEv
fR:__Z30GetAudioSpatializerDefinitionsR13dynamic_arrayIP29AudioEffectInternalDefinitionLj0EE31UnityAudioEffectDefinitionFlags
ZBe:__ZL81U3CMouseDragOutsideRectU3Ec__Iterator1_t3909241878_CustomAttributesCacheGeneratorP21CustomAttributesCache
Syd:_U3COnFinishSubmitU3Ec__Iterator0_Reset_m3632769946
Zo:stackSave
J_:__ZN5Unity9rapidjson15GenericDocumentINS0_4UTF8IcEE13JSONAllocatorNS0_12CrtAllocatorEE6StringEPKcjb
VAd:_ColorTween_get_targetColor_m1724075482_AdjustorThunk
x8c:_ps_dimension_end
JFc:__Z41Register_UnityEngine_Mesh_Internal_Createv
Fgb:__ZN16MemoryFileSystem5TouchER13FileEntryData
$4j:__ZNK15dense_hashtableI10KeyWrapperIP18Il2CppGenericClassES3_N6il2cpp8metadata22Il2CppGenericClassHashEN14dense_hash_setIS3_S6_NS3_14EqualsComparerINS5_25Il2CppGenericClassCompareEEENSt3__29allocatorIS3_EEE8IdentityESA_SD_E12test_deletedERK30dense_hashtable_const_iteratorIS3_S3_S6_SF_SA_SD_E
pJh:_Enumerator_Dispose_m2498245804_AdjustorThunk
YYg:_Console_Open_m3077673205
S6i:_X509StoreManager_get_CurrentUser_m4040993045
y8b:__ZN6Camera9SetAspectEf
cfh:_Array_InternalArray__IndexOf_TisDateTime_t3738529785_m2463359116_gshared
va:invoke_viiffiii
ltj:_Display_Start_m3623905221
cUf:_InternalEnumerator_1_MoveNext_m4138204635_gshared
QAk:_emscripten_glBindVertexArray__wrapper
C7j:__ZN6il2cpp6icalls8mscorlib6System4Enum19get_underlying_typeEP20Il2CppReflectionType
Fdj:_Parser_IsECMAScript_m674158805
oL:__ZN10ObjectPoolIN4FMOD3DSPENS0_4DSPIEE7GetFreeEi
mxa:__ZN9Transform37InitializeTransformHierarchyRecursiveER18TransformHierarchyRii
onb:__ZN26SinglePassStereoSupportExt23SetupStereoMatrixParamsE21MonoOrStereoscopicEye24BuiltinShaderMatrixParamRK10Matrix4x4f
AHi:_Array_Resize_TisVector2_t2156229523_m1564542050_gshared
Xjb:__ZN9GfxDevice23CreateAsyncReadbackDataEv
jpd:__ZNK25UnityWebRequestJavaScript16GetUploadedBytesEv
cU:__Z46AudioListener_CUSTOM_GetNumExtensionPropertiesP12Il2CppObject
LLj:__ZN6il2cpp6icalls8mscorlib6SystemL16CheckMemberMatchI9FieldInfoNS_5utils10functional6FilterINSt3__212basic_stringIcNS8_11char_traitsIcEENS8_9allocatorIcEEEENS5_13VmStringUtils23CaseInsensitiveComparerEEEEEbPKT_PK11Il2CppClassSN_iRKT0_
c6:__Z14GetMonoManagerv
pfh:_Array_InternalArray__IndexOf_TisMonoResource_t4103430009_m1351751258_gshared
dw:__ZN17AnimationPlayable34CollectAnimatorControllerPlayablesER13dynamic_arrayIP26AnimatorControllerPlayableLj0EE
Kzg:_FieldAccessException__ctor_m3583219052
O5g:_Decimal_System_IConvertible_ToDouble_m3125524987
uqc:__Z57Register_UnityEngine_Transform_INTERNAL_set_localPositionv
kre:__ZL105RectTransform_t3704657025_CustomAttributesCacheGenerator_RectTransform_INTERNAL_get_anchorMax_m1239315619P21CustomAttributesCache
YMb:__ZN13GfxDeviceGLES26SetRandomWriteTargetBufferEi15ComputeBufferID
vgk:_GC_split_block
vHi:_Array_Resize_TisUICharInfo_t75501106_m3903846016_gshared
K$h:_ReadOnlyCollection_1_System_Collections_Generic_ICollectionU3CTU3E_get_IsReadOnly_m3887826072_gshared
jRj:__ZNK15dense_hashtableINSt3__24pairIK10KeyWrapperINS1_IPK12PropertyInfoP11Il2CppClassEEEjEES9_17ReflectionMapHashIS8_EN14dense_hash_mapIS9_jSD_NS9_14EqualsComparerINS0_8equal_toIS8_EEEENS0_9allocatorISB_EEE9SelectKeyESI_SK_E8min_sizeEjj
HVb:__ZZ23InitPlayerLoopCallbacksvEN49EarlyUpdateResetFrameStatsAfterPresentRegistrator7ForwardEv
Eok:_poll
M$h:_ReadOnlyCollection_1_System_Collections_IEnumerable_GetEnumerator_m1671097018_gshared
Xuh:_UInt64_ToString_m1529093114_AdjustorThunk
oJf:__ZN21InterfaceFuncInvoker1I39CustomAttributeNamedArgument_t287865710iE6InvokeEjP11Il2CppClassP12Il2CppObjecti
hQd:_TypeLibImportClassAttribute__ctor_m2302178978
TNh:_Escape_t3294788190_marshal_pinvoke
Edf:_InputField_OnUpdateSelected_m1118869681
a3j:__ZN6il2cpp2vmL36AddNestedTypesToNametoClassHashTableEP40Il2CppNameToTypeDefinitionIndexHashTablePKcRKNSt3__212basic_stringIcNS5_11char_traitsIcEENS5_9allocatorIcEEEEP11Il2CppClass
sNe:_SerializationException__ctor_m3131447373
XRa:__ZN4crnd12crn_unpacker11unpack_dxt1EPPhjjj
JTj:__ZN15dense_hashtableINSt3__24pairIK10KeyWrapperIPK10Il2CppTypeEjEES6_N6il2cpp8metadata14Il2CppTypeHashEN14dense_hash_mapIS6_jSB_NS6_14EqualsComparerINSA_26Il2CppTypeEqualityComparerEEENS0_9allocatorIS8_EEE9SelectKeyESF_SH_E14squash_deletedEv
HJ:__ZL55__ManagedRegistrationHelperFunction_CoordinateFramePairPv
ekc:__ZNK11ICallString6ToUTF8Ev
tCi:__Z39RuntimeInvoker_MonoResource_t4103430009PFvvEPK10MethodInfoPvPS4_
aBj:__ZN15dense_hashtableINSt3__24pairIK10KeyWrapperIPK22Il2CppGenericParameterEP11Il2CppClassEES6_N6il2cpp5utils11PointerHashIS4_EEN14dense_hash_mapIS6_S9_SE_NS6_14EqualsComparerINS0_8equal_toIS5_EEEENS0_9allocatorISA_EEE9SelectKeyESJ_SL_E15insert_noresizeERKSA_
s6f:_Transform_1_Invoke_m2468053724_gshared
Eji:__Z51RuntimeInvoker_Void_t1185182177_TimeSpan_t881159249PFvvEPK10MethodInfoPvPS4_
qX:__ZL60__ManagedRegistrationHelperFunction_ClothSkinningCoefficientPv
r_b:__ZNSt3__211__sift_downIR17ROSorterDepthPassP15RODataDepthPassEEvT0_S5_T_NS_15iterator_traitsIS5_E15difference_typeES5_
MMa:__ZN18UnityPropertySheet11UnityTexEnvC2Ev
nog:_ArgumentException__ctor_m3200406061
uD:__ZN8Animator17ApplyOnAnimatorIKEiRNS_11AnimatorJobE
gaa:__ZN12FileAccessor4ReadEyyPvPy
wrj:__ZL25UnresolvedVirtualCall_177P12Il2CppObject25RaycastResult_t3360306849PK10MethodInfo
lDb:__Z29Transfer_Blittable_ArrayFieldI18StreamedBinaryReadILb0EE11QuaternionfEvRT_R9ArrayInfoRK23StaticTransferFieldInfo
qUi:_List_1_set_Capacity_m2777925136_gshared
a8b:__ZN13RenderTexture9SetHeightEi
jqf:__ZN28GenericInterfaceFuncInvoker1IbiE6InvokeEPK10MethodInfoP12Il2CppObjecti
yw:__ZN7mecanim9animation17ClearMotionOutputEPNS0_18AnimationNodeStateE
Dhe:__ZL59LightmapBakeType_t1497855756_CustomAttributesCacheGeneratorP21CustomAttributesCache
_uf:_CipherSuiteCollection_get_IsFixedSize_m3127823890
OEa:__ZN16LevelGameManager8TransferI24GenerateTypeTreeTransferEEvRT_
y_f:_InternalEnumerator_1_System_Collections_IEnumerator_get_Current_m3537550566_gshared
sjf:_Scrollbar_UpdateVisuals_m2492252165
I5i:_PKCS12_get_Keys_m2165478388
D$j:__ZN6il2cpp6icalls8mscorlib6System2IO6MonoIO17GetFileAttributesEP12Il2CppStringPi
vRe:_HMACMD5__ctor_m3008609295
r5d:__ZL61X509KeyStorageFlags_t441861693_CustomAttributesCacheGeneratorP21CustomAttributesCache
v4g:_DateTime_ToString_m2992030064_AdjustorThunk
_4c:_tt_cmap8_char_index
a6:__Z24scripting_class_get_name17ScriptingClassPtr
Vdg:_Oid__ctor_m911618594
$lj:_VerticalLayoutGroup_CalculateLayoutInputHorizontal_m1404590745
oca:__ZN13RuntimeStaticI15GUIEventManagerLb0EE13StaticDestroyEPv
QDf:_ShortComparer_Compare_m1881262465
Aqb:__Z29Transfer_Blittable_ArrayFieldI14SafeBinaryReadjEvRT_R9ArrayInfoRK23StaticTransferFieldInfo
de:_emscripten_set_keydown_callback
wjh:_EncoderReplacementFallback__ctor_m1483565116
wjg:_Interpreter_IsWordChar_m2858055765
jyg:_Hashtable_CopyTo_m2905447224
qqa:__ZN9Scripting11UnityEngine29CustomRenderTextureUpdateZone12CleanupProxyEv
oaa:__ZN12FileAccessorC2Ev
_Ai:__Z96RuntimeInvoker_Void_t1185182177_BooleanU5BU5DU26_t3454195888_Int32_t2950945753_Int32_t2950945753PFvvEPK10MethodInfoPvPS4_
pqi:__Z73RuntimeInvoker_Void_t1185182177_Vector2U26_t2376273893_RayU26_t3515555043PFvvEPK10MethodInfoPvPS4_
ZDh:_EqualityComparer_1_System_Collections_IEqualityComparer_Equals_m3855544238_gshared
$Ua:__ZNK8Renderer29FlattenPerMaterialCustomPropsER22PerThreadPageAllocatorR10RenderNode
GA:__ZThn152_NK26AnimatorControllerPlayable25GetStateMachineBehavioursEv
kbi:_EventFunction_1_Invoke_m2429482587_gshared
FJj:_CertificateHandler_Dispose_m2100863831
nVd:__ZL51Attribute_t861562559_CustomAttributesCacheGeneratorP21CustomAttributesCache
_Mj:__ZN6il2cpp2vm7Runtime12GetConfigDirEv
_lj:_VerticalLayoutGroup__ctor_m321345421
bI:__ZN4PPtrI13MonoBehaviourE8TransferI18StreamedBinaryReadILb0EEEEvRT_
mIh:_Enumerator_MoveNext_m1177880931_AdjustorThunk
G6e:_SendMouseEvents_SetMouseMoved_m2822596724
Ote:__ZL82Event_t2956885303_CustomAttributesCacheGenerator_Event_get_commandName_m4275147343P21CustomAttributesCache
$uj:_TextGenerator_Populate_m194003733
YKf:_DerivedType_get_FullName_m1025358827
BPe:_CryptoConfig_MapNameToOID_m2044758263
mma:__ZL50__ManagedRegistrationHelperFunction_SetupCoroutinePv
zr:__ZN13ConstraintJob23ConstraintComponentDataC2ERKS0_
FBe:__ZL70InputField_t3762917431_CustomAttributesCacheGenerator_m_OnValueChangedP21CustomAttributesCache
QFb:__Z39WriteQueueForTransferSignatureIntoCacheRK31TransferFunctionScriptingTraitsRK24TransferRequestSignature17ScriptingClassPtrR23CachedSerializationDataRb
U6a:__ZN13RenderManager18UpdateAllRenderersEv
Ikh:_Encoding_get_UTF8UnmarkedUnsafe_m320312322
Eoh:_Thread_Thread_free_internal_m333849022
lNc:__Z35Transfer_Blittable_FixedBufferFieldI9JSONWritexEvRK29SerializationCommandArgumentsR31RuntimeSerializationCommandInfo
T8i:_CostDelegate_BeginInvoke_m2828452701
njd:__ZN22BaseUnityConnectClient30OnEnteringStatePausedOrStoppedEv
LTh:_Collection_1_ConvertItem_m1556170494_gshared
Mw:__ZN7mecanim5human12HumanPoseAddERNS0_9HumanPoseERKS1_S4_
E_g:_DateTime_ToUniversalTime_m1945318289
J7g:_DllNotFoundException__ctor_m1156705135
Pug:_ArrayList_ToArray_m3827492363
knf:_Slider_get_stepSize_m1423227661
Suh:_UInt64_Parse_m819899889
LPg:_SymmetricAlgorithm_set_IV_m3196220308
TMf:_GenericTypeParameterBuilder_GetHashCode_m852224381
a2g:_Convert_ToUInt32_m1453583008
QAg:_CompareInfo_Compare_m894311506
Vwa:__Z24MergeTransformComponentsR9TransformS0_b
uFj:__ZNK15dense_hashtableI10KeyWrapperIPK19Il2CppGenericMethodES4_N6il2cpp8metadata23Il2CppGenericMethodHashEN14dense_hash_setIS4_S7_NS4_14EqualsComparerINS6_26Il2CppGenericMethodCompareEEENSt3__29allocatorIS4_EEE8IdentityESB_SE_E10test_emptyEj
Qsd:_EventSystem_UpdateModules_m3643806022
f9j:__ZN6il2cpp2gc16GarbageCollector10StartWorldEv
fxj:_AnimationOffsetPlayable__cctor_m1029460816
A8h:_InvokableCall_1__ctor_m2610016537_gshared
IRg:_Evidence_get_SyncRoot_m2835084965
rch:_SetPropertyUtility_SetStruct_TisTouchScreenKeyboardType_t1530597702_m2455393348_gshared
lAh:_DefaultComparer__ctor_m2280347240_gshared
T5d:__ZL59ICryptoTransform_t2733259762_CustomAttributesCacheGeneratorP21CustomAttributesCache
Ick:__ZN6il2cpp2vm13ComObjectBase19GetRuntimeClassNameEPP15Il2CppHString__
oCb:__Z35Transfer_Blittable_FixedBufferFieldI18StreamedBinaryReadILb0EEyEvRK29SerializationCommandArgumentsR31RuntimeSerializationCommandInfo
SDa:__Z37GetBarycentricCoordinatesForOuterCellPPK8Vector3fRK13dynamic_arrayIS_Lj0EERS0_RK11TetrahedronR8Vector4f
Pj:_emscripten_glVertexAttribPointer
Bqk:__ZNSt11logic_errorD0Ev
DIb:__ZN14PreloadManager26UpdatePreloadingSingleStepENS_21UpdatePreloadingFlagsEi
Wbi:_TweenRunner_1__ctor_m340723704_gshared
_lf:_ScrollRect_SetLayoutHorizontal_m3078869633
XYg:_Console_OpenStandardInput_m3262421490
IMh:_SimpleCollator__ctor_m1587210019
prj:__ZL25UnresolvedVirtualCall_170P12Il2CppObject40CustomAttributeTypedArgument_t2723150157S1_PK10MethodInfo
cmc:__Z57Register_UnityEngine_RectTransform_INTERNAL_set_anchorMinv
T1g:_Convert_ToUInt16_m1480956416
Cja:__ZN6prcoreL25inner_stretch_i8_bilinearEPKNS_9InnerInfoE
A8a:__ZL30RegisterFilteredObjectCallbackPP12Il2CppObjectiPv
y2h:_ReadOnlyCollection_1_System_Collections_Generic_IListU3CTU3E_RemoveAt_m3317217538_gshared
qte:__ZL54AudioSource_t3935305588_CustomAttributesCacheGeneratorP21CustomAttributesCache
ZIb:__Z19InitializeGfxDevicev
GY:__ZN11UnityEngine15CloudWebService16SessionContainer24GetSessionHeaderJsonDataERKN4core12basic_stringIcNS2_20StringStorageDefaultIcEEEERNS2_13StringBuilderE
BKf:_DerivedType_GetEvent_m4157575360
Gba:__ZN13RuntimeStaticI21AssetReferenceStorageLb0EE13StaticDestroyEPv
QPb:__ZN7ApiGLES5ClearEjRK10ColorRGBAfbfi
Axg:_Comparer__ctor_m2831654082
Bje:__ZL54PhysicsUpdate_t81124440_CustomAttributesCacheGeneratorP21CustomAttributesCache
tXh:_Collection_1_ConvertItem_m618594517_gshared
uvi:__Z72RuntimeInvoker_Bounds_t2266837910_RuntimeObject_Matrix4x4U26_t3606180965PFvvEPK10MethodInfoPvPS4_
G5h:__ZN28GenericInterfaceFuncInvoker2IbiiE6InvokeEPK10MethodInfoP12Il2CppObjectii
p9j:__ZN6il2cpp6icalls8mscorlib6System9AppDomain22InternalGetProcessGuidEP12Il2CppString
Nu:__ZNK25RuntimeAnimatorController30GetAnimationClipOverrideVectorEv
oae:__ZL79Convert_t2465617642_CustomAttributesCacheGenerator_Convert_ToUInt32_m3188121845P21CustomAttributesCache
Eei:__Z48RuntimeInvoker_RuntimeObject_Decimal_t2948259380PFvvEPK10MethodInfoPvPS4_
Uoh:_ThreadStart_EndInvoke_m3768045394
st:__ZN9Scripting11UnityEngine10Animations16ConstraintSource9InitProxyEv
kEc:__Z34Quaternion_CUSTOM_Inverse_InjectedRK11QuaternionfRS_
SLj:__ZNSt3__214__split_bufferIP9FieldInfoRNS_9allocatorIS2_EEEC2EjjS5_
JNe:_StreamingContext__ctor_m2604757771_AdjustorThunk
Zub:__Z18Transfer_BlittableI24GenerateTypeTreeTransferLb1EjEvRK29SerializationCommandArgumentsR31RuntimeSerializationCommandInfo
PQj:__ZNK15dense_hashtableINSt3__24pairIK10KeyWrapperINS1_IPK11Il2CppImageP11Il2CppClassEEEjEES9_17ReflectionMapHashIS8_EN14dense_hash_mapIS9_jSD_NS9_14EqualsComparerINS0_8equal_toIS8_EEEENS0_9allocatorISB_EEE9SelectKeyESI_SK_E10test_emptyERK30dense_hashtable_const_iteratorISB_S9_SD_SM_SI_SK_E
_Aj:__ZN6il2cpp2os12FastAutoLockD2Ev
P0d:__ZL68AssemblyCopyrightAttribute_t836190902_CustomAttributesCacheGeneratorP21CustomAttributesCache
FGa:__ZN11ColorRGBA328TransferI14SafeBinaryReadEEvRT_
H_i:_Collection_1_Add_m1736908447_gshared
k1c:_cff_vstore_done
Spi:__Z68RuntimeInvoker_Void_t1185182177_UInt16_t2177724958_SByte_t1669577662PFvvEPK10MethodInfoPvPS4_
svh:__ZN25GenericVirtActionInvoker2IP12Il2CppObjectP39UnhandledExceptionEventArgs_t2886101344E6InvokeEPK10MethodInfoS1_S1_S3_
mSf:_InternalEnumerator_1_get_Current_m3008260692_AdjustorThunk
URe:_MACTripleDES_HashFinal_m3613553534
muh:_UInt64_System_IConvertible_ToChar_m2074245892
vr:__ZN4core8hash_setIPN5Unity9ComponentENS_4hashIS3_EENSt3__28equal_toIS3_EEE4growEi
Tmh:_UTF8Encoding_InternalGetBytes_m1965760031
If:_emscripten_glClearDepth
Xtc:__ZNK8GUILayer22GetTypeVirtualInternalEv
DTa:__ZN14SafeBinaryRead21TransferSTLStyleArrayINSt3__26vectorIN15QualitySettings14QualitySettingENS1_9allocatorIS4_EEEEEEvRT_17TransferMetaFlags
W8h:_UnityAction_1__ctor_m3007623985_gshared
h4f:_KeyCollection__ctor_m2388548663_gshared
$xi:__Z56RuntimeInvoker_Boolean_t97287965_ILTokenInfo_t2325775114PFvvEPK10MethodInfoPvPS4_
z3a:__ZNSt3__26vectorINS_4pairIPKN5Unity4TypeE7Hash128EENS_9allocatorIS7_EEE8__appendEj
Ur:__ZN4core8hash_setIPN5Unity9ComponentENS_4hashIS3_EENSt3__28equal_toIS3_EEE4growEv
lRc:__ZN8JSONRead21TransferSTLStyleArrayI13dynamic_arrayIaLj0EEEEvRT_17TransferMetaFlags
n1c:_cff_font_load
W9j:__GLOBAL__sub_I_LibraryLoader_cpp
qCc:__Z13IsPathCreatedRKN4core12basic_stringIcNS_20StringStorageDefaultIcEEEE
rAe:__ZL99Dropdown_t2274391225_CustomAttributesCacheGenerator_Dropdown_DelayedDestroyDropdownList_m2082128994P21CustomAttributesCache
fWe:_Debug_LogWarningFormat_m2535776735
lPa:__ZL22stbir__encode_scanlineP11stbir__infoiPvPfiii
Joj:__ZL24UnresolvedVirtualCall_28P12Il2CppObjectS0_iiPK10MethodInfo
tPd:_ExternalException__ctor_m2877839282
bWc:__ZN20QuadTreeNodeRenderer13StaticDestroyEPv
CZ:__ZN11UnityEngine15CloudWebService20WebRequestRestClient5AbortEv
mUh:_Collection_1_InsertItem_m954500348_gshared
Rbj:_Regex_Matches_m2080913806
ttc:__ZN9Transform12CleanupClassEv
GAe:__ZL57FontData_t746620069_CustomAttributesCacheGenerator_m_FontP21CustomAttributesCache
p_e:_Mathf_Sin_m3411839043
y_c:_UNITY_FT_Set_Pixel_Sizes
oHf:_OperatingSystem_Clone_m1122165140
BLi:_GameObject_AddComponent_TisRuntimeObject_m3469369570_gshared
UC:__ZN11UnityEngine9Animation33SetGenericTransformPropertyValuesERKNS0_30AnimatorGenericBindingConstantERKN7mecanim10ValueArrayEP9Transformy
W8d:__ZL59AttributeTargets_t1784037988_CustomAttributesCacheGeneratorP21CustomAttributesCache
Gke:__ZL61ThreadedLoadingDebug_t53594427_CustomAttributesCacheGeneratorP21CustomAttributesCache
hYj:__ZN6il2cpp2vmL24thread_cleanup_on_cancelEPv
yQi:_List_1_RemoveAll_m3165362277_gshared
nrh:_Type_type_is_subtype_of_m1406623598
qma:__ZL54__ManagedRegistrationHelperFunction_SpriteAtlasManagerPv
snh:_Thread_get_CurrentThread_m4142136012
eDa:__Z30ProcessDynamicBatchGeometryJobP25DynamicVBOGeometryJobDataj
U_b:__ZNSt3__27__sort4IRNS_6__lessI11CulledLightS2_EEPS2_EEjT0_S6_S6_S6_T_
SUj:__ZN6il2cpp2vm14TypeNameParser26ParseArrayModifierOptionalEv
u7:__Z26scripting_object_get_class18ScriptingObjectPtr
G_j:__ZN6il2cpp6icalls8mscorlib6System10Reflection8Assembly13get_code_baseEP24Il2CppReflectionAssemblyb
s4a:__ZNSt3__26vectorIN4core12basic_stringIcNS1_20StringStorageDefaultIcEEEE13stl_allocatorIS5_L18MemLabelIdentifier13ELi16EEE7reserveEj
JQe:_DSASignatureDeformatter__ctor_m2889130126
khg:_X509ChainElementCollection_Clear_m2271223414
Uuc:__ZNK28MonoBehaviourPropertyBinding15GenerateBindingERKN4core12basic_stringIcNS0_20StringStorageDefaultIcEEEEbRN11UnityEngine9Animation14GenericBindingE
D5e:_RectTransform_INTERNAL_set_pivot_m1160676233
pVi:_List_1_set_Item_m35836043_gshared
YCe:__ZL70ScrollRect_t4137855814_CustomAttributesCacheGenerator_m_OnValueChangedP21CustomAttributesCache
bhg:_X509ChainElementCollection__ctor_m3424079155
tFc:__Z58Register_UnityEngine_Camera_ScreenToViewportPoint_Injectedv
_8i:_LinkStack_Push_m3081279930
V2f:_Enumerator_MoveNext_m1107569389_gshared
TLj:__ZNSt3__26vectorIP9FieldInfoNS_9allocatorIS2_EEE26__swap_out_circular_bufferERNS_14__split_bufferIS2_RS4_EE
fbi:_UnityEvent_3_GetDelegate_m1156357290_gshared
Nak:__ZN6il2cpp6icalls8mscorlib6System11Environment15internalGetHomeEv
PVf:_InternalEnumerator_1__ctor_m4200721464_gshared
R_e:_Matrix4x4_GetHashCode_m4034747639_AdjustorThunk
wOd:_ResourceCacheItem_t51292791_marshal_pinvoke_cleanup
gsa:__ZNK5Unity9Component7GetNameEv
vMj:__ZNSt3__214__split_bufferIN6il2cpp6icalls8mscorlib6System12PropertyPairERNS_9allocatorIS5_EEEC2EjjS8_
Z8b:__Z23FindMonoScriptFromClass17ScriptingClassPtr
OPg:_SymmetricAlgorithm_get_KeySize_m4185004893
zOi:_List_1_GetEnumerator_m232588170_gshared
Nff:_U3CDelayedSetDirtyU3Ec__Iterator0_Reset_m160466733
Llb:__ZN21ScalableBufferManager23UnregisterRenderSurfaceEP17RenderSurfaceBaseb
pre:__ZL104RectTransform_t3704657025_CustomAttributesCacheGenerator_RectTransform_INTERNAL_set_sizeDelta_m188783163P21CustomAttributesCache
ITi:_List_1_System_Collections_IList_Remove_m1070694895_gshared
lgj:_LayoutCache__ctor_m3885940174
DYa:__ZN13ScreenManagerD0Ev
Zwj:_AnimationMotionXToDeltaPlayable_GetHandle_m1319190040_AdjustorThunk
mE:__ZN7mecanim8skeleton26SkeletonPoseComputeGlobalQEPKNS0_8SkeletonEPKNS0_13SkeletonPoseTIN4math4trsXEEEPS7_ii
luh:_UInt64_System_IConvertible_ToByte_m1501504925_AdjustorThunk
Nuj:_TextGenerator_Invalidate_m1072346986
Kxf:_TlsClientHello_ProcessAsTls1_m2549285167
FDi:__Z74RuntimeInvoker_Boolean_t97287965_UIVertex_t4057497605_UIVertex_t4057497605PFvvEPK10MethodInfoPvPS4_
t0h:_ReadOnlyCollection_1_System_Collections_IList_Clear_m3591436538_gshared
Hkf:_ScrollRect_set_decelerationRate_m723367336
OD:__ZN9BlobWrite8TransferI22OffsetPtrArrayTransferIiEEEvRT_PKc17TransferMetaFlags
ljh:_EncoderExceptionFallback_Equals_m2760188920
kYf:_InternalEnumerator_1__ctor_m43405049_AdjustorThunk
ltb:__Z18Transfer_BlittableI17RemapPPtrTransferLb1EjEvRK29SerializationCommandArgumentsR31RuntimeSerializationCommandInfo
XMg:_RIPEMD160Managed_HashCore_m2350629432
H6b:__ZNK15LODGroupManager17CalculateLODMasksERK13LODParametersfPhPf
tO:__ZN4FMOD6System7releaseEv
Ywb:__Z18Transfer_BlittableI19StreamedBinaryWriteILb0EELb1E8BitFieldEvRK29SerializationCommandArgumentsR31RuntimeSerializationCommandInfo
Jrg:_Boolean_CompareTo_m3665076258
RUg:_String_Split_m3580120853
YRh:_PrivateKeyInfo__ctor_m2811023496
L9:__Z18PathToAbsolutePathRKN4core12basic_stringIcNS_20StringStorageDefaultIcEEEE
EHd:_PropertyBuilder_GetCustomAttributes_m2917594003
hhj:_GUILayoutUtility_LayoutFromEditorWindow_m2914699782
_of:_BigInteger_SetBit_m1723423691
Dpa:__ZN9Scripting11UnityEngine12Experimental10PlayerLoop13PreLateUpdate9InitProxyEv
Mwi:__Z78RuntimeInvoker_RuntimeObject_ObjectU26_t2146539884_RuntimeObject_RuntimeObjectPFvvEPK10MethodInfoPvPS4_
uhd:__ZN21UnityAnalyticsManager15ThreadedCleanupEv
ROa:__ZL13BlitImageImplR14ImageReferenceiiRKS_NS_10ColorSpaceENS_8BlitModeEb
Ezc:__ZN15DirectorManager17AcquireOutputNodeEv
ZWa:__Z14resize_trimmedINSt3__26vectorI13dynamic_arrayI8Vector2fLj0EENS0_9allocatorIS4_EEEEEvRT_j
nGi:_Array_InternalArray__set_Item_TisColor32_t2600501292_m1891325855_gshared
nEb:__ZN10MonoScript23VirtualRedirectTransferER17RemapPPtrTransfer
ELi:_GameObject_GetComponentInChildren_TisRuntimeObject_m1310240902_gshared
R9f:_Locale_GetText_m2640320736
Fme:__ZL69PersistentCall_t3407714124_CustomAttributesCacheGenerator_m_ArgumentsP21CustomAttributesCache
NFa:__Z32TransferEnumWithNameForceIntSizeI14SafeBinaryReadN21BuiltinShaderSettings17BuiltinShaderModeEEvRT_RT0_PKc17TransferMetaFlags
Yxf:_TlsServerCertificateRequest_ProcessAsSsl3_m1084200341
gHa:__ZN16ReflectionProbes28GetMinBakedCubemapResolutionEv
ARg:_PermissionSet__ctor_m2328457660
X7f:_Enumerator__ctor_m1849900510_gshared
tck:__GLOBAL__sub_I_String_cpp
ZAj:__ZN15dense_hashtableINSt3__24pairIK10KeyWrapperIPK22Il2CppGenericParameterEP11Il2CppClassEES6_N6il2cpp5utils11PointerHashIS4_EEN14dense_hash_mapIS6_S9_SE_NS6_14EqualsComparerINS0_8equal_toIS5_EEEENS0_9allocatorISA_EEE9SelectKeyESJ_SL_E6insertERKSA_
Ndf:_InputField_GenerateCaret_m1459647218
wre:__ZL101SpriteAtlasManager_t3158462485_CustomAttributesCacheGenerator_SpriteAtlasManager_Register_m2413332465P21CustomAttributesCache
A5i:_X509CertificateEnumerator__ctor_m85694331
bOb:__ZN14DataBufferGLES16RecreateWithDataEjPKv
Esa:__Z29GetGlobalAllowNameConversionsv
pih:_Array_InternalArray__Insert_TisTableRange_t3332867892_m558285859_gshared
P9b:__ZN8Material8SetColorEN9ShaderLab16FastPropertyNameERK10ColorRGBAf
_xe:__ZL77ExecuteEvents_t3484638744_CustomAttributesCacheGenerator_U3CU3Ef__mgU24cacheFP21CustomAttributesCache
UJh:_Enumerator_System_Collections_IEnumerator_Reset_m3754523291_gshared
amd:__ZN11UnityEngine7Connect20RemoteConfigSettings19ConfigUpdatedStaticEPS1_bbi
f9d:__ZL77Convert_t2465617642_CustomAttributesCacheGenerator_Convert_ToByte_m2375887898P21CustomAttributesCache
oQ:__ZN11AudioSource23VirtualRedirectTransferER18StreamedBinaryReadILb0EE
B3e:_RangeInt_get_end_m4128831787
y8h:_InvokableCall_1_Find_m1741895083_gshared
Dxb:__ZN10RectOffset8TransferI19StreamedBinaryWriteILb0EEEEvRT_
Oti:__Z79RuntimeInvoker_Void_t1185182177_RuntimeObject_RuntimeObject_RectU26_t1284589061PFvvEPK10MethodInfoPvPS4_
Lnd:__Z25GetUnityConnectModuleSpecv
BSi:_List_1_set_Item_m2082115010_gshared
_jh:_Encoding_GetBytes_m3735967069
Lpg:_Array_Initialize_m3004991267
sRb:__ZN14GfxContextGLES43AddRenderSurfaceToDeferredFBOInvalidateListEPK17RenderSurfaceGLES
g$j:__ZN6il2cpp6icalls8mscorlib6System9Threading6Thread15Thread_internalEP12Il2CppThreadP14Il2CppDelegate
Eua:__ZN11NamedObject23VirtualRedirectTransferER14SafeBinaryRead
eof:_Text_get_resizeTextMinSize_m1002355407
m_c:__ZNSt3__26vectorIN20TextRenderingPrivate8FontImpl13CharacterInfoE13stl_allocatorIS3_L18MemLabelIdentifier1ELi16EEE6insertENS_11__wrap_iterIPKS3_EERS9_
A5a:__ZN23PreloadManagerOperation6IsDoneEv
xpg:_Array_CreateInstance_m1027597705
jNj:__ZN6il2cpp2vm7Runtime15InvokeWithThrowEPK10MethodInfoPvPS5_
XPj:__ZNK15dense_hashtableINSt3__24pairIK10KeyWrapperINS1_IPK10MethodInfoP11Il2CppClassEEEjEES9_17ReflectionMapHashIS8_EN14dense_hash_mapIS9_jSD_NS9_14EqualsComparerINS0_8equal_toIS8_EEEENS0_9allocatorISB_EEE9SelectKeyESI_SK_E8min_sizeEjj
Wbk:__ZN6il2cpp5utils11StringUtils11Utf16ToUtf8ERKNSt3__212basic_stringIDsNS2_11char_traitsIDsEENS2_9allocatorIDsEEEE
Erf:_MD4Managed_Decode_m4273685594
Sli:__Z50RuntimeInvoker_Int64_t3736567304_Int16_t2552820387PFvvEPK10MethodInfoPvPS4_
pAj:_UnityEngineModuleAssembly__ctor_m242195730
G7a:__ZN21LightProbeProxyVolume18HasHardwareSupportEv
e2b:__ZN26LightProbeProxyVolumeCacheC2ER13BatchRendererR15RenderLoopStats
gIg:_IntPtr__ctor_m620280096
Bja:__ZN6prcoreL31inner_stretch_argb8888_bilinearEPKNS_9InnerInfoE
czb:__Z18Transfer_BlittableI18StreamedBinaryReadILb1EELb1E8BitFieldEvRK29SerializationCommandArgumentsR31RuntimeSerializationCommandInfo
E5c:_UNITY_FT_Outline_Decompose
gHg:_Int64_System_IConvertible_ToChar_m1509243576_AdjustorThunk
ySb:__ZNK12GraphicsCaps24GetFallbackSampledFormatE14GraphicsFormat
M4i:_GeneralNames_get_IPAddresses_m4242915644
B$g:_Decimal_op_Implicit_m3873897383
ZHh:_Enumerator_Dispose_m3500272053_AdjustorThunk
Ngk:_GC_init_size_map
Tse:__ZL84AudioSampleProvider_t3950279772_CustomAttributesCacheGenerator_sampleFramesAvailableP21CustomAttributesCache
Hza:__Z20scripting_object_new17ScriptingClassPtr
ZXd:__ZL69RuntimeArray_CustomAttributesCacheGenerator_Array_Reverse_m3714848183P21CustomAttributesCache
Cra:__ZN9Scripting5Unity11Collections39NativeMatchesParallelForLengthAttribute12CleanupProxyEv
jSh:_KeyGeneratedEventHandler_Invoke_m2527485594
lHd:_Image_get_layoutPriority_m1290204116
ZOj:__ZN24dense_hashtable_iteratorINSt3__24pairIK10KeyWrapperINS1_IPK9FieldInfoP11Il2CppClassEEEjEES9_17ReflectionMapHashIS8_EN14dense_hash_mapIS9_jSD_NS9_14EqualsComparerINS0_8equal_toIS8_EEEENS0_9allocatorISB_EEE9SelectKeyESI_SK_E30advance_past_empty_and_deletedEv
Qdj:_Repetition_get_Expression_m2673886232
y5g:_Decimal__ctor_m1925875020_AdjustorThunk
CMe:_SerializationCallbacks__ctor_m3863304525
VEa:__ZN18ShadowMapJobHeaderD0Ev
g5d:__ZL59SerializationInfo_t950877179_CustomAttributesCacheGeneratorP21CustomAttributesCache
P:Math_exp
tIa:__Z19GetMaxBytesPerPixel13TextureFormat
Ao:FUNCTION_TABLE_iiifi
w7j:__ZN6il2cpp2os5posix13PosixAutoLockD2Ev
U3i:_TlsServerSettings_set_CertificateTypes_m2047242411
nij:_SymmetricTransform_OFB_m3690147804
HZf:_InternalEnumerator_1_MoveNext_m3713722659_AdjustorThunk
R_c:_cff_get_advances
kFb:__ZN13MonoBehaviour9SetScriptERK4PPtrI10MonoScriptE18ScriptingObjectPtr
dYj:_RaycastHit2D_get_collider_m1549426026
usb:__Z18Transfer_BlittableI17RemapPPtrTransferLb0E8Vector2fEvRK29SerializationCommandArgumentsR31RuntimeSerializationCommandInfo
v2j:__ZNSt3__218uninitialized_copyIPNS_4pairIK10KeyWrapperIP14Il2CppIUnknownEjEES8_EET0_T_SA_S9_
rBi:__Z77RuntimeInvoker_Void_t1185182177_Vector2U5BU5DU26_t476646542_Int32_t2950945753PFvvEPK10MethodInfoPvPS4_
Blg:_PKCS12_get_RNG_m2649456600
adb:__ZNK10FileSystem16LastErrorMessageEv
wFi:_Array_InternalArray__Insert_TisVector3_t3722313464_m3862657277_gshared
kge:__ZL104NativeClassAttribute_t2601352714_CustomAttributesCacheGenerator_U3CQualifiedNativeNameU3Ek__BackingFieldP21CustomAttributesCache
tXa:__ZN15SerializeTraitsI13dynamic_arrayI12SpriteVertexLj0EEE19ResizeSTLStyleArrayERS2_i
aSg:_SecurityException__ctor_m1631242336
_Cj:__ZN15dense_hashtableINSt3__24pairIK10KeyWrapperIPK11Il2CppClassEPKcEES6_N6il2cpp5utils11PointerHashIS3_EEN14dense_hash_mapIS6_S9_SE_NS6_14EqualsComparerINS0_8equal_toIS5_EEEENS0_9allocatorISA_EEE9SelectKeyESJ_SL_E14squash_deletedEv
Rtd:_EventSystem_Update_m1662072334
Iga:__ZN13sorted_vectorIN4core12basic_stringIcNS0_20StringStorageDefaultIcEEEENSt3__24lessIS4_EE13stl_allocatorIS4_L18MemLabelIdentifier81ELi16EEE21sort_clear_duplicatesEv
uqd:__ZN22UnityWebRequestManager10InitializeEv
o5a:__ZNSt3__26__treeINS_12__value_typeIN4core12basic_stringIcNS2_20StringStorageDefaultIcEEEE4PPtrI6ObjectEEENS_19__map_value_compareIS6_SA_NS_4lessIS6_EELb1EEE13stl_allocatorISA_L18MemLabelIdentifier52ELi16EEE15__emplace_multiIJRNS_4pairIS6_S9_EEEEENS_15__tree_iteratorISA_PNS_11__tree_nodeISA_PvEEiEEDpOT_
JZc:_raccess_guess_darwin_newvfs
etb:__ZL26Transfer_SimpleNativeClassI17RemapPPtrTransfer8GradientLb1EEvRK29SerializationCommandArgumentsR31RuntimeSerializationCommandInfo
ttd:_RaycasterManager_RemoveRaycasters_m3057093063
Ckc:__ZN12CachedWriter9InitWriteER15CacheWriterBase
tzc:__Z21UnsignedInt64ToStringy
Dif:_GetRaycastNonAllocCallback_BeginInvoke_m3984885848
dUf:_InternalEnumerator_1_MoveNext_m4138204635_AdjustorThunk
aaj:_PatternCompiler_BeginLink_m1295557963
YDe:__ZL70CanvasScaler_t2767979955_CustomAttributesCacheGenerator_m_PhysicalUnitP21CustomAttributesCache
cBb:__ZN18StreamedBinaryReadILb1EE8TransferI13dynamic_arrayIiLj0EEEEvRT_PKc17TransferMetaFlags
lEg:_GuidParser_ThrowFormatException_m3223388534
odj:_Group_GetAnchorInfo_m3730312864
UAe:__ZL50Graphic_t1660335611_CustomAttributesCacheGeneratorP21CustomAttributesCache
K4f:_KeyCollection_System_Collections_Generic_ICollectionU3CTKeyU3E_Add_m454648927_gshared
Gqh:_TimeSpan_op_LessThanOrEqual_m300470010
tse:__ZL139AnimatorOverrideController_t3582062219_CustomAttributesCacheGenerator_AnimatorOverrideController_OnInvalidateOverrideController_m3380737075P21CustomAttributesCache
gTd:_ContextAttribute_Freeze_m3288175579
Gqc:__Z66Register_UnityEngine_Transform_INTERNAL_CALL_InverseTransformPointv
KEj:__ZNSt3__218uninitialized_fillIPNS_4pairIK10KeyWrapperIPK19Il2CppGenericMethodEPK26Il2CppGenericMethodIndicesEESB_EEvT_SD_RKT0_
aea:__ZZN15DirectorManager15InitializeClassEvEN41FixedUpdateDirectorFixedUpdateRegistrator7ForwardEv
ALg:_MemoryStream_get_Position_m3733941202
fyj:_ListPool_1_Clear_m2587502754_gshared
emj:_AudioClipPlayable_Equals_m3705880618
cdc:__ZL10KeyHandleriPK23EmscriptenKeyboardEventPv
rXg:_Slot_t3975888750_marshal_pinvoke
zAk:_glLinkProgram__wrapper
ubb:__ZN18ScriptingArguments8AddInt64Ex
Mia:__ZN6prcoreL12RemapGenericI17TexFormatARGB888815TexFormatBGR888EEvPKNS_9InnerInfoE
inb:__ZN26SinglePassStereoSupportExt19SaveStereoConstantsEv
Bfa:__ZNSt3__26vectorIP10MemoryPool13stl_allocatorIS2_L18MemLabelIdentifier76ELi16EEE21__push_back_slow_pathIRKS2_EEvOT_
UDg:_TextInfo_get_ListSeparator_m1628160079
Rxe:__ZL77ExecuteEvents_t3484638744_CustomAttributesCacheGenerator_U3CU3Ef__mgU24cache6P21CustomAttributesCache
zmf:_Selectable_OnCanvasGroupChanged_m472903475
Bnh:_EventWaitHandle_Reset_m3348053200
Jnd:__ZN28UnityConnectScriptingClasses23CallSessionStateChangedEixxbP21ScriptingExceptionPtr
mvf:_ClientContext_get_SslStream_m1583577309
P1j:__ZN6il2cpp6icalls8mscorlib6System13Globalization11CultureInfo35construct_internal_locale_from_nameEP17Il2CppCultureInfoP12Il2CppString
mvb:__ZL22Transfer_ManagedObjectI24GenerateTypeTreeTransferLb1EEvRK29SerializationCommandArgumentsR31RuntimeSerializationCommandInfo
Bdi:__Z100RuntimeInvoker_Boolean_t97287965_RuntimeObject_Int32_t2950945753_RuntimeObject_UInt16U26_t2814738322PFvvEPK10MethodInfoPvPS4_
MBi:__Z56RuntimeInvoker_ILTokenInfo_t2325775114_Int32_t2950945753PFvvEPK10MethodInfoPvPS4_
dRe:_HMAC_get_BlockSizeValue_m455678067
rYb:__ZN15RenderNodeQueueC2E10MemLabelId
sOd:_ResourceEnumerator_FillCache_m1661715061
v0h:_ReadOnlyCollection_1_System_Collections_IList_IndexOf_m3664838805_gshared
Sad:__ZL17CleanupModule_TLSv
h7d:__ZL72SecuritySafeCriticalAttribute_t3505979402_CustomAttributesCacheGeneratorP21CustomAttributesCache
Zj:_emscripten_set_main_loop_timing
JTe:_Bounds_get_min_m3755135869
M1g:_Convert_ToUInt16_m3523269149
vTe:_Bounds_get_center_m1418449258
rPb:__ZN14DataBufferGLES12RecordRenderEv
Qud:_ExecuteEvents_get_endDragHandler_m2879610446
t9b:__ZN14ImageReference10FlipImageYEv
nAj:_UsedByNativeCodeAttribute__ctor_m2647015777
mya:__ZN21ScalableBufferManager20GetHeightScaleFactorEv
bgc:__ZNSt3__26vectorIN9ShaderLab20SerializedSubProgram15VectorParameterENS_9allocatorIS3_EEE8__appendEj
mL:__ZN4FMOD3DSP9setBypassEb
Vcc:__Z19NormalizeWheelInputf
REd:_Graphic_DoMeshGeneration_m3548487693
Ubc:__Z29StdTemplateConversionFunctionIsaEbPvR14SafeBinaryRead
LH:__ZN11KeyframeTplIfE8TransferI14SafeBinaryReadEEvRT_
IA:__ZNK4PPtrI13MonoBehaviourEcvPS0_Ev
nbj:_Repetition__ctor_m1672362629
zSc:__Z29Transfer_Blittable_ArrayFieldI8JSONReadhEvRT_R9ArrayInfoRK23StaticTransferFieldInfo
dTg:_SecurityFrame_ToString_m339310712_AdjustorThunk
rId:_TypeBuilder_create_runtime_class_m2581270900
Yjc:__ZN11MonoManager25GetImageFromAssemblyIndexEi
hSf:_InternalEnumerator_1_get_Current_m3008260692_gshared
jlk:__ZN6il2cpp2os20ThreadLocalValueImpl8SetValueEPv
oAa:__ZN22RenderingCommandBuffer20CleanupCommandBufferEv
D$g:_Decimal_op_Implicit_m2299919277
nNc:__Z18Transfer_BlittableI9JSONWriteLb1EtEvRK29SerializationCommandArgumentsR31RuntimeSerializationCommandInfo
RBf:_UnexceptionalStreamReader_ReadToEnd_m920589220
s3g:_DateTime_System_IConvertible_ToType_m1242864300
oVg:_String_IndexOf_m1298810678
sk:___syscall85
Fed:__ZN2UI14CanvasRenderer18UpdateTRSHierarchyEb
VLi:_Mesh_GetAllocArrayFromChannel_TisVector3_t3722313464_m2332439905_gshared
wYb:__ZNSt3__26__sortIRPFbP10GUIElementS2_EPS2_EEvT0_S7_T_
Jtc:__ZN16GraphicsSettings12CleanupClassEv
pKf:_ConstructorBuilder_GetILGenerator_m1750792206
yjh:_EncoderFallback_get_ReplacementFallback_m818398284
R9j:__ZN6il2cpp2os6Thread19DetachCurrentThreadEv
kud:_EventTrigger_OnBeginDrag_m4203438710
tBj:__ZN6il2cpp2vmL21SetupInterfacesLockedEP11Il2CppClassRKNS_2os12FastAutoLockE
Onb:__ZN11MonoManager23VirtualRedirectTransferER24GenerateTypeTreeTransfer
jJi:_Dictionary_2_Do_CopyTo_TisRuntimeObject_TisRuntimeObject_m2344529027_gshared
LB:__ZN23AnimationPlayableOutput17SetSourcePlayableEP8Playable
d9j:__ZN6il2cpp2gc16GarbageCollector22MakeDescriptorForArrayEv
LCi:__Z37RuntimeInvoker_UILineInfo_t4195266810PFvvEPK10MethodInfoPvPS4_
FVe:_CullingGroup_Dispose_m782801025
czh:_Dictionary_2_System_Collections_IDictionary_GetEnumerator_m529247385_gshared
cra:__ZN9Scripting11UnityEngine9Component12CleanupProxyEv
CY:__ZN11UnityEngine15CloudWebService14DataDispatcher15SetupWebRequestEv
LDh:_EqualityComparer_1_get_Default_m1038871402_gshared
Qkd:__ZN11UnityEngine15PlatformWrapper13GetShaderCapsEv
F4b:__ZNSt3__211__sift_downIR26RenderDeferredObjectSorterP16RenderObjectDataEEvT0_S5_T_NS_15iterator_traitsIS5_E15difference_typeES5_
BMf:_GenericTypeParameterBuilder_IsDefined_m98179866
gRh:_KeyPairPersistence_get_MachinePath_m3812267291
MYg:_Stack_Peek_m2216191248
f3g:_DateTime_System_IConvertible_ToDecimal_m1044850612_AdjustorThunk
muc:__ZN21FixedBehaviourManager6UpdateEv
aqc:__ZN9Transform9SetParentEPS_NS_15SetParentOptionE
pCa:__ZN19ShaderPropertySheet8SetFloatEN9ShaderLab16FastPropertyNameEfNS_8SetFlagsE
c6a:__ZN19RuntimeSceneManager24BeginIntegrateMainThreadEP10UnityScene
Qxf:_TlsServerCertificate_ProcessAsSsl3_m1306583193
Eak:__ZNSt3__2plIcNS_11char_traitsIcEENS_9allocatorIcEEEENS_12basic_stringIT_T0_T1_EERKS9_S6_
QAf:_StringReader_CheckObjectDisposedException_m3796163530
Bth:_UInt32_System_IConvertible_ToInt16_m1659441601
mgc:__ZN9ShaderLab20SerializedSubProgramaSERKS0_
krk:_roundf
usg:_Byte_System_IConvertible_ToSingle_m324484566_AdjustorThunk
BZg:_Decimal_op_Explicit_m2848387298
zGh:_KeyValuePair_2_ToString_m1238786018_gshared
ev:__ZN8Animator15SetPrepareStageEv
fJ:__ZN8AnimatorC2E10MemLabelId18ObjectCreationMode
uBj:__ZN6il2cpp2vmL24SetupTypeHierarchyLockedEP11Il2CppClassRKNS_2os12FastAutoLockE
KUg:_String_Clone_m3573869765
ddc:__ZL11TextHandleriPK23EmscriptenKeyboardEventPv
vIe:_SoapFieldAttribute_get_XmlElementName_m2203304026
kVb:__ZNSt3__26vectorIP17FileSystemHandlerNS_9allocatorIS2_EEE21__push_back_slow_pathIRKS2_EEvOT_
AZc:_destroy_face
Nwk:_glBlendEquationSeparate__wrapper
Hld:__ZNSt3__26vectorIPN11UnityEngine15CloudWebService14CloudEventInfoE13stl_allocatorIS4_L18MemLabelIdentifier88ELi16EEE21__push_back_slow_pathIS4_EEvOT_
eVc:__ZN5physx19PxAllocatorCallbackD2Ev
kik:__ZN6il2cpp6icalls8mscorlib6System8Security12Cryptography24RNGCryptoServiceProvider13RngInitializeEP11Il2CppArray
Jee:__ZL68UsedByNativeCodeAttribute_t1703770351_CustomAttributesCacheGeneratorP21CustomAttributesCache
xQ:__ZN20SoundChannelInstance7setMuteEb
Jdi:__Z81RuntimeInvoker_Void_t1185182177_RuntimeObject_Int32_t2950945753_Int32_t2950945753PFvvEPK10MethodInfoPvPS4_
eHa:__ZN4PPtrI5LightE8TransferI19StreamedBinaryWriteILb0EEEEvRT_
u3g:_DateTimeUtils_ToString_m1782212840
UOi:_List_1__cctor_m972674764_gshared
XGf:_NumberFormatter_NumberToString_m3906556024
dAb:__Z19TransferField_ArrayI18StreamedBinaryReadILb1EE27Converter_SimpleNativeClassI17AnimationCurveTplIfEEEvRK23StaticTransferFieldInfoR31RuntimeSerializationCommandInfoRT0_
JPb:__ZN18GfxFramebufferGLES22MakeCurrentFramebufferENS_7BuiltinE
ydk:__ZN6il2cpp2vm12MarshalAlloc4FreeEPv
cGa:__ZN12CachedReader4ReadEPvj
PNd:_TypeFilter_EndInvoke_m998903841
xxd:_StandaloneInputModule_ProcessMouseEvent_m2923582521
kzh:_KeyValuePair_2__ctor_m1794021352_gshared
bMd:_MonoMethod_ShouldPrintFullName_m1607666412
a1b:__Z24CalculateLightShadowFadeRK6CamerafffR8Vector4f
k6:__ZN19RuntimeSceneManagerD2Ev
I0e:_PlayerConnectionInternal__ctor_m2406218802
jAg:_CCGregorianCalendar_GetMonth_m1547203696
jIh:_Enumerator_Dispose_m786980821_AdjustorThunk
SZ:__ZN11UnityEngine15CloudWebService25WebRequestDownloadHandler17OnCompleteContentEv
yPa:__ZN6prcore17GetIntegerBlitterE13TextureFormatS0_N14ImageReference8BlitModeE
mgk:_GC_print_block_descr
MYi:_Collection_1_IndexOf_m934463944_gshared
gma:__ZL51__ManagedRegistrationHelperFunction_ResourceRequestPv
v$d:__ZL51Directory_t828876208_CustomAttributesCacheGeneratorP21CustomAttributesCache
nqg:_SimpleEnumerator_Reset_m2182001888
Gyi:__Z86RuntimeInvoker_Int32_t2950945753_Vector2_t2156229523_Vector2_t2156229523_RuntimeObjectPFvvEPK10MethodInfoPvPS4_
EDc:__ZN9BlobWrite14ReduceCopyImplERK14ReduceCopyDataj
Wfh:_Array_LastIndexOf_TisRuntimeObject_m1677937501_gshared
rU:__ZN11AudioSource18IsPlayingScriptingEv
_Qh:_KeyBuilder_IV_m2230195376
Cvk:_glShaderSource__wrapper
Qeb:__ZN25MultiBlocksMemoryFileData17AdjustBlocksCountEj
S_j:__ZNSt3__214__split_bufferIN6il2cpp2vm22EmbeddedResourceRecordERNS_9allocatorIS3_EEED2Ev
HXc:__ZN13TextRendering4Font8TransferI24GenerateTypeTreeTransferEEvRT_
vjb:__ZN9GfxDevice15EndProfileEventEPN9profiling6MarkerE
Fmc:__Z27CullingGroup_CUSTOM_DisposeP12Il2CppObject
c0f:_Comparer_1__ctor_m319670016_gshared
Am:_glStencilMask
qak:__ZN6il2cpp2os10ThreadImpl16GetCurrentThreadEv
ubg:_TypeConverterAttribute_GetHashCode_m948291090
Xcc:__ZN15GUIEventManager10QueueEventERK10InputEvent
_Zi:_Collection_1_Clear_m1300437781_gshared
mJj:_AnalyticsEvent_OnValidationFailed_m2609604624
Vte:__ZL62EventType_t3528516131_CustomAttributesCacheGenerator_mouseMoveP21CustomAttributesCache
bPd:_DecimalConstantAttribute__ctor_m3583301917
E0i:_Collection_1_System_Collections_ICollection_get_IsSynchronized_m1640823718_gshared
Ofk:_GC_push_conditional_with_exclusions
XGe:_MethodCallDictionary__ctor_m2167303393
Q6c:_Compute_Point_Displacement
r9d:__ZL80Convert_t2465617642_CustomAttributesCacheGenerator_Convert_ToDecimal_m2858622624P21CustomAttributesCache
sfk:_GC_make_disappearing_links_disappear
pok:_strrchr
qVe:_Component_GetComponentInParent_m779177818
ORd:__ZN21InterfaceFuncInvoker1IP8String_tS1_E6InvokeEjP11Il2CppClassP12Il2CppObjectS1_
exh:_Dictionary_2_System_Collections_ICollection_get_SyncRoot_m2069913662_gshared
Zxd:_UIBehaviour_IsDestroyed_m3033055982
Coi:__Z109RuntimeInvoker_Void_t1185182177_RuntimeObject_RuntimeObject_SByte_t1669577662_Int32_t2950945753_RuntimeObjectPFvvEPK10MethodInfoPvPS4_
b9e:_Enumerator_Reset_m39541243
mcf:_InputField_get_readOnly_m3111985574
tHa:__ZN14RenderSettings27UpdateIndirectSpecularColorEv
cle:__ZL59RectOffset_t1369453676_CustomAttributesCacheGenerator_m_PtrP21CustomAttributesCache
RZe:_Logger_get_logHandler_m1335645353
I2a:__ZN14PlayerSettings8TransferI18StreamedBinaryReadILb0EEEEvRT_
bMj:__ZN6il2cpp6icalls8mscorlib6System8MonoType16GetMethodsByNameEP20Il2CppReflectionTypeP12Il2CppStringibS5_
x4d:__ZL73ObjRef_t2141158884_CustomAttributesCacheGenerator_U3CU3Ef__switchU24map26P21CustomAttributesCache
Pye:__ZL102PointerEventData_t3807901092_CustomAttributesCacheGenerator_PointerEventData_set_pointerId_m1888344330P21CustomAttributesCache
hte:__ZL88AudioClip_t3680889665_CustomAttributesCacheGenerator_AudioClip_get_ambisonic_m3815052287P21CustomAttributesCache
Iff:_U3CDelayedSetDirtyU3Ec__Iterator0__ctor_m3936335621
pVa:__ZN4PPtrI10GameObjectE8TransferI14SafeBinaryReadEEvRT_
wne:__ZL106PlayableAsset_t3219022681_CustomAttributesCacheGenerator_PlayableAsset_Internal_CreatePlayable_m2550417712P21CustomAttributesCache
S9d:__ZL78Convert_t2465617642_CustomAttributesCacheGenerator_Convert_ToSByte_m2486156346P21CustomAttributesCache
t8i:_RijndaelTransform__cctor_m2439033240
PJb:__ZNSt3__27__sort3IRNS_4lessIN22BuiltinResourceManager8ResourceEEEPS3_EEjT0_S7_S7_T_
gs:__ZN13dynamic_arrayIPN11UnityEngine9Animation23CachedComponentBindingsELj0EE18resize_initializedEjRKS3_12ResizePolicy
AYd:__ZL175U3CGetEnumeratorU3Ec__Iterator0_t1202911786_CustomAttributesCacheGenerator_U3CGetEnumeratorU3Ec__Iterator0_System_Collections_Generic_IEnumeratorU3CTU3E_get_Current_m322251035P21CustomAttributesCache
k8c:_ps_hints_t2mask
s4h:_Comparison_1__ctor_m3138326461_gshared
ubh:_Array_InternalArray__ICollection_Remove_TisMonoResource_t4103430009_m238733686_gshared
unf:_Slider_Set_m1476104429
WNd:__ZN28GenericInterfaceFuncInvoker1IP10Assembly_tP28ResolveEventArgs_t1779456501E6InvokeEPK10MethodInfoP12Il2CppObjectS3_
DGd:_Image_set_fillClockwise_m2210525152
x0a:__ZN10BlendShape8TransferI19StreamedBinaryWriteILb0EEEEvRT_
nmb:__ZNSt3__26vectorIN20GpuProgramParameters14ConstantBufferENS_9allocatorIS2_EEE21__push_back_slow_pathIRKS2_EEvOT_
BS:__Z32TransferEnumWithNameForceIntSizeI14SafeBinaryReadN10SampleClip8LoadTypeEEvRT_RT0_PKc17TransferMetaFlags
b1e:_PlayerConnection_DisconnectedCallback_m1697017309
x1a:__Z19GetTimeSinceStartupv
bHd:_Image_AddQuad_m2161647989
ftd:_BaseInputModule_DeactivateModule_m856719157
gak:__ZN6il2cpp2os10ThreadImpl11SetPriorityENS0_14ThreadPriorityE
IJh:_Enumerator_System_Collections_IEnumerator_Reset_m2953002685_gshared
Afi:__Z50RuntimeInvoker_Int64_t3736567304_Int32_t2950945753PFvvEPK10MethodInfoPvPS4_
G7c:_TT_Load_Composite_Glyph
yjb:__ZN9GfxDevice16DeleteTimerQueryEP13GfxTimerQuery
ZVi:_List_1_Insert_m1695211546_gshared
vs:__ZL51__ManagedRegistrationHelperFunction_ScaleConstraintPv
Rti:__Z49RuntimeInvoker_Void_t1185182177_Color_t2555686324PFvvEPK10MethodInfoPvPS4_
JLa:__ZN9ShaderLab11shaderprops9GetTexEnvEPK19ShaderPropertySheetS3_NS_16FastPropertyNameE16TextureDimensionb
BQi:_List_1_Sort_m3232912161_gshared
m$b:__ZN29RenderNodeQueuePrepareContextC2Ev
cXj:_il2cpp_gc_disable
yjg:_IntStack_t2189327687_marshal_pinvoke_back
vhc:__ZN9ShaderLab20SerializedSubProgram16TextureParameter8TransferI24GenerateTypeTreeTransferEEvRT_
Ira:__ZN9Scripting5Unity11Collections8LowLevel6Unsafe29NativeSetThreadIndexAttribute12CleanupProxyEv
LQe:_DSASignatureDeformatter_SetKey_m2999549245
Kik:__ZN6il2cpp2os11MutexHandle4WaitEb
uhb:__ZN9GfxDevice19SaveStereoConstantsEv
Jik:__ZN6il2cpp2os11MutexHandle4WaitEj
Qmc:__ZL34GetComponentsImplementationRecurseILb1ELi1ELi1EEbR10GameObjectbRK17CompareParametersRK39GetComponentsImplementation_ReturnValue
Kgi:__Z114RuntimeInvoker_Boolean_t97287965_RuntimeObject_RuntimeObject_Int32_t2950945753_Int32_t2950945753_Int32_t2950945753PFvvEPK10MethodInfoPvPS4_
LJf:_AssemblyBuilder_GetTypes_m3415680380
_ha:__ZN6prcoreL17RemapGenericFloatI15TexFormatRGHalf18TexFormatARGBFloatEEvPKNS_9InnerInfoE
cjj:_AnalyticsEventParam_get_groupID_m569309506
v7g:_StackFrame_GetMethod_m1395840764
NJa:__ZNK13RenderTexture13GetDataHeightEv
LHb:__Z18SimulateMouseInputi
iXb:__ZN13RenderManager23AddRemoveCamerasDelayedEv
qK:__ZN23PreloadManagerOperation11GetPriorityEv
_ef:_LayoutElement_OnEnable_m1760066426
yhd:__ZN11UnityEngine9Analytics15AnalyticsConfigC2Ev
xHf:_OverflowException__ctor_m4029085969
Xqg:_BitConverter__cctor_m3841343255
iZg:_Decimal_Compare_m3062820418
F8i:_IntervalCollection_GetMetaCollection_m4029522214
fud:_EventTrigger_OnDeselect_m1919608102
gvj:_TextGenerator_get_characterCount_m864136654
Iph:_TimeSpan__ctor_m2047388489_AdjustorThunk
$7b:__ZN13RenderTexture8SetWidthEi
vsc:__ZNK28RectTransformPropertyBinding12SetPPtrValueERKN11UnityEngine9Animation10BoundCurveEi
cKb:__ZN18FrameTimingManager18GetVSyncsPerSecondEv
kBb:__Z18Transfer_BlittableI18StreamedBinaryReadILb0EELb0EfEvRK29SerializationCommandArgumentsR31RuntimeSerializationCommandInfo
A_a:__ZN10MeshFilterD0Ev
Jba:__ZN22BuiltinResourceManager16StaticInitializeEPv
CRf:_InternalEnumerator_1__ctor_m1341209356_AdjustorThunk
d$i:_Collection_1_System_Collections_ICollection_CopyTo_m1516601228_gshared
tca:__ZN23DefaultMeshVertexFormatC2E18VertexChannelsInfo
d0i:_Collection_1_CopyTo_m4278237485_gshared
fFg:_Int16_System_IConvertible_ToDouble_m1661805412
sTh:_Collection_1_Add_m3860636938_gshared
moj:__ZL23UnresolvedVirtualCall_5P12Il2CppObjectsPK10MethodInfo
qG:__ZN4PPtrI6AvatarE8TransferI19StreamedBinaryWriteILb0EEEEvRT_
HLh:_List_1_Insert_m4050947056_gshared
X3:__ZN9ShaderLab16FastPropertyName4InitEPKc
mVf:_InternalEnumerator_1__ctor_m39232262_AdjustorThunk
xri:__Z48RuntimeInvoker_OperatingSystemFamily_t1868066375PFvvEPK10MethodInfoPvPS4_
n8d:__ZL61Thread_t2300836069_CustomAttributesCacheGenerator_local_slotsP21CustomAttributesCache
RKa:__ZN6ObjectC2E10MemLabelId18ObjectCreationMode
OWh:_Collection_1_System_Collections_IEnumerable_GetEnumerator_m3596816767_gshared
YVf:_InternalEnumerator_1_get_Current_m3911557813_AdjustorThunk
skd:__ZN11UnityEngine15PlatformWrapper19GetPhysicalMemoryMBEv
Vx:__ZN17AnimationPlayable17GetAnimationClipsER13dynamic_arrayIP13AnimationClipLj0EE
$sg:_Char_System_IConvertible_ToByte_m2347554595_AdjustorThunk
eRj:__ZNK15dense_hashtableINSt3__24pairIK10KeyWrapperINS1_IPK12PropertyInfoP11Il2CppClassEEEjEES9_17ReflectionMapHashIS8_EN14dense_hash_mapIS9_jSD_NS9_14EqualsComparerINS0_8equal_toIS8_EEEENS0_9allocatorISB_EEE9SelectKeyESI_SK_E12test_deletedERK30dense_hashtable_const_iteratorISB_S9_SD_SM_SI_SK_E
Rke:__ZL59TooltipAttribute_t3957072629_CustomAttributesCacheGeneratorP21CustomAttributesCache
JXa:__ZN10VertexData8TransferI17RemapPPtrTransferEEvRT_
oJa:__ZN13RenderTexture9SetMipMapEb
pDj:__ZN15dense_hashtableINSt3__24pairIK10KeyWrapperIPK11Il2CppClassEPKcEES6_N6il2cpp5utils11PointerHashIS3_EEN14dense_hash_mapIS6_S9_SE_NS6_14EqualsComparerINS0_8equal_toIS5_EEEENS0_9allocatorISA_EEE9SelectKeyESJ_SL_E13set_empty_keyERKSA_
BUc:__ZN9Scripting11UnityEngine14ContactPoint2D9InitProxyEv
rWg:_String_CreateString_m860434552
Bea:__Z18GetDirectorManagerv
Yib:__ZN9GfxDevice14InsertCPUFenceEv
e2d:__ZL107CriticalFinalizerObject_t701527852_CustomAttributesCacheGenerator_CriticalFinalizerObject__ctor_m3245424448P21CustomAttributesCache
PGg:_Int32_Equals_m2976157357_AdjustorThunk
Tpc:__Z38Transform_CUSTOM_INTERNAL_get_rotationP12Il2CppObjectP11Quaternionf
sIe:_SoapAttribute_get_XmlNamespace_m859394681
dQj:__ZNK15dense_hashtableINSt3__24pairIK10KeyWrapperINS1_IPK10MethodInfoP11Il2CppClassEEEjEES9_17ReflectionMapHashIS8_EN14dense_hash_mapIS9_jSD_NS9_14EqualsComparerINS0_8equal_toIS8_EEEENS0_9allocatorISB_EEE9SelectKeyESI_SK_E5beginEv
G7i:_X509ExtensionCollection_System_Collections_IEnumerable_GetEnumerator_m1475785462
cOb:__ZN7ApiGLES19UploadBufferSubDataEjN2gl12BufferTargetEllPKv
Hxj:_SkeletonBone_t4134054672_marshal_pinvoke_cleanup
je:_glFramebufferTextureLayer
Uga:__ZNSt3__216__rotate_forwardINS_11__wrap_iterIPN4core12basic_stringIcNS2_20StringStorageDefaultIcEEEEEEEET_S9_S9_S9_
G9e:_Vector2_GetHashCode_m3916089713
rca:__ZdaPv
Bmg:_SmallXmlParserException__ctor_m1976648878
tmf:_Selectable_get_isPointerDown_m3518318267
PPg:_SymmetricAlgorithm_set_KeySize_m3805756466
dGe:__ZL70ValueProperty_t1868393739_CustomAttributesCacheGenerator_m_CustomValueP21CustomAttributesCache
ysg:_Byte_System_IConvertible_ToUInt32_m1049546902_AdjustorThunk
Gpi:__Z53RuntimeInvoker_Double_t594665363_Interval_t1802865632PFvvEPK10MethodInfoPvPS4_
ZJb:__Z21InitializeBatchedJobsv
Qvj:_CanvasGroup_get_blocksRaycasts_m1805542303
xOg:_SHA1Internal_ProcessBlock_m1991889327
eqb:__Z19TransferField_ArrayI14SafeBinaryRead27Converter_SimpleNativeClassI8GUIStyleEEvRK23StaticTransferFieldInfoR31RuntimeSerializationCommandInfoRT0_
$Db:__ZN9TextAsset23VirtualRedirectTransferER19StreamedBinaryWriteILb0EE
a2j:__ZN15dense_hashtableINSt3__24pairIK10KeyWrapperIP14Il2CppIUnknownEjEES5_N6il2cpp5utils11PointerHashIS3_EEN14dense_hash_mapIS5_jSB_NS5_14EqualsComparerINS0_8equal_toIS4_EEEENS0_9allocatorIS7_EEE9SelectKeyESG_SI_ED2Ev
MHi:_Array_Sort_TisRuntimeObject_TisRuntimeObject_m1685639929_gshared
tik:__ZN6il2cpp5utils10MemoryPoolC2Ev
OGa:__ZN14RenderSettings5ResetEv
qkc:__ZN6Sprite9BindAtlasERK4PPtrI11SpriteAtlasE
hMc:__ZN5Unity9rapidjson12GenericValueINS0_4UTF8IcEE13JSONAllocatorE10FindMemberIS4_EENS0_21GenericMemberIteratorILb0ES3_S4_EERKNS1_IS3_T_EE
UVf:_InternalEnumerator_1_System_Collections_IEnumerator_get_Current_m3892960115_AdjustorThunk
Ojc:__ZN9ShaderLabL18AddPropertyToArrayERK19ShaderPropertySheetR13dynamic_arrayIiLj0EERKNS_8FloatValE
r0j:__ZNSt3__212basic_stringIDsNS_11char_traitsIDsEENS_9allocatorIDsEEE6appendEPKDsj
hij:_SymmetricTransform_Finalize_m4129642865
Rug:_ArrayList_Clone_m2682741233
pRe:_HMAC_HashCore_m3684104066
Mnd:__Z13RegisterClassI20UnityConnectSettingsEvPKc
J4h:__ZN28GenericInterfaceFuncInvoker2Ii20UIVertex_t4057497605S0_E6InvokeEPK10MethodInfoP12Il2CppObjectS0_S0_
yLc:__ZN5Unity9rapidjson13GenericReaderINS0_4UTF8IcEES3_13JSONAllocatorE11ParseNumberILj1ENS0_25GenericInsituStringStreamIS3_EENS0_15GenericDocumentIS3_S4_S4_EEEEvRT0_RT1_
FXd:__ZL88RuntimeArray_CustomAttributesCacheGenerator_Array_CreateInstance_m1027597705____lengths1P21CustomAttributesCache
F1i:_Collection_1_RemoveItem_m2911050674_gshared
zdi:__Z79RuntimeInvoker_UInt16_t2177724958_RuntimeObject_Int32_t2950945753_RuntimeObjectPFvvEPK10MethodInfoPvPS4_
aak:__ZN6il2cpp2os10ThreadImplD2Ev
Fke:__ZL56ResetInputAxis_t866062302_CustomAttributesCacheGeneratorP21CustomAttributesCache
TDg:_TextInfo_System_Runtime_Serialization_IDeserializationCallback_OnDeserialization_m1492046432
wMc:__ZN8Gradient8TransferI9JSONWriteEEvRT_
X6a:__ZN21RendererUpdateManager18OncePerFrameUpdateER13RendererScene
Anj:_AudioSource_set_clip_m31653938
Ove:__ZL81TextEditor_t2759855366_CustomAttributesCacheGenerator_TextEditor__ctor_m242049450P21CustomAttributesCache
nZg:_Convert_ToBoolean_m2833621053
Mua:__ZNK12TLSAllocatorI14StackAllocatorE22GetAllocatedMemorySizeEv
zde:__ZL62WebHeaderCollection_t1942268960_CustomAttributesCacheGeneratorP21CustomAttributesCache
Ysa:__ZN17RemapPPtrTransfer12PushMetaFlagE17TransferMetaFlags
aDh:_EqualityComparer_1_System_Collections_IEqualityComparer_GetHashCode_m2138064395_gshared
ER:__ZNK7WeakPtrI20SoundChannelInstanceE10SharedData9GetRawPtrEv
Mbb:__ZN12HandlerChain4NameEv
mBd:_FloatTween_t1274330004_marshal_pinvoke
sFg:_Int16_System_IConvertible_ToType_m3672347013_AdjustorThunk
Vrb:__Z29Transfer_Blittable_ArrayFieldI14SafeBinaryReadN4math12int3_storageEEvRT_R9ArrayInfoRK23StaticTransferFieldInfo
PSg:_SecurityException_ToString_m3228070608
ZFg:_Int16_ToString_m2013897809
nzi:__Z60RuntimeInvoker_Int32_t2950945753_ResourceCacheItem_t51292791PFvvEPK10MethodInfoPvPS4_
RSg:_String_Substring_m2848979100
Xed:__Z44Register_UnityEngine_CanvasRenderer_get_cullv
vAj:__ZN15dense_hashtableINSt3__24pairIK10KeyWrapperIPK22Il2CppGenericParameterEP11Il2CppClassEES6_N6il2cpp5utils11PointerHashIS4_EEN14dense_hash_mapIS6_S9_SE_NS6_14EqualsComparerINS0_8equal_toIS5_EEEENS0_9allocatorISA_EEE9SelectKeyESJ_SL_ED2Ev
C7h:__ZN23GenericVirtFuncInvoker1Ib19Vector4_t3319028937E6InvokeEPK10MethodInfoP12Il2CppObjectS0_
MSg:_SecurityException_get_PermissionType_m2237538728
ucc:__Z29StdTemplateConversionFunctionIbbEbPvR14SafeBinaryRead
Wjd:__ZN11UnityEngine7Connect17XRDeviceInfoEvent12XRDeviceInfoD2Ev
hob:__Z44InitializeTransferFunctionScriptingTraitsForI17RemapPPtrTransferEvR31TransferFunctionScriptingTraits
gtc:__ZNSt3__26vectorI16MessageForwarder13stl_allocatorIS1_L18MemLabelIdentifier7ELi8EEE6resizeEj
ygg:_X509Chain_SelectBestFromCollection_m1068759221
qij:_SymmetricTransform_TransformBlock_m851059707
OWd:__ZL68IntPtr_t_CustomAttributesCacheGenerator_IntPtr_ToPointer_m4157623054P21CustomAttributesCache
JHb:__Z11StringToKeyRKN4core12basic_stringIcNS_20StringStorageDefaultIcEEEE
uXi:_Enumerator_System_Collections_IEnumerator_Reset_m2261065994_AdjustorThunk
klf:_ScrollRect_get_verticalNormalizedPosition_m3693218937
b6a:__ZN18LoadSceneOperation21MustCompleteNextFrameEv
wnf:_Slider_UpdateDrag_m1102107039
mMd:_MonoMethodInfo_get_method_info_m88651774
XT:__ZNK12AudioManager16GetAudioListenerEv
jGg:_Int32_System_IConvertible_ToDateTime_m1824716955
kxh:_Dictionary_2_System_Collections_Generic_ICollectionU3CSystem_Collections_Generic_KeyValuePairU3CTKeyU2CTValueU3EU3E_CopyTo_m331407443_gshared
eOe:_RuntimeTypeHandle__ctor_m3315980708_AdjustorThunk
M6d:__ZL69IIdentityPermissionFactory_t3268650966_CustomAttributesCacheGeneratorP21CustomAttributesCache
vvj:_Canvas_set_overrideSorting_m4088794420
E7b:__ZNSt3__26vectorI11CameraStackNS_9allocatorIS1_EEE8__appendEj
UAh:_DefaultComparer_Equals_m2585095694_gshared
QZe:_Logger_set_filterLogType_m3622751173
AMe:__ZN25GenericVirtActionInvoker1I28StreamingContext_t3711869237E6InvokeEPK10MethodInfoP12Il2CppObjectS0_
ugi:__Z172RuntimeInvoker_Void_t1185182177_RuntimeObject_CodePointIndexerU26_t4059079874_ByteU2AU26_t57153304_ByteU2AU26_t57153304_CodePointIndexerU26_t4059079874_ByteU2AU26_t57153304PFvvEPK10MethodInfoPvPS4_
Ew:__ZN7mecanim9animation12GetHumanPoseERKNS0_18ClipMuscleConstantEPKNS0_10ValueDeltaERNS_5human9HumanPoseE
Yhd:__ZN11UnityEngine9Analytics15UserCustomEvent12CustomParams6InsertEPKcRNS1_11CustomValueE
yy:__ZN22AnimationMixerPlayable17ProcessRootMotionEP35AnimationPlayableEvaluationConstantP32AnimationPlayableEvaluationInputP33AnimationPlayableEvaluationOutput
Ixb:__Z29Transfer_Blittable_ArrayFieldI19StreamedBinaryWriteILb0EEjEvRT_R9ArrayInfoRK23StaticTransferFieldInfo
R9:__Z13GetFileSystemv
Inj:_AudioSourceExtension_ExtensionUpdate_m2790353999
nca:__ZN13RuntimeStaticI15GUIEventManagerLb0EE16StaticInitializeEPv
Y6a:__ZN21RendererUpdateManager9UpdateAllER13RendererScene
uCb:__ZL12InvokeMethodI18StreamedBinaryReadILb0EEEvRK29SerializationCommandArgumentsR31RuntimeSerializationCommandInfo
oma:__ZL45__ManagedRegistrationHelperFunction_Texture2DPv
Vvh:_Version_CompareTo_m3146217210
vxf:_TlsClientCertificate_FindParentCertificate_m3844441401
dej:_Uri_ParseAsUnixAbsoluteFilePath_m1476768041
rhh:_Array_InternalArray__ICollection_CopyTo_TisKeyValuePair_2_t71524366_m1056941380_gshared
arh:_Type_get_IsClass_m589177581
ufe:__ZL62NativeTypeAttribute_t2250406315_CustomAttributesCacheGeneratorP21CustomAttributesCache
tAb:__Z29Transfer_Blittable_ArrayFieldI18StreamedBinaryReadILb1EE5RectTIfEEvRT_R9ArrayInfoRK23StaticTransferFieldInfo
unb:__ZN19ShaderPropertySheet9SetMatrixEN9ShaderLab16FastPropertyNameERK10Matrix4x4fNS_8SetFlagsE
IRa:__Z29GetTextureSizeAllowedMultiple13TextureFormat
h6g:_Decimal_Subtract_m835601464
AVb:__ZZ23InitPlayerLoopCallbacksvEN52InitializationAsyncUploadTimeSlicedUpdateRegistrator7ForwardEv
Qoi:__Z73RuntimeInvoker_Boolean_t97287965_RuntimeObject_IPv6AddressU26_t3285609463PFvvEPK10MethodInfoPvPS4_
Mhg:_X509ExtensionCollection_get_IsSynchronized_m2607599544
Gph:_TimeSpan__ctor_m3689759052_AdjustorThunk
nWj:_il2cpp_array_element_size
vVd:__ZL62ComVisibleAttribute_t1362837655_CustomAttributesCacheGeneratorP21CustomAttributesCache
PQi:_List_1_System_Collections_IEnumerable_GetEnumerator_m1824431956_gshared
Gva:__ZNSt3__26__treeINS_12__value_typeIN4core12basic_stringIcNS2_20StringStorageDefaultIcEEEEjEENS_19__map_value_compareIS6_S7_NS_4lessIS6_EELb1EEE13stl_allocatorIS7_L18MemLabelIdentifier7ELi16EEE25__emplace_unique_key_argsIS6_JNS_4pairIS6_jEEEEENSH_INS_15__tree_iteratorIS7_PNS_11__tree_nodeIS7_PvEEiEEbEERKT_DpOT0_
z5e:_RectTransform_INTERNAL_set_sizeDelta_m188783163
Vf:_glCheckFramebufferStatus
Qhk:__ZN6il2cpp2os11EventHandle4WaitEv
IOf:_U3CGetEnumeratorU3Ec__Iterator0_System_Collections_Generic_IEnumeratorU3CTU3E_get_Current_m9057020_gshared
X5:__Z43scripting_class_get_method_from_name_filter17ScriptingClassPtrPKciN24ScriptingMethodFiltering18MethodSearchFilterEPK16ScriptingTypePtr
lfd:__Z13RegisterClassIN2UI6CanvasEEvPKc
B7:__ZN4core8hash_setINS_4pairIKi17ThreadedAwakeDataLb0EEENS_9hash_pairINS_4hashIiEES2_S3_EENS_10equal_pairINSt3__28equal_toIiEES2_S3_EEE4growEv
E$:__ZN19CloudServiceHandler20StartEventDispatcherERKN11UnityEngine15CloudWebService18CloudServiceConfigERNS1_23WebRequestRestHeaderMapE
pFd:_GraphicRaycaster__ctor_m646559428
Ztf:_CipherSuite_get_CipherAlgorithmType_m137858741
Mwg:_BitArrayEnumerator_get_Current_m4220391712
iIf:__Z37il2cpp_codegen_get_executing_assemblyPK10MethodInfo
b6e:_Transform_get_parent_m835071599
C7:__ZN4core8hash_setINS_4pairIKi17ThreadedAwakeDataLb0EEENS_9hash_pairINS_4hashIiEES2_S3_EENS_10equal_pairINSt3__28equal_toIiEES2_S3_EEE4growEi
Lab:__ZN9Transform23VirtualRedirectTransferER17RemapPPtrTransfer
Ecg:_IPAddress_get_ScopeId_m4237202723
Cpa:__ZN9Scripting11UnityEngine12Experimental10PlayerLoop9PreUpdate12CleanupProxyEv
LTf:_InternalEnumerator_1_MoveNext_m3520556285_AdjustorThunk
rbj:_ExpressionCollection_get_Item_m3510736379
MAe:__ZL62FontData_t746620069_CustomAttributesCacheGenerator_m_AlignmentP21CustomAttributesCache
Ywd:_StandaloneInputModule_get_inputActionsPerSecond_m3946624274
Ymh:_UTF8Encoding_InternalGetCharCount_m82458470
U9e:_Vector2__cctor_m2108982652
c1e:_U3CBlockUntilRecvMsgU3Ec__AnonStorey2_U3CU3Em__0_m2225790220
tna:__ZN9Scripting11UnityEngine9Rendering20SphericalHarmonicsL29InitProxyEv
dZf:_InternalEnumerator_1_MoveNext_m2734554195_AdjustorThunk
d2j:__ZN14dense_hash_mapI10KeyWrapperIP14Il2CppIUnknownEjN6il2cpp5utils11PointerHashIS1_EENS3_14EqualsComparerINSt3__28equal_toIS2_EEEENS9_9allocatorINS9_4pairIKS3_jEEEEE15set_deleted_keyERSF_
mYj:__ZN6il2cpp2gc9AllocatorIP12Il2CppThreadE10deallocateEPvj
ISj:__ZN13Il2CppHashMapIPK14Il2CppAssemblyPK22Il2CppMonoAssemblyNameN6il2cpp5utils11PointerHashIS1_EENSt3__28equal_toIS2_EENSA_9allocatorINSA_4pairIK10KeyWrapperIS2_ES5_EEEEEC2EjRKS9_RKSC_
Xng:_DelegatePInvokeWrapper_AppDomainInitializer_t682969308
Eoe:__ZL141SupportedRenderingFeatures_t353898663_CustomAttributesCacheGenerator_SupportedRenderingFeatures_IsMixedLightingModeSupportedByRef_m2282093837P21CustomAttributesCache
W8:__ZN8Remapper6RemoveEi
mai:_UnityEvent_1__ctor_m3777630589_gshared
qfb:__ZN10MemoryFile4ReadEyPvPy
Zjh:_Encoding_GetBytes_m3148649984
ECc:__ZN9Scripting27CreateArgumentNullExceptionEPKc
u_c:__ZL36CleanupTextRenderingScriptingClassesv
Y7b:__ZN15ReflectionProbe17UseRendererResultEP13ProbeRenderer
DFc:__Z34Mesh_CUSTOM_SetArrayForChannelImplP12Il2CppObject30InternalScriptingShaderChannel34InternalScriptingVertexChannelTypeiP11Il2CppArrayi
Yvj:_CanvasRenderer_INTERNAL_CALL_EnableRectClipping_m3318097918
ruh:_UInt64_System_IConvertible_ToDecimal_m806594027_AdjustorThunk
Uka:__ZL58__ManagedRegistrationHelperFunction_MaterialEffectPlayablePv
$nd:__ZN11UnityEngine7Connect20RemoteConfigSettings18StaticCallOnUpdateEPS1_
Tai:_UnityEvent_1_GetDelegate_m274387680_gshared
t2f:_Enumerator_get_CurrentValue_m3103267885_gshared
XNi:_List_1__ctor_m3395838871_gshared
wXh:_Collection_1_IsFixedSize_m3698021882_gshared
eK:__ZN9Scripting11UnityEngine18AssetBundleRequest9InitProxyEv
a5i:_PKCS12__ctor_m1854440921
lHi:_Array_Resize_TisCustomAttributeNamedArgument_t287865710_m885566878_gshared
Waa:__ZN17TransformInternal19FreeTransformThreadER18TransformHierarchyjj
Ns:__ZN9Scripting11UnityEngine12SkeletonBone12CleanupProxyEv
Gzh:_DefaultComparer__ctor_m2556554241_gshared
bu:__ZN11UnityEngine9Animation28GenericAnimationBindingCache25RegisterIAnimationBindingEPKN5Unity4TypeEiP17IAnimationBinding
fSd:_FormatterData__ctor_m3990517908
$ed:__Z70RectTransformUtility_CUSTOM_INTERNAL_CALL_RectangleContainsScreenPointP12Il2CppObjectRK13Vector2fIcallS0_
AJg:_DirectoryInfo__ctor_m481305441
Nhg:_X509ExtensionCollection_get_SyncRoot_m2667861032
lBj:__ZN6il2cpp2vm5Class15GetElementClassEP11Il2CppClass
W3:__ZN10MemoryPoolC2E10MemLabelIdbPKciii
JTh:_Collection_1_SetItem_m941095285_gshared
_gd:__ZN14UnityAnalytics25UnregisterGlobalCallbacksEv
Bxi:__Z80RuntimeInvoker_Boolean_t97287965_ColorBlockU26_t337120346_ColorBlock_t2139031574PFvvEPK10MethodInfoPvPS4_
o6b:__Z40ProcessCameraIndexListIsNodeVisibleInOutRK22SceneCullingParametersPK9SceneNodePK4AABBR9IndexList
lhj:_GUIScrollGroup_SetHorizontal_m291416666
TFa:__ZN16GraphicsSettings8TransferI17RemapPPtrTransferEEvRT_
Ufd:__ZN2UI6Canvas13UpdateBatchesEb
ueg:_X509BasicConstraintsExtension_Decode_m120598446
IB:__ZNK23AnimationPlayableOutput11DerivesFromE17ScriptingClassPtr
eQa:__ZN7Texture19SupportsAsyncUploadI19StreamedBinaryWriteILb0EEEEbRT_
tri:__Z49RuntimeInvoker_Boolean_t97287965_Rect_t2360479859PFvvEPK10MethodInfoPvPS4_
FMe:_ObjectReader_ReadObjectGraph_m340866276
Rqe:__ZL101Transform_t3600365921_CustomAttributesCacheGenerator_Transform_INTERNAL_get_localRotation_m1111330565P21CustomAttributesCache
mmi:__Z51RuntimeInvoker_UInt32_t2560061978_Int16_t2552820387PFvvEPK10MethodInfoPvPS4_
oLb:__ZNK13GfxDeviceGLES12GetWireframeEv
yij:_DelegatePInvokeWrapper_Action_t1264377477
aue:__ZL64EventType_t3528516131_CustomAttributesCacheGenerator_dragUpdatedP21CustomAttributesCache
old:__ZN11UnityEngine7Connect13ConfigHandler12GetListenersERKN4core12basic_stringIcNS2_20StringStorageDefaultIcEEEE
uib:__ZN9GfxDevice18AllocRenderSurfaceEb
Usg:_Char__cctor_m2787437263
Exc:__ZN10TagManager32GetSortingLayerUniqueIDFromValueEi
lyd:_AspectRatioFitter_get_rectTransform_m2996235303
P5:__ZL27CleanupCoreScriptingClassesv
ZBg:_DateTimeFormatInfo_get_IsReadOnly_m1173781646
iDg:_NumberFormatInfo_get_PercentPositivePattern_m1800841633
mFd:_Graphic_UnregisterDirtyMaterialCallback_m2707090617
O0f:_Comparer_1_System_Collections_IComparer_Compare_m1313384821_gshared
agf:_LayoutRebuilder_GetHashCode_m1943075341
VMf:_GenericTypeParameterBuilder_MakeGenericType_m3048165991
Wqc:__Z26AnimationCurve_CUSTOM_InitP12Il2CppObjectP11Il2CppArray
fzk:_glUniform1uiv__wrapper
tSj:__ZN6il2cpp2vm10Reflection7IsEventEP12Il2CppObject
dlk:__ZNSt3__26__treeINS_12__value_typeIPFvvEPK10MethodInfoEENS_19__map_value_compareIS3_S7_NS_4lessIS3_EELb1EEENS_9allocatorIS7_EEE16__insert_node_atEPNS_16__tree_node_baseIPvEERSI_SI_
X8:__ZN17PersistentManager26GetStreamNameSpaceInternalEi
nR:__ZN4FMOD6System11createSoundEPKcjP22FMOD_CREATESOUNDEXINFOPPNS_5SoundE
Wn:FUNCTION_TABLE_iiifiiii
hZf:_InternalEnumerator_1_System_Collections_IEnumerator_Reset_m1451164462_AdjustorThunk
jWc:__ZN13SpeedTreeWind20AdvanceWithoutUpdateEd
yXh:_ReadOnlyCollection_1_System_Collections_Generic_ICollectionU3CTU3E_Add_m1422506275_gshared
e3g:_DateTime_System_IConvertible_ToDecimal_m1044850612
ENi:_List_1_IndexOf_m2206067159_gshared
jRf:_InternalEnumerator_1_System_Collections_IEnumerator_Reset_m1318888374_AdjustorThunk
V4:__ZN9ShaderLab19CommonPropertyNames13StaticCleanupEPv
k8:__Z31scripting_method_get_returntype18ScriptingMethodPtr
Dpj:__ZL24UnresolvedVirtualCall_76P12Il2CppObjectPK10MethodInfo
kWa:__ZN15SerializeTraitsI12LightmapDataE8TransferI24GenerateTypeTreeTransferEEvRS0_RT_
kRg:_SecurityElement_AddAttribute_m311510562
Gra:__ZN9Scripting5Unity11Collections44NativeDisableParallelForRestrictionAttribute12CleanupProxyEv
Evk:_glStencilOpSeparate__wrapper
QAc:__ZN4Mesh5SetUvEiPKfjj
WTa:__ZN7Texture13SetAnisoLimitENS_20AnisotropicFilteringE
Opd:__ZN20UnityWebRequestProtoI24UnityWebRequestTransport16AtomicRefCounter14RedirectHelper14ResponseHelper15DownloadHandler13UploadHandler18CertificateHandler12HeaderHelper14AsyncOperationED2Ev
cw:__ZN21AnimationClipPlayable22PrepareAnimationEventsEfR13dynamic_arrayI22AnimationClipEventInfoLj0EE
Nqg:_Attribute_IsDefined_m4069052474
Ph:_emscripten_glCompressedTexSubImage2D
hRb:__ZN13GfxDeviceGLES22MemoryBarrierImmediateEyN2gl17MemoryBarrierTypeE
tef:_U3CCaretBlinkU3Ec__Iterator0_Dispose_m860898205
Cia:__ZN6prcoreL26RemapGenericFloatToIntegerI18TexFormatARGBFloat17TexFormatARGB8888EEvPKNS_9InnerInfoE
iWi:_List_1_set_Capacity_m1977188119_gshared
cCc:__Z46GetShaderModelNumericValueFromRequirementsMask18ShaderRequirements
W1c:_cff_ps_has_glyph_names
$Cd:_DropdownItem_get_rectTransform_m3147806615
ozh:_Dictionary_2_Resize_m3287623642_gshared
qek:_GC_write
asi:__Z98RuntimeInvoker_Boolean_t97287965_PlayableOutputHandle_t4208053793_PlayableOutputHandle_t4208053793PFvvEPK10MethodInfoPvPS4_
TIe:_SoapTypeAttribute_SetReflectionObject_m1691526413
YEd:_Graphic_OnPopulateMesh_m767318148
or:__ZN17ConstraintManagerD2Ev
IRe:_HMACSHA512_set_ProduceLegacyHmacValues_m3961135292
Yoj:__ZL24UnresolvedVirtualCall_43P12Il2CppObjectS0_PK10MethodInfo
Owh:_Dictionary_2_Remove_m4193450060_gshared
TPh:_ASN1_get_Tag_m1032367219
zkj:_StandardEventPayload_set_name_m549984672
THg:_Int64_TryParse_m3606398488
gGi:_Array_InternalArray__set_Item_TisMark_t3471605523_m1299772331_gshared
bKc:__Z44Register_UnityEngine_GUIStyle_SetDefaultFontv
kyb:__Z18Transfer_BlittableI18StreamedBinaryReadILb1EELb1EiEvRK29SerializationCommandArgumentsR31RuntimeSerializationCommandInfo
MD:__ZN9BlobWrite8TransferI22OffsetPtrArrayTransferIKN4math7_float3EEEEvRT_PKc17TransferMetaFlags
Qgi:__Z173RuntimeInvoker_Int32_t2950945753_RuntimeObject_Int32_t2950945753_Int32_t2950945753_Int32_t2950945753_RuntimeObject_Int32_t2950945753_SByte_t1669577662_ContextU26_t3937453398PFvvEPK10MethodInfoPvPS4_
PPi:_List_1__ctor_m2576108087_gshared
iRj:__ZN15dense_hashtableINSt3__24pairIK10KeyWrapperINS1_IPK12PropertyInfoP11Il2CppClassEEEjEES9_17ReflectionMapHashIS8_EN14dense_hash_mapIS9_jSD_NS9_14EqualsComparerINS0_8equal_toIS8_EEEENS0_9allocatorISB_EEE9SelectKeyESI_SK_E12maybe_shrinkEv
Xqj:__ZL25UnresolvedVirtualCall_150P12Il2CppObject19Vector2_t2156229523S1_fiPK10MethodInfo
x5i:_X509Certificate_get_DSA_m565099499
Lyb:__Z18Transfer_BlittableI18StreamedBinaryReadILb1EELb1EsEvRK29SerializationCommandArgumentsR31RuntimeSerializationCommandInfo
olh:_StringBuilder_Remove_m940064945
x2a:__ZN14SafeBinaryRead21TransferSTLStyleArrayI13dynamic_arrayI16SplashScreenLogoLj0EEEEvRT_17TransferMetaFlags
$lb:__ZN13dynamic_arrayIN16GeometryJobTasks15GeometryJobTaskELj0EE18resize_initializedEjRKS1_12ResizePolicy
eQe:_DESCryptoServiceProvider_GenerateIV_m683687014
TEh:_GenericComparer_1__ctor_m1900257738_gshared
aUa:__ZL21SetAnisoLimitEnumImplN7Texture20AnisotropicFilteringEb
jld:__ZN22BaseUnityConnectClient17OnEnterStateReadyEv
mof:_Text_get_fontSize_m1677872538
tMi:_List_1_System_Collections_IList_get_Item_m995551621_gshared
jpa:__ZN9Scripting11UnityEngine12Experimental9Rendering15ShadowSplitData9InitProxyEv
w0a:__ZN16BlendShapeVertex8TransferI19StreamedBinaryWriteILb0EEEEvRT_
hrc:__Z29Input_CUSTOM_GetMouseButtonUpi
JFg:_Int16_Parse_m138525169
BMj:__ZN6il2cpp6icalls8mscorlib6System8MonoType16InternalGetEventEP20Il2CppReflectionTypeP12Il2CppStringi
Yej:_UriScheme_t722425697_marshal_pinvoke_back
O3c:_UNITY_tt_face_load_maxp
xrc:__Z46Input_CUSTOM_INTERNAL_set_compositionCursorPosRK13Vector2fIcall
Iv:__ZN7mecanim5human12FullBodyMaskEv
i_b:__ZN13BatchRenderer15ApplyShaderPassER17ShaderPassContextPK18SharedMaterialDataP6ShaderPN9ShaderLab4PassEi13BatchingFlagsbbPKNS7_10GrabPassesEPK22DeviceRenderStateBlock
__a:__ZN19ShaderPropertySheet11ComputeHashEv
vFj:__ZN30dense_hashtable_const_iteratorI10KeyWrapperIPK19Il2CppGenericMethodES4_N6il2cpp8metadata23Il2CppGenericMethodHashEN14dense_hash_setIS4_S7_NS4_14EqualsComparerINS6_26Il2CppGenericMethodCompareEEENSt3__29allocatorIS4_EEE8IdentityESB_SE_EppEv
kCd:_Resources_t1597885468_marshal_pinvoke_cleanup
Hzb:__ZN4PPtrI6ObjectE8TransferI18StreamedBinaryReadILb1EEEEvRT_
BZ:__ZN11UnityEngine15CloudWebService20WebRequestRestClient6IsDoneEv
Mcj:_Group__ctor_m2980794822
y2i:_X509CertificateCollection_get_Item_m1033426577
R7h:_CachedInvokableCall_1_Invoke_m502907382_gshared
vee:__ZL79Enumerable_t538148348_CustomAttributesCacheGenerator_Enumerable_Any_m1084009618P21CustomAttributesCache
Mi:_llvm_fabs_f32
eZ:__ZN11UnityEngine15CloudWebService16SessionContainer16GetJsonDataBlockEjRKN4core12basic_stringIcNS2_20StringStorageDefaultIcEEEERS6_PjSA_
PPh:_ASN1_Decode_m1695284166
Otf:__ZN23GenericVirtFuncInvoker0IP28ValidationResult_t3834298736E6InvokeEPK10MethodInfoP12Il2CppObject
eTj:__ZN15dense_hashtableINSt3__24pairIK10KeyWrapperIPK14Il2CppAssemblyEPK22Il2CppMonoAssemblyNameEES6_N6il2cpp5utils11PointerHashIS4_EEN14dense_hash_mapIS6_SA_SF_NS6_14EqualsComparerINS0_8equal_toIS5_EEEENS0_9allocatorISB_EEE9SelectKeyESK_SM_E13set_empty_keyERKSB_
E1i:_Collection_1_RemoveAt_m2240641437_gshared
W8g:_Enum_ToString_m3248653065
PXc:__ZN18StreamedBinaryReadILb0EE21TransferSTLStyleArrayI13dynamic_arrayIcLj0EEEEvRT_17TransferMetaFlags
TQd:_ChannelServices__cctor_m2475086854
o7:__ZN14SafeBinaryReadD2Ev
vch:_SetPropertyUtility_SetStruct_TisFillMethod_t1167457570_m4164776730_gshared
PJh:_Enumerator_MoveNext_m3859993671_gshared
kXc:__ZN14SafeBinaryRead21TransferSTLStyleArrayI13dynamic_arrayIN20TextRenderingPrivate8FontImpl13CharacterInfoELj0EEEEvRT_17TransferMetaFlags
$zb:__ZN8Gradient8TransferI18StreamedBinaryReadILb1EEEEvRT_
mqf:_SequentialSearchPrimeGeneratorBase_IsPrimeAcceptable_m1127740833
fig:_Capture__ctor_m3103117740
Ofi:__Z113RuntimeInvoker_Void_t1185182177_RuntimeObject_Int64_t3736567304_RuntimeObject_Int64_t3736567304_Int64_t3736567304PFvvEPK10MethodInfoPvPS4_
C3e:_RangeInt_get_end_m4128831787_AdjustorThunk
B1j:__ZN6il2cpp6icalls8mscorlib6System4Type15MakeGenericTypeEP20Il2CppReflectionTypeP11Il2CppArray
mj:_SDL_PauseAudio
_rj:__ZL25UnresolvedVirtualCall_207P12Il2CppObject6Guid_tS1_PK10MethodInfo
ryg:_Hashtable_Clone_m3078962909
KWj:_il2cpp_class_from_type
uNj:__ZN6il2cpp2os4File11GetStdErrorEv
Mzj:_NativeHeaderAttribute__ctor_m457462113
U9d:__ZL77Convert_t2465617642_CustomAttributesCacheGenerator_Convert_ToSByte_m516918950P21CustomAttributesCache
U4:__ZN9ShaderLab19CommonPropertyNames16StaticInitializeEPv
E8a:__ZN13MemoryManager31DisallowAllocationsOnThisThreadEv
P$f:_Comparer_1__cctor_m2517796511_gshared
nu:__ZN7mecanim9animation18CreateAvatarOutputEPKNS0_14AvatarConstantEbbRNS_6memory9AllocatorE
Xxf:_TlsServerCertificateRequest_Update_m2763887540
wmj:_DelegatePInvokeWrapper_PCMSetPositionCallback_t1059417452
cnf:_Slider_set_maxValue_m2251404465
Nnf:_SpriteState_get_pressedSprite_m3868967445_AdjustorThunk
qQ:__ZN11AudioSource23VirtualRedirectTransferER24GenerateTypeTreeTransfer
BAc:__ZN7Texture11SetWrapModeE15TextureWrapMode
qmd:__ZN22BaseUnityConnectClient13ResumeSessionEv
FOa:__ZN14Texture2DArray23VirtualRedirectTransferER14SafeBinaryRead
RCf:_MissingMemberException__ctor_m1220732369
X0b:__ZNK6Camera21CalculateCanDoShadowsEv
_ui:__Z52RuntimeInvoker_Void_t1185182177_Int32U26_t1369213839PFvvEPK10MethodInfoPvPS4_
lAj:_GenerateManagedProxyAttribute_set_NativeType_m3203265247
K9j:__ZN6il2cpp2os6Thread12SetStackSizeEj
thf:_MaskableGraphic_RecalculateMasking_m183336762
MKi:_Array_InternalArray__get_Item_TisRuntimeObject_m3347010206_gshared
psi:__Z38RuntimeInvoker_LightmapsMode_t12202505PFvvEPK10MethodInfoPvPS4_
YId:_TypeBuilder_IsSubclassOf_m3458909121
Urk:dynCall_viffii
iBb:__Z18Transfer_BlittableI18StreamedBinaryReadILb0EELb1EhEvRK29SerializationCommandArgumentsR31RuntimeSerializationCommandInfo
Slg:_X509Certificate__cctor_m198658613
Hii:__Z43RuntimeInvoker_MethodAttributes_t2366443849PFvvEPK10MethodInfoPvPS4_
l2e:_PlayableHandle_Equals_m1666612586_AdjustorThunk
iia:__ZN6prcoreL27StretchGenericFloatBilinearI15TexFormatRFloatEEvPKNS_9InnerInfoE
yde:__ZL139ServicePointManager_t170559685_CustomAttributesCacheGenerator_ServicePointManager_t170559685____CheckCertificateRevocationList_PropertyInfoP21CustomAttributesCache
g9g:_Enum_ToObject_m1628250250
By:__Z24ProcessAnimationMixBeginP35AnimationPlayableEvaluationConstantP32AnimationPlayableEvaluationInputP33AnimationPlayableEvaluationOutput
tUi:_List_1_set_Item_m2057272351_gshared
YXa:__ZN19StreamedBinaryWriteILb0EE21TransferSTLStyleArrayI13dynamic_arrayI8Vector2fLj0EEEEvRT_17TransferMetaFlags
qSa:__Z14PadImageBorderR14ImageReferenceii
KPj:__ZN15dense_hashtableINSt3__24pairIK10KeyWrapperINS1_IPK10MethodInfoP11Il2CppClassEEEjEES9_17ReflectionMapHashIS8_EN14dense_hash_mapIS9_jSD_NS9_14EqualsComparerINS0_8equal_toIS8_EEEENS0_9allocatorISB_EEE9SelectKeyESI_SK_E4findERSA_
FIj:__ZN6il2cpp2vm13MetadataCache28GetFieldDefaultValueForFieldEPK9FieldInfo
Meh:_Array_IndexOf_TisUIVertex_t4057497605_m3336763564_gshared
O_h:__ZN21InterfaceFuncInvoker1I22OrderBlock_t1585977831iE6InvokeEjP11Il2CppClassP12Il2CppObjecti
dz:__ZN27AnimationLayerMixerPlayableD2Ev
xAd:_ColorBlock_Equals_m518833916_AdjustorThunk
DLh:_List_1_GetEnumerator_m2838255531_gshared
iSf:_InternalEnumerator_1_System_Collections_IEnumerator_get_Current_m1514266661_AdjustorThunk
pM:__ZN12AudioManager39HandlePendingAudioConfigurationCallbackEv
vma:__ZL43__ManagedRegistrationHelperFunction_Vector3Pv
lk:_emscripten_glIsFramebuffer
oSh:_RSAManaged_EncryptValue_m799827583
i7b:__ZN12_GLOBAL__N_16qAtan2Eff
bdi:__Z61RuntimeInvoker_UInt32_t2560061978_RuntimeObject_RuntimeObjectPFvvEPK10MethodInfoPvPS4_
Loh:_ThreadAbortException__ctor_m1955533141
pk:_JS_Sound_SetLoopPoints
Zik:__ZN6il2cpp2vm26MetadataAllocGenericMethodEv
Fbh:_Array_InternalArray__ICollection_Remove_TisUInt16_t2177724958_m1766181761_gshared
xTb:__ZN19ConstantBuffersGLES12RecordRenderEv
Vai:_UnityEvent_1__ctor_m3675246889_gshared
mOc:__ZN9JSONWrite8TransferI10RectOffsetEEvRT_PKc17TransferMetaFlags
hSa:__ZN4crnd12symbol_codec11decode_bitsEj
Sxi:__Z59RuntimeInvoker_Boolean_t97287965_KeyValuePair_2_t3842366416PFvvEPK10MethodInfoPvPS4_
fsf:_EncryptedPrivateKeyInfo__ctor_m3415744930
W$c:_cf2_doFlex
Odg:_AsnEncodedData__ctor_m3792312694
Jij:_AesManaged_GenerateIV_m1368817386
luc:__ZN21FixedBehaviourManagerD0Ev
BL:__ZN4FMOD6System12createReverbEPPNS_6ReverbE
uck:__ZN6il2cpp2vm6String21InitializeEmptyStringEP11Il2CppClass
Wy:__ZN7mecanim19ValueArrayBlendNodeILb1EEEvRKNS_10ValueArrayERKNS_14ValueArrayMaskERS1_RS4_RNS_16ValueArrayWeightEf
gPe:_CodeAccessPermission_GetHashCode_m880096813
G8a:__Z16MarkDependenciesR27GarbageCollectorThreadStatej
kIf:_AssemblyConfigurationAttribute__ctor_m3236176989
ryj:_ObjectPool_1_get_countInactive_m526975942_gshared
Poj:__ZL24UnresolvedVirtualCall_34P12Il2CppObjectPK10MethodInfo
yJe:_RemotingServices_DisposeIdentity_m2605848806
fha:__ZNK9Transform11GetPositionEv
NKg:_WriteDelegate_EndInvoke_m952736984
FTe:_Bounds_set_size_m4127623202
jEg:_GuidParser_Reset_m2640004655
dzc:__ZN31CanvasBatchIntermediateRenderer11AddSubBatchERK16DrawBuffersRangePK19ShaderPropertySheet
qvc:__ZN19RenderEventsContextC2Ei
cX:__Z6simd4fRKf
Hqe:__ZL67SceneManager_t2787271929_CustomAttributesCacheGenerator_sceneLoadedP21CustomAttributesCache
LCg:_GregorianCalendar_GetEra_m2369958449
Tk:_emscripten_glEnable
QTf:_InternalEnumerator_1_System_Collections_IEnumerator_get_Current_m2982675020_gshared
vva:__ZN10TagManager23VirtualRedirectTransferER14SafeBinaryRead
qCe:__ZL51RawImage_t3182918964_CustomAttributesCacheGeneratorP21CustomAttributesCache
ZWh:_Collection_1_System_Collections_IList_get_Item_m2931804586_gshared
eJe:_ObjRef_get_EnvoyInfo_m1782007847
Dea:__ZN14PlayableOutput26ClearInvalidSourcePlayableEv
T3b:__Z15InitLightMeshesv
XKd:_MonoCMethod_ToString_m3992577062
WXj:_RaycastHit_get_collider_m1464180279
eZd:__ZL76MarshalAsAttribute_t3522571978_CustomAttributesCacheGenerator_MarshalTypeRefP21CustomAttributesCache
LAj:__ZNK15dense_hashtableINSt3__24pairIK10KeyWrapperIPK22Il2CppGenericParameterEP11Il2CppClassEES6_N6il2cpp5utils11PointerHashIS4_EEN14dense_hash_mapIS6_S9_SE_NS6_14EqualsComparerINS0_8equal_toIS5_EEEENS0_9allocatorISA_EEE9SelectKeyESJ_SL_E10test_emptyEj
c2h:_ReadOnlyCollection_1_System_Collections_IList_Contains_m2904046095_gshared
RTa:__ZN15QualitySettings8TransferI19StreamedBinaryWriteILb0EEEEvRT_
yNc:__Z18Transfer_BlittableI9JSONWriteLb1E11ColorRGBA32EvRK29SerializationCommandArgumentsR31RuntimeSerializationCommandInfo
PDg:_SortKey_GetHashCode_m3547067087
Cgf:_LayoutUtility_U3CGetFlexibleHeightU3Em__7_m2991026842
twb:__Z18Transfer_BlittableI19StreamedBinaryWriteILb0EELb1E8Vector2fEvRK29SerializationCommandArgumentsR31RuntimeSerializationCommandInfo
y$c:_cf2_arrstack_init
VKi:_Array_InternalArray__get_Item_TisResourceCacheItem_t51292791_m1306056717_gshared
Wti:__Z157RuntimeInvoker_Void_t1185182177_RuntimeObject_RuntimeObject_RuntimeObject_RuntimeObject_RuntimeObject_RuntimeObject_RuntimeObject_RuntimeObject_RuntimeObjectPFvvEPK10MethodInfoPvPS4_
ztd:_EventSystem_get_pixelDragThreshold_m1103650852
Ffe:__ZL60StaticAccessorType_t186341701_CustomAttributesCacheGeneratorP21CustomAttributesCache
f2:__Z15CleanLogHandler7LogTypePKcz
cGf:_NumberFormatter_NumberToString_m2481532188
_hc:__ZN9ShaderLab19SerializedSubShader8TransferI19StreamedBinaryWriteILb0EEEEvRT_
nlf:_ScrollRect_InternalGetBounds_m599803667
R3f:_Enumerator_MoveNext_m76191888_gshared
sT:__ZN14AudioBehaviour15ThreadedCleanupEv
Zra:__ZN9Scripting5Unity11Collections8LowLevel6Unsafe41NativeContainerIsAtomicWriteOnlyAttribute9InitProxyEv
WEb:__ZN6Camera17RemoveImageFilterERK11ImageFilter
Fmb:__ZNSt3__218__insertion_sort_3IR25ValueParameterArraySorterPN20GpuProgramParameters14ValueParameterEEEvT0_S6_T_
qpe:__ZL90Display_t1387065949_CustomAttributesCacheGenerator_Display_GetRenderingExtImpl_m2069813991P21CustomAttributesCache
mde:__ZL67EditorBrowsableAttribute_t1475454531_CustomAttributesCacheGeneratorP21CustomAttributesCache
Cxg:_Comparer__cctor_m3311686689
wfd:__ZZN2UI11CanvasGroup15InitializeClassEvEN38FunctorImpl_117kTransformParentChanged4CallEPviR11MessageData
Wxd:_UIBehaviour_OnDidApplyAnimationProperties_m2143584361
i2f:_Enumerator_VerifyState_m1203790900_gshared
Iqh:_TimeZone__ctor_m1831364098
NRj:__ZNK10KeyWrapperINSt3__24pairIPK9EventInfoP11Il2CppClassEEE14EqualsComparerINS0_8equal_toIS7_EEEclERKS8_SE_
sTf:_InternalEnumerator_1_get_Current_m3500427238_AdjustorThunk
Ggd:__ZN2UI26InitializeDeviceForOverlayEi
Dpf:_Kernel_PlusEq_m136676638
B3:__Z27LogRepeatingStringWithFlagsRKN4core12basic_stringIcNS_20StringStorageDefaultIcEEEE15LogMessageFlagsi
Cuh:_UInt64_System_IConvertible_ToSingle_m925613075
h9g:_Enum_IsDefined_m1442314461
koh:_Thread__cctor_m817723615
Dmj:_AudioExtensionManager_RegisterBuiltinDefinitions_m2742744104
iw:__ZN17AnimationPlayable28ComputeNeedsBindingRebuildedEv
nv:__ZN17AnimationPlayable23RequestAllocateBindingsEv
A6h:_Predicate_1_EndInvoke_m3884403745_gshared
ejh:_DecoderReplacementFallbackBuffer_Fallback_m1261056214
zYb:__ZNSt3__227__insertion_sort_incompleteIRPFbP10GUIElementS2_EPS2_EEbT0_S7_T_
ZDf:_Binder_get_DefaultBinder_m950908649
Myg:_StreamReader__ctor_m1616861391
c5c:_tt_cmap6_char_index
kmd:__ZN18UnityConnectClient33OnPlayerSessionStateChangedStaticEPS_jyy
kI:__ZN25RuntimeAnimatorController12CleanupClassEv
GNg:_RSA_ToXmlString_m2922661427
l_:__ZNK11UnityEngine15CloudWebService23WebRequestUploadHandler11GetProgressEv
OOb:__ZN7ApiGLES4LoadE16GfxDeviceLevelGL
kue:__ZL61GUIContent_t3050628031_CustomAttributesCacheGenerator_m_ImageP21CustomAttributesCache
bSa:__ZN4crnd12crn_unpacker22decode_color_endpointsEv
j5j:__ZN15dense_hashtableI10KeyWrapperIP18Il2CppGenericClassES3_N6il2cpp8metadata22Il2CppGenericClassHashEN14dense_hash_setIS3_S6_NS3_14EqualsComparerINS5_25Il2CppGenericClassCompareEEENSt3__29allocatorIS3_EEE8IdentityESA_SD_E15insert_noresizeERKS3_
Uwc:__ZZL31RegisterOtherRendererPropertiesR22GenericPropertyBindingEN30Wrapper_RendererReceiveShadows13GetFloatValueEPv
pua:__ZN8Vector4f8TransferI18StreamedBinaryReadILb0EEEEvRT_
bah:_Array_InternalArray__ICollection_Contains_TisSlot_t384495010_m688761886_gshared
GRa:__ZN17SharedTextureDataC2E10MemLabelIdii13TextureFormatjiibb
Ivi:__Z114RuntimeInvoker_RuntimeObject_RuntimeObject_Int32_t2950945753_Int32_t2950945753_Int32_t2950945753_Int32_t2950945753PFvvEPK10MethodInfoPvPS4_
ZHb:__ZN8Material11SetPassFastEPN9ShaderLab4PassER17ShaderPassContextP6Shaderib
Vld:__ZN11UnityEngine7Connect20BasePersistentValues10SaveValuesER9JSONWrite
zUh:_Collection_1_IsFixedSize_m3748602684_gshared
g3g:_DateTime_System_IConvertible_ToDouble_m2116720007
chc:__ZN15SerializeTraitsINSt3__24pairIN4core12basic_stringIcNS2_20StringStorageDefaultIcEEEE4PPtrI7TextureEEEE8TransferI24GenerateTypeTreeTransferEEvRSA_RT_
vWe:_Display_GetSystemExtImpl_m2808197389
zph:_WaitHandle_WaitOne_m2577152516
VOe:_SByte_Parse_m2899090751
_4d:__ZL56ObjectManager_t1653064325_CustomAttributesCacheGeneratorP21CustomAttributesCache
Aoa:__ZN9Scripting11UnityEngine20ManagedStreamHelpers12CleanupProxyEv
ida:__Z18GetITerrainManagerv
DGf:_NumberFormatter_AppendExponent_m1258666517
hPf:_ArrayReadOnlyList_1_GetEnumerator_m1835926958_gshared
DBc:__Z14ScaleCurveTimeR17AnimationCurveTplIfEf
aca:__ZN20GlobalCachingManager7DisposeEv
CZb:__Z12SetupLODFadeR9GfxDeviceR17ShaderPassContextf
dOa:__ZNK14PlayableOutput7GetTypeEv
cPc:__ZN9JSONWrite8TransferI13dynamic_arrayI4AABBLj0EEEEvRT_PKc17TransferMetaFlags
NYd:__ZL69Type_t_CustomAttributesCacheGenerator_Type_GetConstructors_m576905011P21CustomAttributesCache
G3b:__ZL24CollectForwardObjectsJobP27CollectForwardObjectsHeader
ZHj:__ZNK15dense_hashtableINSt3__24pairIK10KeyWrapperIPK11Il2CppClassEPKcEES6_N6il2cpp5utils11PointerHashIS3_EEN14dense_hash_mapIS6_S9_SE_NS6_14EqualsComparerINS0_8equal_toIS5_EEEENS0_9allocatorISA_EEE9SelectKeyESJ_SL_E12test_deletedERK24dense_hashtable_iteratorISA_S6_SE_SN_SJ_SL_E
cRc:__ZN8JSONRead21TransferSTLStyleArrayI13dynamic_arrayIdLj0EEEEvRT_17TransferMetaFlags
$5b:__Z13IsNodeVisibleRK9SceneNodeRK4AABBRK22SceneCullingParameters
nfh:_Array_InternalArray__IndexOf_TisLabelFixup_t858502054_m1491765395_gshared
$fi:__Z44RuntimeInvoker_RuntimeTypeHandle_t3027515415PFvvEPK10MethodInfoPvPS4_
R_f:__ZN21InterfaceFuncInvoker1IibE6InvokeEjP11Il2CppClassP12Il2CppObjectb
rJd:__ZN30GenericInterfaceActionInvoker1IP20Delegate_t1188392813E6InvokeEPK10MethodInfoP12Il2CppObjectS1_
iNh:_SortKeyBuffer_AppendCJKExtension_m2591091991
ffd:__Z57RectTransformUtility_CUSTOM_INTERNAL_CALL_PixelAdjustRectP12Il2CppObjectS0_R5RectTIfE
Smh:_UTF8Encoding_GetByteCount_m4153686982
bBk:_emscripten_glStencilMask__wrapper
Dei:__Z49RuntimeInvoker_Void_t1185182177_Double_t594665363PFvvEPK10MethodInfoPvPS4_
lFj:__ZN15dense_hashtableI10KeyWrapperIPK19Il2CppGenericMethodES4_N6il2cpp8metadata23Il2CppGenericMethodHashEN14dense_hash_setIS4_S7_NS4_14EqualsComparerINS6_26Il2CppGenericMethodCompareEEENSt3__29allocatorIS4_EEE8IdentityESB_SE_EC2ERKSH_j
eAa:__ZN15RenderNodeQueue7CleanupEv
rge:__ZL66RuntimePlatform_t4159857903_CustomAttributesCacheGenerator_XBOX360P21CustomAttributesCache
Gdb:__ZNK17ArchiveFileSystem8PositionERK13FileEntryData
gVc:__ZN16NovodexAllocator8allocateEjPKcS1_i
a3b:__Z17PrepareShadowMapsRK11CullResultsRK11ActiveLightRK10MinMaxAABB
o5i:_DeriveBytes_DeriveIV_m973925711
uGg:_Int32_System_IConvertible_ToSByte_m3133688512
Urd:__ZN9Scripting11UnityEngine12Experimental23SubsystemDescriptorBase9InitProxyEv
d2h:_ReadOnlyCollection_1_System_Collections_IList_IndexOf_m848971554_gshared
Nnj:_AudioSampleProvider_get_id_m2692334523
C3b:__ZN9ShaderLab10GrabPassesD2Ev
GPa:__ZN14Texture2DArray13UploadTextureEv
dhf:_MaskableGraphic_UpdateCull_m2805101913
u4c:_tt_cmap14_done
G6a:__ZN18AwakeFromLoadQueue25RegisterObjectInstanceIDsEv
fbf:_InputField_UpdateLabel_m1837760870
v7f:_Transform_1_EndInvoke_m332304766_gshared
iz:__ZNK27AnimationLayerMixerPlayable11DerivesFromE17ScriptingClassPtr
rYc:__ZN20TextRenderingPrivate19NativeTextGenerator15InsertCharacterEiPj
ohi:__Z77RuntimeInvoker_Void_t1185182177_RuntimeObject_SByte_t1669577662_RuntimeObjectPFvvEPK10MethodInfoPvPS4_
Whi:__Z81RuntimeInvoker_Void_t1185182177_RuntimeObject_SByte_t1669577662_SByte_t1669577662PFvvEPK10MethodInfoPvPS4_
TDf:_MonoType_get_attributes_m1332507727
Agj:_GUIContent_ClearStaticCache_m1205116045
URi:_List_1_System_Collections_IList_get_IsFixedSize_m203251153_gshared
rSg:_WindowsIdentity_Dispose_m3466258450
Rx:__ZN17AnimationPlayableD0Ev
lxb:__Z18Transfer_BlittableI19StreamedBinaryWriteILb0EELb0EyEvRK29SerializationCommandArgumentsR31RuntimeSerializationCommandInfo
zLe:_BinaryCommon__cctor_m2978407547
n0:__GLOBAL__sub_I_Runtime_Burst_0_cpp
F1b:__Z19GetReflectionSampleRK23ReflectionProbesContextRK22ActiveReflectionProbesRK27PerObjectLightCullingOutputRK10RenderNodejP16ReflectionSample
Fwc:__ZN28ReflectionProbeAnchorManager23HandleAnchorDestructionEPK15TransformAccessj
OZd:__ZL47ASN1_t2114160832_CustomAttributesCacheGeneratorP21CustomAttributesCache
Tod:__ZL65__ManagedRegistrationHelperFunction_UnityWebRequestAsyncOperationPv
sbi:_IndexedSet_1__ctor_m2250384602_gshared
lBh:_DefaultComparer__ctor_m1306123661_gshared
eth:_UInt16_TryParse_m4139137016
pEc:__Z41MonoBehaviour_Set_Custom_PropUseGUILayoutP12Il2CppObjecth
z9j:__ZN6il2cpp5utils13dynamic_arrayIPNS_2os6ThreadELj4EE9push_backEv
qna:__ZN9Scripting11UnityEngine15ResourceRequest12CleanupProxyEv
h9j:__ZN6il2cpp2gc16GarbageCollector9FreeFixedEPv
Mjh:_Encoding__ctor_m2997749867
b_e:_ManagedStreamHelpers_ManagedStreamSeek_m3158782053
idj:_ExpressionAssertion_Compile_m2166597834
Enb:__ZN16ScriptingManagerD0Ev
ETg:_Single_System_IConvertible_ToSByte_m1208276900_AdjustorThunk
ldk:__ZN6il2cpp6icalls8mscorlib6System7Convert24InternalFromBase64StringEP12Il2CppStringb
BCh:_EqualityComparer_1__ctor_m2241711498_gshared
n3d:__ZL58ChannelServices_t3942013484_CustomAttributesCacheGeneratorP21CustomAttributesCache
x3j:__ZN30dense_hashtable_const_iteratorINSt3__24pairIK10KeyWrapperINS1_IPKcS4_EEEiEES6_24NamespaceAndNamePairHashN14dense_hash_mapIS6_iS9_NS6_14EqualsComparerI26NamespaceAndNamePairEqualsEENS0_9allocatorIS8_EEE9SelectKeyESD_SF_EppEv
RGc:__Z44Register_UnityEngine_Component_get_transformv
Pge:__ZL81Camera_t4157153871_CustomAttributesCacheGenerator_Camera_GetAllCameras_m668492922P21CustomAttributesCache
RE:__ZN12_GLOBAL__N_120ProcessPlayableGraphERN8Animator11AnimatorJobER35AnimationPlayableEvaluationConstantR32AnimationPlayableEvaluationInputR33AnimationPlayableEvaluationOutputPFvS4_R17AnimationPlayableEPFvS4_S6_S8_EPFvS8_S4_S6_S8_fESE_MS9_FvPS3_PS5_PS7_E
rwj:_CanvasRenderer_get_absoluteDepth_m2703237819
YDg:_TextInfo_ToLower_m2744057472
RUb:__ZN17ArchiveFileSystem12MountArchiveEPKcS1_
UDj:__ZN14dense_hash_mapI10KeyWrapperIP9FieldInfoEiN6il2cpp5utils11PointerHashIS1_EENS3_14EqualsComparerINSt3__28equal_toIS2_EEEENS9_9allocatorINS9_4pairIKS3_iEEEEE15set_deleted_keyERSF_
wEh:_EqualityComparer_1_System_Collections_IEqualityComparer_Equals_m3977314386_gshared
qNc:__Z18Transfer_BlittableI9JSONWriteLb1E8Vector4fEvRK29SerializationCommandArgumentsR31RuntimeSerializationCommandInfo
S5:__Z11RequireTypePKcS0_S0_
cAg:_CCGregorianCalendar_year_from_fixed_m463929682
cbd:__ZN2UI13CanvasManagerD0Ev
dyf:_TlsServerHello_Update_m3935081401
tSe:_Debug_get_unityLogger_m2239795986
HXh:_ReadOnlyCollection_1_System_Collections_IEnumerable_GetEnumerator_m2123446296_gshared
trf:_MD2Managed_Initialize_m2341076836
a2h:_ReadOnlyCollection_1_System_Collections_IList_Add_m4240023232_gshared
bjb:__ZN9GfxDevice15ImmediateVertexEfff
Oje:__ZL56PreLateUpdate_t3194249939_CustomAttributesCacheGeneratorP21CustomAttributesCache
IVa:__ZNK16LightmapSettings22GetTypeVirtualInternalEv
YEa:__ZN16GraphicsSettings13AwakeFromLoadE17AwakeFromLoadMode
Wp:__ZN6Object13AwakeFromLoadE17AwakeFromLoadMode
iLb:__ZN13GfxDeviceGLES15SetStencilStateEPK18DeviceStencilStatei
YKg:__ZN28GenericInterfaceFuncInvoker3IiP22ByteU5BU5D_t4116647657iiE6InvokeEPK10MethodInfoP12Il2CppObjectS1_ii
Zrg:_Buffer_BlockCopyInternal_m418318694
snk:_cycle
Boe:__ZL138SupportedRenderingFeatures_t353898663_CustomAttributesCacheGenerator_SupportedRenderingFeatures_get_supportedLightmapBakeTypes_m1596512019P21CustomAttributesCache
bdk:__ZN6il2cpp2vm8Profiler7GCEventE13Il2CppGCEvent
ogi:__Z76RuntimeInvoker_Void_t1185182177_RuntimeObject_RuntimeFieldHandle_t1871169219PFvvEPK10MethodInfoPvPS4_
F5i:_PKCS12_Finalize_m507756088
Cd:_emscripten_glUniform1iv
Nlb:__ZN13ComputeShader14SetBufferParamEjRKN9ShaderLab16FastPropertyNameE15ComputeBufferIDb
HEh:_EqualityComparer_1_get_Default_m1095255266_gshared
Ufb:__ZN16MemoryFileSystemD2Ev
Fgi:__Z150RuntimeInvoker_Int32_t2950945753_RuntimeObject_Int32_t2950945753_Int32_t2950945753_RuntimeObject_Int32_t2950945753_Int32_t2950945753_Int32_t2950945753PFvvEPK10MethodInfoPvPS4_
_qg:_BitConverter_DoubleToInt64Bits_m3574395137
d_g:_DateTime_Parse_m3729096069
UPi:_List_1_System_Collections_IList_Add_m1540114404_gshared
VPf:_InternalEnumerator_1_System_Collections_IEnumerator_Reset_m81420524_AdjustorThunk
mFa:__ZN16GraphicsSettings27SetLightsUseLinearIntensityEb
mFc:__Z37Register_UnityEngine_Camera_get_depthv
Pwc:__ZZN8Renderer15InitializeClassEvEN32FunctorImpl_146kCullSceneChanged4CallEPviR11MessageData
RAf:_StringReader_Read_m3322058819
gRd:_CrossAppDomainChannel_get_ChannelPriority_m3418073750
KBh:_EqualityComparer_1__ctor_m1860346363_gshared
$df:_Selectable_StartColorTween_m3618813981
Ysd:_BaseInputModule_HandlePointerExitAndEnter_m1705532066
gJd:_EventInfo__ctor_m3033129999
Ooj:__ZL24UnresolvedVirtualCall_33P12Il2CppObjectiS0_S0_PK10MethodInfo
rpc:__ZN15ApplicationInfo16GetInstallerNameEv
wcc:__Z23ConvertIntegerToTypePtrItEbPvR14SafeBinaryRead
e7g:_Delegate_CombineImpl_m3572135514
Sxc:__Z13RegisterClassI15EditorExtensionEvPKc
dGf:_NumberFormatter_IntegerToString_m1679294587
SOg:_SHA256Managed_AddLength_m1060552216
n$h:_ReadOnlyCollection_1_System_Collections_IList_RemoveAt_m422909114_gshared
DF:__ZN7mecanim5human29HumanGetGoalOrientationOffsetENS0_4GoalE
Td:_emscripten_glStencilFunc
noj:__ZL23UnresolvedVirtualCall_6P12Il2CppObjectiPK10MethodInfo
gpj:__ZL24UnresolvedVirtualCall_53P12Il2CppObjectPK10MethodInfo
Dbf:_InputField_get_isFocused_m709836844
_d:_glGetActiveUniformBlockName
oye:__ZL90PointerEventData_t3807901092_CustomAttributesCacheGenerator_U3CpointerIdU3Ek__BackingFieldP21CustomAttributesCache
kei:__Z67RuntimeInvoker_Int32_t2950945753_RuntimeObject_Int32U26_t1369213839PFvvEPK10MethodInfoPvPS4_
Ddj:_Parser_IsIgnoreCase_m2210120858
vIj:__ZN6il2cpp2vm13MetadataCache28GetGenericContainerFromIndexEi
u8a:__ZN27UnloadUnusedAssetsOperationD0Ev
mN:__ZN4FMOD7Channel20set3DConeOrientationEP11FMOD_VECTOR
mn:FUNCTION_TABLE_iiifii
KJf:_AssemblyBuilder_not_supported_m1735277432
hYf:_InternalEnumerator_1_MoveNext_m1344185775_AdjustorThunk
$6j:__ZN6il2cpp2vm12GenericClass11SetupEventsEP11Il2CppClass
kZc:_ft_open_face_internal
S4c:_tt_cmap12_get_info
H2j:__ZN6il2cpp2vm15ReboxIReferenceEP14Il2CppIUnknownP11Il2CppClass
FVh:_Collection_1_Contains_m1707523067_gshared
jJh:_Enumerator__ctor_m2029608698_AdjustorThunk
Eyj:__ZN6il2cpp6icalls8mscorlib6System7Decimal14decimalCompareEP19il2cpp_decimal_reprS5_
Nwh:_Dictionary_2_OnDeserialization_m4209543208_gshared
Ldk:__ZThn4_N6il2cpp2vm13CachedCCWBaseINS0_13ManagedObjectEE7ReleaseEv
zNg:_RNGCryptoServiceProvider_GetNonZeroBytes_m1918423726
Ggb:__ZNK16MemoryFileSystem6ExistsERK13FileEntryData
Vpi:__Z100RuntimeInvoker_Void_t1185182177_RuntimeObject_Int32_t2950945753_Int32_t2950945753_UInt16_t2177724958PFvvEPK10MethodInfoPvPS4_
gyk:_glCopyTexImage2D__wrapper
T8d:__ZL62ArithmeticException_t4283546778_CustomAttributesCacheGeneratorP21CustomAttributesCache
iIb:__Z18ClearByDrawingQuad13GfxClearFlagsRK10ColorRGBAffjR17ShaderPassContext
Pha:__ZN6prcoreL17RemapGenericFloatI14TexFormatRHalf15TexFormatRFloatEEvPKNS_9InnerInfoE
BGf:_NumberFormatter_FormatExponential_m2139559983
Yji:__Z155RuntimeInvoker_Void_t1185182177_RuntimeObject_SByte_t1669577662_SByte_t1669577662_Int64U26_t200113976_ObjectU26_t2146539884_SerializationInfoU26_t419328957PFvvEPK10MethodInfoPvPS4_
wea:__ZN15DirectorManager21RebuildStageCallbacksEv
AIb:__ZN19RuntimeSceneManager9LoadSceneERKN4core12basic_stringIcNS0_20StringStorageDefaultIcEEEES6_S6_RK9UnityGUIDiNS_11LoadingModeE
vSe:_Application_Internal_ApplicationQuit_m2936209313
SNb:__ZN7ApiGLES10DrawArraysE16GfxPrimitiveTypejjj
sQf:_InternalEnumerator_1_MoveNext_m154749640_gshared
gR:__ZN10SampleClip13LoadBaseSoundEv
Jmg:_SmallXmlParser_SkipWhitespaces_m4243606597
YAg:_CompareInfo_IndexOf_m2631915198
orb:__ZN14SafeBinaryRead21TransferSTLStyleArrayI13dynamic_arrayI10Matrix4x4fLj0EEEEvRT_17TransferMetaFlags
lUd:_MethodCall__ctor_m3669645
Bsg:_Byte_CompareTo_m4285128861
pud:_TriggerEvent__ctor_m87299207
koi:__Z48RuntimeInvoker_ExchangeAlgorithmType_t1320888206PFvvEPK10MethodInfoPvPS4_
Zrd:__ZN9Scripting11UnityEngine12Experimental27Internal_SubsystemInstances12CleanupProxyEv
CU:__Z57AudioSource_CUSTOM_INTERNAL_CALL_ClearExtensionPropertiesP12Il2CppObjectRK12PropertyName
U6j:__ZN15dense_hashtableINSt3__24pairIK10KeyWrapperIP12Il2CppObjectEN6il2cpp2gc9CachedCCWEEES5_NS7_5utils11PointerHashIS3_EEN14dense_hash_mapIS5_S9_SD_NS5_14EqualsComparerINS0_8equal_toIS4_EEEENS0_9allocatorISA_EEE9SelectKeyESI_SK_E15insert_noresizeERKSA_
Itf:_CertificateValidationCallback2__ctor_m1685875113
LBh:_EqualityComparer_1__cctor_m3962593840_gshared
$Na:__ZN22DeviceMVPMatricesStateC2ER9GfxDevice
_zf:_SslClientStream_Finalize_m1251363641
kZb:__ZNK6Camera32ResolveLastTargetToCurrentTargetEv
PZe:_Logger_set_logEnabled_m1180597166
Vwg:_Comparer_Compare_m3984347512
IUj:__ZN6il2cpp2vm10Reflection12HasAttributeEP9FieldInfoP11Il2CppClass
rpa:__ZN9Scripting11UnityEngine12Experimental9Rendering11CullResults9InitProxyEv
ec:invoke_viiifi
fsc:__Z13RegisterClassI6SpriteEvPKc
GMd:_MonoProperty_GetCustomAttributes_m3619796755
LMj:__ZNSt3__214__split_bufferIP11Il2CppClassRNS_9allocatorIS2_EEEC2EjjS5_
$Ge:_MethodDictionary_System_Collections_IEnumerable_GetEnumerator_m4169036899
Omg:__ZN23InterfaceActionInvoker2IP8String_tP12Il2CppObjectE6InvokeEjP11Il2CppClassS3_S1_S3_
z2h:_ReadOnlyCollection_1_System_Collections_Generic_IListU3CTU3E_get_Item_m3666607533_gshared
gNg:_RIPEMD160Managed_JJJ_m4161373884
UQd:_CrossContextChannel__ctor_m3755842292
Rzh:_DefaultComparer_Equals_m3257444875_gshared
hf:_JS_Sound_SetPosition
TIa:__ZN19RenderBufferManager13GetTempBufferEii17DepthBufferFormat19RenderTextureFormatj22RenderTextureReadWrite14VRTextureUsagei23RenderTextureMemoryless
gIj:__ZL13GetSharedInstPK17Il2CppGenericInst
Sye:__ZL98PointerEventData_t3807901092_CustomAttributesCacheGenerator_PointerEventData_get_delta_m1062010255P21CustomAttributesCache
_Da:__Z27ConvertSubMeshesToTrianglesIjEvR13dynamic_arrayI7SubMeshLj0EERS0_IhLj0EE
Kjd:__ZN22BaseUnityConnectClient17SaveSessionValuesEv
vRf:_InternalEnumerator_1_get_Current_m476140818_gshared
xRi:_List_1_Sort_m4240158523_gshared
Iaf:_WaitForEndOfFrame__ctor_m1381314187
J3b:__Z24SetupActiveLightsContextR21ActiveLightingContextRK12ActiveLightsRK11CullResultsP14ShadowMapCacheRK10MinMaxAABB
gyd:_AnimationTriggers_set_disabledTrigger_m933056574
qlc:__Z38Sprite_CUSTOM_INTERNAL_get_textureRectP12Il2CppObjectP5RectTIfE
uTj:__ZNK15dense_hashtableINSt3__24pairIK10KeyWrapperIPK22Il2CppGenericParameterEPK24MonoGenericParameterInfoEES6_N6il2cpp5utils11PointerHashIS4_EEN14dense_hash_mapIS6_SA_SF_NS6_14EqualsComparerINS0_8equal_toIS5_EEEENS0_9allocatorISB_EEE9SelectKeyESK_SM_E3endEv
mOi:_List_1_Add_m238442097_gshared
Bnc:__ZN9TextAsset7SetTextERKN4core12basic_stringIcNS0_20StringStorageDefaultIcEEEE
Sya:__ZN6Camera8TransferI24GenerateTypeTreeTransferEEvRT_
vsj:__ZL25UnresolvedVirtualCall_230P12Il2CppObjectPK10MethodInfo
Ga:invoke_iiiiiiif
Ea:invoke_iiiiiiii
BFi:_Array_InternalArray__set_Item_TisByte_t1134296376_m3104140039_gshared
KEc:__Z56Register_UnityEngine_MonoBehaviour_IsObjectMonoBehaviourv
P4e:_Rect_ToString_m447614148
S5i:_PKCS12_GetBytes_m415958948
Uvf:_Context_get_HandshakeState_m2425796590
xXb:__ZN8Renderer17PendingAddToSceneEv
BVh:_Collection_1_System_Collections_IList_set_Item_m2625856224_gshared
cCk:b122
nCk:b125
jCk:b124
oCk:b126
amc:__Z52Register_UnityEngine_RectTransform_INTERNAL_get_rectv
p$e:_Mesh_SetSizedArrayForChannel_m2565120436
C5:__Z21PostprocessStacktracePKcRN4core12basic_stringIcNS1_20StringStorageDefaultIcEEEE
c_e:_ManagedStreamHelpers_ManagedStreamLength_m2930872960
Mlc:__Z43RectTransform_CUSTOM_INTERNAL_get_anchorMinP12Il2CppObjectP13Vector2fIcall
Koc:__Z47Register_UnityEngine_Camera_get_allCamerasCountv
Izd:___clang_call_terminate
Ojd:__ZN22BaseUnityConnectClient20StartEventDispatcherEv
VAc:__ZNSt3__26vectorIj13stl_allocatorIjL18MemLabelIdentifier1ELi16EEE6assignIPKtEENS_9enable_ifIXaasr21__is_forward_iteratorIT_EE5valuesr16is_constructibleIjNS_15iterator_traitsIS9_E9referenceEEE5valueEvE4typeES9_S9_
gE:__ZN7mecanim9animation16EvaluateAvatarIKEPKNS0_14AvatarConstantEPKNS0_11AvatarInputEPNS0_12AvatarOutputEPNS0_12AvatarMemoryEPNS0_15AvatarWorkspaceEb
uA:__ZN26AnimatorControllerPlayable10GetIntegerEiRi
Pbc:__Z29StdTemplateConversionFunctionIsiEbPvR14SafeBinaryRead
JWb:__ZN12InputManager13InputEndFrameEv
YLj:__ZNSt3__26__treeIP11Il2CppClassNS_4lessIS2_EENS_9allocatorIS2_EEE25__emplace_unique_key_argsIS2_JRKS2_EEENS_4pairINS_15__tree_iteratorIS2_PNS_11__tree_nodeIS2_PvEEiEEbEERKT_DpOT0_
E$e:_Object_get_name_m4211327027
pYj:__ZN6il2cpp2vm6Thread5SetupEP12Il2CppThread
iak:__ZNSt3__26vectorIN6il2cpp2os10ThreadImpl10APCRequestENS_9allocatorIS4_EEE21__push_back_slow_pathIS4_EEvOT_
YYh:_ReadOnlyCollection_1_System_Collections_IList_get_IsReadOnly_m1248651675_gshared
P2f:_Enumerator_System_Collections_IDictionaryEnumerator_get_Key_m2500634048_gshared
LDg:_SortKey_Compare_m1705990888
Szj:_NativeNameAttribute__ctor_m3296876808
Euj:_TextGenerator_t3211863866_marshal_pinvoke_back
xok:___munmap
$f:_localtime_r
YXb:__ZN22RenderingCommandBuffer13GetAndCheckRTE24BuiltinRenderTextureTypeRKN9ShaderLab16FastPropertyNameEPKcPP13RenderTexture
RPd:_InterfaceTypeAttribute__ctor_m3307583035
rUf:_InternalEnumerator_1_System_Collections_IEnumerator_Reset_m3619766341_AdjustorThunk
d1:__Z19free_alloc_internalPv10MemLabelId
e4d:__ZL56ReturnMessage_t1376985608_CustomAttributesCacheGeneratorP21CustomAttributesCache
ot:__ZN9Scripting11UnityEngine10Animations18PositionConstraint9InitProxyEv
cg:_strftime
iJa:__ZN7Texture33SetStoredColorSpaceNoDirtyNoApplyE17TextureColorSpace
LOd:_ResourceSet__ctor_m3618395942
P5g:_Decimal_System_IConvertible_ToDouble_m3125524987_AdjustorThunk
paa:__ZN12FileAccessorD2Ev
Vya:__ZN10ColorRGBAf8TransferI18StreamedBinaryReadILb0EEEEvRT_
nEa:__ZN14VertexDataInfoC2Ev
T8j:__ZN6il2cpp2gc16GarbageCollector14CollectALittleEv
$oe:__ZL87Sprite_t280657092_CustomAttributesCacheGenerator_Sprite_INTERNAL_get_border_m3728071101P21CustomAttributesCache
KHc:__ZN9Scripting11UnityEngine11SliderState12CleanupProxyEv
vzc:__ZNK9HPlayable15GetPlayableTypeEv
eBi:__Z117RuntimeInvoker_Void_t1185182177_CustomAttributeTypedArgumentU5BU5DU26_t2503877664_Int32_t2950945753_Int32_t2950945753PFvvEPK10MethodInfoPvPS4_
yzb:__ZL17Transfer_GUIStyleI18StreamedBinaryReadILb1EELb1EEvRK29SerializationCommandArgumentsR31RuntimeSerializationCommandInfo
qif:_RectMask2D_IsRaycastLocationValid_m1652308696
C3:__ZNSt3__26__treeINS_12__value_typeIPKciEENS_19__map_value_compareIS3_S4_15compare_tstringIS3_ELb1EEENS_9allocatorIS4_EEE21__emplace_unique_implIJNS_4pairIPciEEEEENSD_INS_15__tree_iteratorIS4_PNS_11__tree_nodeIS4_PvEEiEEbEEDpOT_
rMj:__ZN6il2cpp6icalls8mscorlib6SystemL9IsPrivateEPK12PropertyInfo
$5i:_X501_ToString_m1148552872
E5e:_RectTransform_add_reapplyDrivenProperties_m1374850920
Q4:__ZN9shadertag10InitializeEv
Jxi:__Z69RuntimeInvoker_Void_t1185182177_Int32_t2950945753_Color32_t2600501292PFvvEPK10MethodInfoPvPS4_
XVc:__GLOBAL__sub_I_Modules_Terrain_Public_1_cpp
OTa:__ZN15QualitySettings14QualitySetting8TransferI24GenerateTypeTreeTransferEEvRT_
Pjk:__ZN6il2cpp5utils6Memory11AlignedFreeEPv
esj:__ZL25UnresolvedVirtualCall_213P12Il2CppObjectS0_aPK10MethodInfo
Auf:_Context_get_ClientWriteKey_m3174706656
Sxe:__ZL77ExecuteEvents_t3484638744_CustomAttributesCacheGenerator_U3CU3Ef__mgU24cache7P21CustomAttributesCache
Ibf:_InputField_get_textComponent_m948764648
EGc:__Z44Register_UnityEngine_Object_DestroyImmediatev
nUc:__ZL34CleanupModule_PerformanceReportingv
u1g:_Convert_ToSingle_m835189399
Kkc:__ZN22BlockMemoryCacheWriter14LockCacheBlockEjPPhS1_
tJc:__ZNSt3__218__insertion_sort_3IRPFbPKN5IMGUI9GUIWindowES4_EPPS2_EEvT0_SA_T_
KPe:_CryptographicUnexpectedOperationException__ctor_m69881930
z6d:__ZL73TripleDESCryptoServiceProvider_t3595206342_CustomAttributesCacheGeneratorP21CustomAttributesCache
EZi:_Collection_1_SetItem_m1218178236_gshared
_uh:_UInt64_ToString_m2177233542
Ks:__ZN9Scripting11UnityEngine21StateMachineBehaviour9InitProxyEv
bRc:__Z22TransferField_NonArrayI8JSONRead27Converter_SimpleNativeClassI8GUIStyleEEvRK23StaticTransferFieldInfoR31RuntimeSerializationCommandInfoRT0_
$pa:__ZN9Scripting11UnityEngine26ExcludeFromPresetAttribute9InitProxyEv
Jg:_llvm_eh_typeid_for
Mte:__ZL79Event_t2956885303_CustomAttributesCacheGenerator_Event_get_modifiers_m995073384P21CustomAttributesCache
zKe:_RemotingServices_FindInterfaceMethod_m2125212568
HB:__ZNK23AnimationPlayableOutput7GetTypeEv
jrj:__ZL25UnresolvedVirtualCall_164P12Il2CppObject22Navigation_t3049316579S1_PK10MethodInfo
uAf:_StreamWriter__cctor_m1229272693
S8g:_Enum_System_IConvertible_ToSByte_m779472798
brh:_Type_get_IsInterface_m3284996719
oRf:_InternalEnumerator_1_MoveNext_m1543390728_gshared
PBb:__Z18Transfer_BlittableI18StreamedBinaryReadILb0EELb1E8Vector4fEvRK29SerializationCommandArgumentsR31RuntimeSerializationCommandInfo
dqb:__ZNSt3__26vectorI17ScriptingFieldPtr13stl_allocatorIS1_L18MemLabelIdentifier1ELi16EEE21__push_back_slow_pathIRKS1_EEvOT_
MDg:_SortKey_get_OriginalString_m1428586816
Nxi:__Z51RuntimeInvoker_Void_t1185182177_Vector4_t3319028937PFvvEPK10MethodInfoPvPS4_
oXc:__ZN14SafeBinaryRead21TransferSTLStyleArrayI13dynamic_arrayIN4core17string_with_labelILi35EEELj0EEEEvRT_17TransferMetaFlags
Pqj:__ZL25UnresolvedVirtualCall_142P12Il2CppObject17Color_t2555686324faaaPK10MethodInfo
sgi:__Z67RuntimeInvoker_Void_t1185182177_SByte_t1669577662_SByte_t1669577662PFvvEPK10MethodInfoPvPS4_
Czh:_Dictionary_2_U3CCopyToU3Em__0_m2023886030_gshared
byi:__Z64RuntimeInvoker_Boolean_t97287965_RefEmitPermissionSet_t484390987PFvvEPK10MethodInfoPvPS4_
DAk:_glBindVertexArray__wrapper
uMe:_SerializationInfo__ctor_m2923079689
rMa:__ZN8Material8TransferI14SafeBinaryReadEEvRT_
IQa:__ZN12CubemapArray17UploadToGfxDeviceEv
w5h:_Func_2__ctor_m1150804732_gshared
OFg:_Int32_JumpOverWhite_m208298144
ZDj:__ZN15dense_hashtableINSt3__24pairIK10KeyWrapperIP9FieldInfoEiEES5_N6il2cpp5utils11PointerHashIS3_EEN14dense_hash_mapIS5_iSB_NS5_14EqualsComparerINS0_8equal_toIS4_EEEENS0_9allocatorIS7_EEE9SelectKeyESG_SI_E4swapERSL_
Ezi:__Z53RuntimeInvoker_Int32_t2950945753_UIVertex_t4057497605PFvvEPK10MethodInfoPvPS4_
Ezk:_emscripten_glGetUniformiv__wrapper
Edk:__ZN6il2cpp2vm13ManagedObject14QueryInterfaceERK10Il2CppGuidPPv
VN:__ZN11AudioSource4StopEb
$mk:_frexp
cok:_fscanf
nik:__ZN6il2cpp2os14WindowsRuntime13DeleteHStringEP15Il2CppHString__
enb:__ZN18GlslGpuProgramGLESD2Ev
Y9b:__ZN13RenderTexture14SetVolumeDepthEi
IY:__ZN11UnityEngine15CloudWebService14DataErrorEvent12ToJsonStringERN4core12basic_stringIcNS2_20StringStorageDefaultIcEEEEjPKc
lpi:__Z86RuntimeInvoker_Void_t1185182177_UInt16_t2177724958_SByte_t1669577662_SByte_t1669577662PFvvEPK10MethodInfoPvPS4_
ajc:__Z22LoadGpuProgramFromDataPKhS0_Rj
HRc:__ZN10Matrix4x4f8TransferI8JSONReadEEvRT_
$hf:_PositionAsUV1_ModifyMesh_m4231919476
Xxg:_Hashtable__ctor_m1941859523
b1b:__Z26FindForwardLightsForObjectR13dynamic_arrayIhLj0EEPK11CulledLightjRK12ActiveLightsRK10RenderNodePK19ShaderPropertySheetbRK23FindForwardLightsParamsf
bma:__ZL44__ManagedRegistrationHelperFunction_GPUFencePv
Xkf:_ScrollRect_set_horizontalScrollbarSpacing_m2209919081
URb:__ZN25TransformFeedbackSkinning31CleanupTransformFeedbackShadersEv
yrh:_Type_GetTypeCodeInternal_m1968182887
zza:__Z22scripting_object_unbox18ScriptingObjectPtr
nPd:_CriticalFinalizerObject__ctor_m3245424448
aUd:_AsyncResult_get_NextSink_m1844209137
tYc:__ZNK20TextRenderingPrivate8FontImpl19GetCharacterAdvanceEjijfPj
Ugh:_Array_InternalArray__ICollection_Add_TisUriScheme_t722425697_m3142345403_gshared
Vmk:_fmt_u
eJi:_Dictionary_2_Do_CopyTo_TisDictionaryEntry_t3123975638_TisDictionaryEntry_t3123975638_m1126292988_gshared
QXa:__ZN10VertexData8TransferI18StreamedBinaryReadILb0EEEEvRT_
Wlk:__ZN6il2cpp8metadata25Il2CppGenericClassCompare7CompareEPK18Il2CppGenericClassS4_
Dfd:__ZN2UI29ResetVRScreenSpaceWarningFlagEv
zEf:_MonoType_get_Assembly_m4290914179
Ljc:__ZN9ShaderLab7ProgramC2E10MemLabelIdi10ShaderType
Hra:__ZN9Scripting5Unity11Collections8LowLevel6Unsafe29NativeSetThreadIndexAttribute9InitProxyEv
Axa:__ZN12BaseRendererD2Ev
Anc:__ZNSt3__26vectorI4PPtrI10MonoScriptE13stl_allocatorIS3_L18MemLabelIdentifier79ELi16EEE6insertENS_11__wrap_iterIPKS3_EERS9_
FVg:_String_LastIndexOf_m95398196
xGi:_Array_InternalArray__set_Item_TisUILineInfo_t4195266810_m2313892078_gshared
JXf:_InternalEnumerator_1_System_Collections_IEnumerator_Reset_m3355902602_AdjustorThunk
_1e:_PlayableAsset__ctor_m2395156306
qze:__ZL79StandaloneInputModule_t2760469101_CustomAttributesCacheGenerator_m_SubmitButtonP21CustomAttributesCache
p3:__ZN13RuntimeStaticI13dynamic_arrayI22RenderingExtPluginDescLj0EELb0EE13StaticDestroyEPv
tdc:__ZNK21UnityDefaultAllocatorI17LowLevelAllocatorE8ContainsEPKv
pKj:__ZNSt3__213__vector_baseI6pollfdNS_9allocatorIS1_EEED2Ev
gOe:_RuntimeTypeHandle_Equals_m2857439487
Th:_emscripten_get_main_loop_timing
gQd:_SafeHandle_Finalize_m3866180675
NTa:__ZN24GenerateTypeTreeTransfer21TransferSTLStyleArrayINSt3__26vectorIN15QualitySettings14QualitySettingENS1_9allocatorIS4_EEEEEEvRT_17TransferMetaFlags
KLg:_MemoryStream_ToArray_m3911744835
o2f:_Enumerator_System_Collections_IDictionaryEnumerator_get_Entry_m859540448_AdjustorThunk
ewi:__Z72RuntimeInvoker_Boolean_t97287965_RaycastHitU26_t2429360258_RuntimeObjectPFvvEPK10MethodInfoPvPS4_
k9b:__ZN23ManagedAttributeManager52CallManagedGetParentTypeDisallowingMultipleInclusionE17ScriptingClassPtr
N1a:__Z10AddGUIAxesR13dynamic_arrayI9InputAxisLj0EE
Ilk:__ZN6il2cpp2os5Event4WaitEjb
Frh:_Type_GetHashCode_m1947148725
uki:__Z91RuntimeInvoker_Void_t1185182177_RuntimeObject_RuntimeObject_RuntimeObject_SByte_t1669577662PFvvEPK10MethodInfoPvPS4_
Q9a:__ZNK2UI13RectTransform22GetTypeVirtualInternalEv
D6f:__ZN28GenericInterfaceFuncInvoker2IP12Il2CppObjectS1_bE6InvokeEPK10MethodInfoS1_S1_b
cp:getTempRet0
iSg:_StrongName_get_Version_m4243032012
GUf:_InternalEnumerator_1_MoveNext_m2234422530_gshared
SNj:__ZN6il2cpp2gc19AppendOnlyGCHashMapINSt3__24pairIPK14Il2CppAssemblyP11Il2CppClassEEP24Il2CppReflectionAssembly17ReflectionMapHashIS9_ENS2_8equal_toIS9_EEE10CopyValuesEPv
qtd:_BaseRaycaster_OnEnable_m2678466030
EXe:_UnityEventBase__ctor_m1851535676
CIi:_Array_Sort_TisVector4_t3319028937_m2797285308_gshared
WBf:_UnexceptionalStreamWriter_Write_m1834931241
Kke:__ZL58ProfilerEndFrame_t852348665_CustomAttributesCacheGeneratorP21CustomAttributesCache
l$j:__ZN6il2cpp6icalls8mscorlib6System9ThreadingL21lookup_cached_cultureEP12Il2CppThreadi
cLj:_NetFxCoreExtensions_CreateDelegate_m751211712
G4b:__ZN18DeferredRenderLoopD2Ev
Vwj:_AnimationLayerMixerPlayable__cctor_m4086299972
Asa:__ZNK16TypeTreeIterator4NameEv
VIi:_Array_swap_TisUICharInfo_t75501106_m3934244159_gshared
WWd:__ZL40UIntPtr_t_CustomAttributesCacheGeneratorP21CustomAttributesCache
P9:__ZN15FileSystemEntry3SetEPKc
fKf:_ConstructorBuilder_Invoke_m3010446651
iyd:_AspectRatioFitter_get_aspectMode_m3735191157
Epc:__Z52Register_UnityEngine_Application_set_targetFrameRatev
Jcg:_IPv6Address_set_ScopeId_m3907190992
cYh:_ReadOnlyCollection_1_System_Collections_Generic_IListU3CTU3E_Insert_m568455025_gshared
VM:__ZN20SoundChannelInstance15ParameterBuffer5ApplyEPN4FMOD7ChannelE
xcg:_IPv6Address__ctor_m4117281080
Q0g:_Convert_ToInt64_m2075293963
qYc:__ZN20TextRenderingPrivate19NativeTextGenerator9InsertTabEv
mrk:_sbrk
Y1d:__ZL92ResourceSet_t2827911187_CustomAttributesCacheGenerator_ResourceSet_GetEnumerator_m3459697719P21CustomAttributesCache
N$i:_Collection_1_System_Collections_Generic_ICollectionU3CTU3E_get_IsReadOnly_m1032650589_gshared
XK:__ZL49__ManagedRegistrationHelperFunction_AudioSettingsPv
kld:__ZN11UnityEngine15PlatformWrapper24GetRuntimePlatformStringEv
Di:_glIsEnabled
e9a:__ZN15CacheWriterBaseD2Ev
PJf:_DerivedType__ctor_m1853298054
aqb:__Z25scripting_class_get_image17ScriptingClassPtr
Uwg:_CaseInsensitiveComparer_Compare_m1224120810
PMi:_List_1_RemoveAt_m2730968292_gshared
v4a:__ZNSt3__26vectorIN4core12basic_stringIcNS1_20StringStorageDefaultIcEEEE13stl_allocatorIS5_L18MemLabelIdentifier13ELi16EEEC2INS_11__wrap_iterIPS5_EEEET_SE_RKS8_PNS_9enable_ifIXaasr21__is_forward_iteratorISE_EE5valuesr16is_constructibleIS5_NS_15iterator_traitsISE_E9referenceEEE5valueEvE4typeE
Hi:_emscripten_glDrawElementsInstanced
qA:__ZN26AnimatorControllerPlayable27SetupStateMachineBehavioursEv
Uch:_Array_InternalArray__IEnumerable_GetEnumerator_TisSlot_t3975888750_m1869932007_gshared
Hge:__ZL79Camera_t4157153871_CustomAttributesCacheGenerator_Camera_RaycastTry_m3913529496P21CustomAttributesCache
nff:_LayoutGroup_get_preferredWidth_m3816902260
ZHa:__ZN18JobBatchDispatcherD2Ev
L9a:__ZN9Transform17MainThreadCleanupEv
sgk:_GC_clear_hdr_marks
yBk:_emscripten_glCreateShader__wrapper
X_c:_cff_fd_select_get
dof:_Text_set_resizeTextForBestFit_m4095249125
Geg:_OidEnumerator_MoveNext_m3138911739
nyi:__Z53RuntimeInvoker_Boolean_t97287965_Keyframe_t4206410242PFvvEPK10MethodInfoPvPS4_
Si:_emscripten_glGetShaderiv
mO:__ZN4FMOD6System10getVersionEPj
Xbd:__ZN2UI6Canvas23VirtualRedirectTransferER24GenerateTypeTreeTransfer
mmf:_Selectable_set_animationTriggers_m2970345687
hUh:_Collection_1_CopyTo_m4271769704_gshared
jPc:__ZN9JSONWrite8TransferIN4math12int2_storageEEEvRT_PKc17TransferMetaFlags
aXc:__ZN13TextRendering4Font13AwakeFromLoadE17AwakeFromLoadMode
cBg:_CompareInfo_LastIndexOf_m2688553706
G8g:_Enum__ctor_m3602080049
Zhb:__ZN9GfxDevice21ReleaseSharedMeshDataEP14SharedMeshData
gwd:_MouseState__ctor_m1467839005
tej:_Uri_IsDomainAddress_m2867513594
w3a:__ZNSt3__27__sort5IRNS_6__lessINS_4pairIPKN5Unity4TypeE7Hash128EES8_EEPS8_EEjT0_SC_SC_SC_SC_T_
s9d:__ZL79Convert_t2465617642_CustomAttributesCacheGenerator_Convert_ToDouble_m2949593046P21CustomAttributesCache
gDd:_Dropdown_CreateItem_m2954407740
xfh:_Array_InternalArray__IndexOf_TisSingle_t1397266774_m2563096608_gshared
zfk:_GC_unreachable_finalize_mark_proc
J2e:_PlayerConnectionInternal_PollInternal_m3759016321
bgg:_X509Chain_ProcessCrlExtensions_m236234529
Xgk:_maybe_finalize
KCj:__ZN6il2cpp2vm5Class40GetInterfaceInvokeDataFromVTableSlowPathEPK12Il2CppObjectPK11Il2CppClassj
UCe:__ZL85ScrollRect_t4137855814_CustomAttributesCacheGenerator_m_HorizontalScrollbarVisibilityP21CustomAttributesCache
Plc:__Z43RectTransform_CUSTOM_INTERNAL_get_anchorMaxP12Il2CppObjectP13Vector2fIcall
_uj:_TextGenerator_INTERNAL_CALL_Populate_Internal_cpp_m4171649399
MJe:_RealProxy_get_ObjectIdentity_m2790771985
hKe:_RemotingConfiguration_RegisterChannelTemplate_m3105688054
h$g:_Decimal_Parse_m942471224
YBa:__ZN8Material28UpdateHashesOnPropertyChangeEN9ShaderLab16FastPropertyNameE
F_i:_Collection_1_System_Collections_IList_get_Item_m1368877441_gshared
Mof:_Locale_GetText_m3520169047
zoc:__Z53Register_UnityEngine_SortingLayer_GetLayerValueFromIDv
Eqf:_ASN1_GetBytes_m1968380955
jle:__ZL85RectOffset_t1369453676_CustomAttributesCacheGenerator_RectOffset_set_right_m807318764P21CustomAttributesCache
Vob:__Z18Transfer_BlittableI14SafeBinaryReadLb1E8Vector4fEvRK29SerializationCommandArgumentsR31RuntimeSerializationCommandInfo
_qd:__ZN13RuntimeStaticINSt3__26vectorI23UnityVRDeviceDefinition13stl_allocatorIS2_L18MemLabelIdentifier90ELi16EEEELb0EE13StaticDestroyEPv
uQ:__ZN11AudioSource12AddToManagerEv
Xu:__ZN8Animator23VirtualRedirectTransferER19StreamedBinaryWriteILb0EE
bC:__ZN11UnityEngine9Animation32CreateAnimatorGenericBindingsOptERKNS0_20AnimationSetBindingsER9TransformPKN7mecanim9animation14AvatarConstantEPKNS0_21AvatarBindingConstantEbRNS6_6memory9AllocatorER8Animator
x3h:_ReadOnlyCollection_1_get_Count_m3746330764_gshared
C3j:__ZN6il2cpp2vm5Image13ClassFromNameEPK11Il2CppImagePKcS6_
Rrk:dynCall_vdddddd
ihc:__ZN24GenerateTypeTreeTransfer21TransferSTLStyleArrayINSt3__26vectorIN9ShaderLab14SerializedPassENS1_9allocatorIS4_EEEEEEvRT_17TransferMetaFlags
q5:__ZL32MarkLevelGameManagerDependenciesR27GarbageCollectorThreadState
_Mb:__ZNK13GfxDeviceGLES26HasActiveRandomWriteTargetEv
oqj:__ZL25UnresolvedVirtualCall_115P12Il2CppObjectsaaaPK10MethodInfo
RYd:__ZL54_MemberInfo_t3922476713_CustomAttributesCacheGeneratorP21CustomAttributesCache
twk:_glGetActiveUniformsiv__wrapper
FMa:__ZN14SafeBinaryRead8TransferINSt3__24pairIN9ShaderLab16FastPropertyNameE10ColorRGBAfEEEEvRT_PKc17TransferMetaFlags
J$e:_Mesh_GetIndices_m2873123901
L7:__ZN13MonoBehaviour19SetupScriptingCacheE17ScriptingClassPtrP10MonoScript
IKj:__ZNSt3__214__split_bufferIP12Il2CppThreadRNS_9allocatorIS2_EEED2Ev
lF:__Z20AnimationEventToMonoRK14AnimationEventR18MonoAnimationEvent
Owc:__ZZN8Renderer15InitializeClassEvEN28FunctorImpl_145kLayerChanged4CallEPviR11MessageData
sBd:_FloatTween_set_targetValue_m3604919944_AdjustorThunk
sug:_ArrayList_get_IsReadOnly_m913775115
Wvd:_PointerEventData_get_dragging_m746831934
qrh:_Type_get_TypeHandle_m160082026
$1h:_ReadOnlyCollection_1_System_Collections_IEnumerable_GetEnumerator_m2781605075_gshared
kpa:__ZN9Scripting11UnityEngine12Experimental9Rendering15ShadowSplitData12CleanupProxyEv
gea:__ZZN15DirectorManager15InitializeClassEvEN52PreLateUpdateDirectorUpdateAnimationBeginRegistrator7ForwardEv
E9g:_Array_get_swapper_TisCustomAttributeNamedArgument_t287865710_m4254011335_gshared
lFd:_Graphic_RegisterDirtyMaterialCallback_m106898453
Fgj:_GUILayoutEntry_get_margin_m3174861737
cua:__ZN4PPtrI6SpriteE8TransferI14SafeBinaryReadEEvRT_
aCh:_EqualityComparer_1_System_Collections_IEqualityComparer_Equals_m1672604045_gshared
OZi:_Collection_1_System_Collections_IList_Add_m2739652888_gshared
vZj:__ZN15dense_hashtableINSt3__24pairIK10KeyWrapperIP11Il2CppClassES4_EES5_N6il2cpp8metadata16SZArrayClassHashEN14dense_hash_mapIS5_S4_SA_NS5_14EqualsComparerINS9_19SZArrayClassCompareEEENS0_9allocatorIS7_EEE9SelectKeyESE_SG_E16reset_thresholdsEv
fTi:_List_1_GetEnumerator_m2095602005_gshared
e3j:__ZNK15dense_hashtableINSt3__24pairIK10KeyWrapperINS1_IPKcS4_EEEiEES6_24NamespaceAndNamePairHashN14dense_hash_mapIS6_iS9_NS6_14EqualsComparerI26NamespaceAndNamePairEqualsEENS0_9allocatorIS8_EEE9SelectKeyESD_SF_E13find_positionERS7_
zgc:__ZNSt3__26vectorIN9ShaderLab14SerializedPassENS_9allocatorIS2_EEE8__appendEj
Ofc:__ZNSt3__26vectorIN9ShaderLab20SerializedSubProgram13BufferBindingENS_9allocatorIS3_EEEC2INS_11__wrap_iterIPS3_EEEET_SB_RKS5_PNS_9enable_ifIXaasr21__is_forward_iteratorISB_EE5valuesr16is_constructibleIS3_NS_15iterator_traitsISB_E9referenceEEE5valueEvE4typeE
RDi:__Z37RuntimeInvoker_Enumerator_t3436819725PFvvEPK10MethodInfoPvPS4_
x2e:_PlayableOutputHandle_op_Equality_m388301694
pkh:_Encoding_get_ISOLatin1_m2107621369
bZa:__ZNK13ScreenManager21IsMultiDisplayEnabledEv
Vhe:__ZL89Mathf_t3464937446_CustomAttributesCacheGenerator_Mathf_SmoothDamp_m394423605____maxSpeed4P21CustomAttributesCache
QWd:__ZL72IntPtr_t_CustomAttributesCacheGenerator_IntPtr_op_Inequality_m3063970704P21CustomAttributesCache
nGb:__ZNK25PathNamePersistentManager30PathIDToFileIdentifierInternalEi
TSa:__ZN9Texture2D23VirtualRedirectTransferER18StreamedBinaryReadILb0EE
h3g:_DateTime_System_IConvertible_ToDouble_m2116720007_AdjustorThunk
Kwg:_BitArrayEnumerator__ctor_m2359341397
lIh:_Enumerator_MoveNext_m1177880931_gshared
BQa:__ZNK12CubemapArray12GetDataWidthEv
V_f:_DefaultComparer__ctor_m3288720761_gshared
Uyi:__Z102RuntimeInvoker_Int32_t2950945753_RuntimeObject_Vector2_t2156229523_Int32_t2950945753_Int32_t2950945753PFvvEPK10MethodInfoPvPS4_
KDj:__ZN30dense_hashtable_const_iteratorINSt3__24pairIK10KeyWrapperIPKcEP11Il2CppClassEES5_N6il2cpp5utils11StringUtils12StringHasherIS4_EEN14dense_hash_mapIS5_S8_SE_NS5_14EqualsComparerINSB_13VmStringUtils21CaseSensitiveComparerEEENS0_9allocatorIS9_EEE9SelectKeyESJ_SL_E30advance_past_empty_and_deletedEv
xre:__ZL73g_UnityEngine_TextRenderingModule_Assembly_CustomAttributesCacheGeneratorP21CustomAttributesCache
q8:__ZN16ScriptingManager27NativeTypeForScriptingClassE17ScriptingClassPtr
ouh:_UInt64_System_IConvertible_ToDateTime_m3434604642
lrh:_Type_get_IsSerializable_m1040556850
E3c:_get_sfnt_table
yHi:_Array_Resize_TisUIVertex_t4057497605_m1219201596_gshared
R$d:__ZL55StreamWriter_t1266378904_CustomAttributesCacheGeneratorP21CustomAttributesCache
MNb:__ZThn10632_N13GfxDeviceGLES25SetStereoConstantPlatformEijRK8Vector4f
DUa:__ZN8Renderer20RendererAddedToSceneEv
h6b:__ZL22ScheduleSceneNodesJobsP25ScheduleSceneNodesJobDataj
Kk:_emscripten_set_canvas_size
oEd:_Graphic_SetVerticesDirty_m2124914069
fBg:_CultureInfo__ctor_m3285927757
chf:_MaskableGraphic_get_rootCanvasRect_m3492154629
gPc:__ZN9JSONWrite8TransferI13dynamic_arrayI11QuaternionfLj0EEEEvRT_PKc17TransferMetaFlags
zUc:__ZN9Scripting11UnityEngine9Physics2D9InitProxyEv
tHi:_Array_Resize_TisRaycastResult_t3360306849_m1811054291_gshared
hvc:__ZN12MeshRenderer27PrepareSingleRendererUpdateER13RendererSceneRS_10MemLabelId
LYh:_ReadOnlyCollection_1_System_Collections_Generic_ICollectionU3CTU3E_get_IsReadOnly_m3152485890_gshared
fgc:__ZNSt3__26vectorIN9ShaderLab20SerializedSubProgramENS_9allocatorIS2_EEE8__appendEj
q1:__ZN20DynamicHeapAllocatorI17LowLevelAllocatorE8AllocateEji
Bhd:__ZN11UnityEngine9Analytics15UserCustomEvent12ToJsonStringER9JSONWrite
bij:_Locale_GetText_m2427493201
l_b:__ZN20DynamicPropertySheet15SetVectorQueuedERKN9ShaderLab16FastPropertyNameERK8Vector4fN19ShaderPropertySheet8SetFlagsE
rD:__ZN7mecanim9animation22EvaluateAvatarRetargetEPKNS0_14AvatarConstantEPKNS0_11AvatarInputEPNS0_12AvatarOutputEPNS0_12AvatarMemoryEPNS0_15AvatarWorkspaceEb
TXf:_InternalEnumerator_1_System_Collections_IEnumerator_Reset_m996811230_AdjustorThunk
QGa:__ZN14RenderSettings23VirtualRedirectTransferER19StreamedBinaryWriteILb0EE
Gue:__ZL59GUISkin_t1244372282_CustomAttributesCacheGenerator_m_windowP21CustomAttributesCache
HNc:__ZL26Transfer_SimpleNativeClassI9JSONWrite10RectOffsetLb0EEvRK29SerializationCommandArgumentsR31RuntimeSerializationCommandInfo
Tfk:_GC_push_conditional
shd:__ZN21UnityAnalyticsManager23VirtualRedirectTransferER24GenerateTypeTreeTransfer
u_a:__ZN17GenericDynamicVBO10AllocateVBEjR21DynamicVBOChunkHandle
r5g:_DBNull_ToString_m3638608738
Y4j:__ZN30dense_hashtable_const_iteratorI10KeyWrapperIP18Il2CppGenericClassES3_N6il2cpp8metadata22Il2CppGenericClassHashEN14dense_hash_setIS3_S6_NS3_14EqualsComparerINS5_25Il2CppGenericClassCompareEEENSt3__29allocatorIS3_EEE8IdentityESA_SD_EppEv
Hwg:_BitArray_Clone_m3537018332
YLe:_ObjectRecord_UnchainFixup_m3191243952
Z3i:_TlsStream_get_CanWrite_m16389328
kfd:__Z15GetUIModuleSpecv
Asi:__Z65RuntimeInvoker_RuntimeObject_RuntimeObject_Vector3U26_t3464235976PFvvEPK10MethodInfoPvPS4_
OWc:__ZN9Scripting11UnityEngine8UIVertex9InitProxyEv
hl:_glMapBufferRange
LSa:__ZN9Texture2D8TransferI18StreamedBinaryReadILb0EEEEvRT_
grc:__Z31Input_CUSTOM_GetMouseButtonDowni
Kzc:__ZN13PlayableGraph4PlayEv
wab:__ZNK9Transform16GetLocalPositionEv
ojh:_EncoderExceptionFallbackBuffer_get_Remaining_m1573636148
CEf:_MonoType_get_BaseType_m1098640416
D5a:__ZN13LoadOperation19IntegrateTimeSlicedEi
q4i:_TlsStream_Read_m3392972801
f8e:_TouchScreenKeyboard_get_status_m3936201565
iNb:__ZN13GfxDeviceGLES22DispatchComputeProgramE12ObjectHandleI18ComputeProgram_TagPvE15ComputeBufferIDj
O5e:_Transform_get_localToWorldMatrix_m4155710351
DUb:__ZN20DefaultGfxDeviceImpl32InitStereoGlobalsBuffersPlatformEiijPKv
Ykh:_Latin1Encoding_GetString_m254210343
F7a:__Z17TransformAABBSlowRK4AABBRK10Matrix4x4fRS_
Upg:_Array_combsort_m4052486289
jP:__ZN24AudioScriptBufferManager27InitialCompleteDomainReloadEv
lNi:_List_1_System_Collections_ICollection_get_SyncRoot_m314215814_gshared
Fec:__ZN9ShaderLab21SerializedShaderState8TransferI14SafeBinaryReadEEvRT_
Gyg:_Environment_GetWindowsFolderPath_m1738399646
SXi:_Queue_1_System_Collections_Generic_IEnumerableU3CTU3E_GetEnumerator_m2263220760_gshared
iVi:_List_1_Sort_m378918663_gshared
mBh:_DefaultComparer_GetHashCode_m77036565_gshared
X$c:_cf2_stack_pushInt
yG:__ZN7mecanim9animation20DestroyLayerConstantEPNS0_13LayerConstantERNS_6memory9AllocatorE
jD:__ZN8Animator19FireAnimationEventsERNS_11AnimatorJobE
vKd:_Module_GetCustomAttributes_m76573271
CPe:_CryptoConfig_EncodeOID_m2635914623
gNa:__ZN15SerializeTraitsINSt3__24pairIN4core12basic_stringIcNS2_20StringStorageDefaultIcEEEES6_EEE8TransferI24GenerateTypeTreeTransferEEvRS7_RT_
aAk:b89
$zk:b88
Cyk:b81
Byk:b80
uSb:__ZN7ApiGLES19CreateSparseTextureEjj14GraphicsFormatiiiiRiS1_S1_
e9:__ZN18ResourceImageGroup7CleanupEv
Pyk:b85
Oyk:b84
_zk:b87
vWg:_String_CharCopy_m3838781968
tq:__ZN11Quaternionf8TransferI24GenerateTypeTreeTransferEEvRT_
VHe:_RemotingSurrogateSelector_GetSurrogate_m3900875713
ipi:__Z69RuntimeInvoker_Boolean_t97287965_UInt16_t2177724958_Int16_t2552820387PFvvEPK10MethodInfoPvPS4_
r$h:_ReadOnlyCollection_1_System_Collections_IList_get_IsReadOnly_m3626439112_gshared
ztf:_CertificateValidationCallback_Invoke_m1014111289
GIa:__ZN8Playable19SetOutputConnectionEPS_i
MVh:__ZN23InterfaceActionInvoker2Ii19Vector2_t2156229523E6InvokeEjP11Il2CppClassP12Il2CppObjectiS0_
HCa:__Z20RenderMultipleMeshesRK15RenderNodeQueueRK18RenderMultipleData16VertexInputMasks
Xl:_glDeleteShader
Xha:__ZN6prcoreL17RemapGenericFloatI15TexFormatRGHalf16TexFormatRGFloatEEvPKNS_9InnerInfoE
nIi:_Array_Sort_TisUICharInfo_t75501106_m128665067_gshared
i2c:_otv_GSUB_validate
hOg:_RSAPKCS1SignatureDeformatter_SetHashAlgorithm_m1602190713
K8g:_Enum_System_IConvertible_ToByte_m1219166845
Cwh:_Dictionary_2_CopyToCheck_m45332585_gshared
OSi:_List_1_System_Collections_ICollection_get_IsSynchronized_m3630704857_gshared
_7e:_Touch_get_type_m960232264_AdjustorThunk
Sjc:__Z27scripting_add_internal_callPKcPKv
Vui:__Z38RuntimeInvoker_ContentType_t1787303396PFvvEPK10MethodInfoPvPS4_
aUj:__ZN13Il2CppHashMapINSt3__24pairIPK9EventInfoP11Il2CppClassEEj17ReflectionMapHashIS7_ENS0_8equal_toIS7_EENS0_9allocatorINS1_IK10KeyWrapperIS7_EjEEEEEC2EjRKS9_RKSB_
Zqe:__ZL106Transform_t3600365921_CustomAttributesCacheGenerator_Transform_INTERNAL_get_localToWorldMatrix_m1917635696P21CustomAttributesCache
lCa:__Z17GetPlayerSettingsv
_sj:__ZL25UnresolvedVirtualCall_261P12Il2CppObject19Vector3_t3722313464PK10MethodInfo
RD:__ZN34BlobWriteTransferSTLStyleArrayImplI22OffsetPtrArrayTransferIiEEclERS1_17TransferMetaFlagsR9BlobWrite
uZe:_Input_get_inputString_m1307069105
nLd:_MonoField_get_FieldHandle_m3729647377
$Hc:__ZN9Scripting11UnityEngine3GUI9InitProxyEv
ukf:_ScrollRect_get_content_m2477524320
w2f:_Enumerator_MoveNext_m1556953412_AdjustorThunk
rv:__ZN26AnimatorControllerPlayable18SetLayerAutoWeightEv
udd:__Z44Register_UnityEngine_Canvas_get_pixelPerfectv
sdj:_Literal_GetAnchorInfo_m810577400
f2f:_Enumerator__ctor_m65667165_AdjustorThunk
zgd:__ZN2UI14CanvasRenderer12SyncMaterialENS0_8SyncFlagE
HAf:_StreamWriter_Write_m1660535366
pAi:__Z66RuntimeInvoker_Void_t1185182177_Int32_t2950945753_Link_t3209266973PFvvEPK10MethodInfoPvPS4_
Tjk:__ZN6il2cpp2vm9Parameter30GetDefaultParameterValueObjectEPK10MethodInfoPK13ParameterInfoPb
Rmh:_UTF8Encoding_GetByteCount_m4152118078
fdg:_ServicePoint_set_UseNagleAlgorithm_m1374731041
wRh:_KeyPairPersistence__CanSecure_m3516574278
rc:invoke_iiiiiiiii
dli:__Z95RuntimeInvoker_Void_t1185182177_RuntimeObject_RuntimeObject_Int32_t2950945753_SByte_t1669577662PFvvEPK10MethodInfoPvPS4_
aSe:_MD5CryptoServiceProvider_Dispose_m3502499818
I0i:_Collection_1_System_Collections_IList_get_Item_m2422562729_gshared
wri:__Z87RuntimeInvoker_Void_t1185182177_RuntimeObject_StringU26_t181565287_StringU26_t181565287PFvvEPK10MethodInfoPvPS4_
EHa:__ZN12LightManager28IsLightTransformDataUpToDateEPK5Light
MXd:__ZL74RuntimeArray_CustomAttributesCacheGenerator_Array_BinarySearch_m3171087170P21CustomAttributesCache
q4c:_UNITY_tt_face_done_kern
Fuf:_SecurityParameters_get_ServerWriteMAC_m3430427271
fve:__ZL90GUIStyle_t3956901511_CustomAttributesCacheGenerator_GUIStyle_get_stretchHeight_m4172805773P21CustomAttributesCache
zxe:__ZL68g_UnityEngine_StandardEvents_Assembly_CustomAttributesCacheGeneratorP21CustomAttributesCache
lPf:_ArrayReadOnlyList_1_RemoveAt_m2104218585_gshared
GXa:__ZN12BoneWeights48TransferI24GenerateTypeTreeTransferEEvRT_
jdh:_Array_InternalArray__IEnumerable_GetEnumerator_TisParameterModifier_t1461694466_m3675077728_gshared
$ka:__ZL49__ManagedRegistrationHelperFunction_PreLateUpdatePv
sCe:__ZL60RawImage_t3182918964_CustomAttributesCacheGenerator_m_UVRectP21CustomAttributesCache
mWh:__ZN21InterfaceFuncInvoker1I19Vector3_t3722313464iE6InvokeEjP11Il2CppClassP12Il2CppObjecti
dHb:__Z19scripting_gc_enablev
xYf:_InternalEnumerator_1_get_Current_m2907722321_gshared
BVb:__ZZ23InitPlayerLoopCallbacksvEN41InitializationPlayerUpdateTimeRegistrator7ForwardEv
tCc:__ZN11UTF16StringC2ERKS_10MemLabelId
sbc:__Z29StdTemplateConversionFunctionIihEbPvR14SafeBinaryRead
IZf:_InternalEnumerator_1_get_Current_m3792939945_AdjustorThunk
Jed:__Z55Register_UnityEngine_CanvasRenderer_DisableRectClippingv
tt:__ZN9Scripting11UnityEngine10Animations16ConstraintSource12CleanupProxyEv
xqh:_TimeSpan_Subtract_m1264203589_AdjustorThunk
VJd:_MethodBase__ctor_m1907868998
YBe:__ZL118U3CCaretBlinkU3Ec__Iterator0_t2589889038_CustomAttributesCacheGenerator_U3CCaretBlinkU3Ec__Iterator0_Reset_m1547565867P21CustomAttributesCache
Lib:__ZN9GfxDevice22UploadTextureCubeArrayE9TextureIDPKhjii14GraphicsFormati18TextureUploadFlags
cTf:_InternalEnumerator_1_System_Collections_IEnumerator_get_Current_m888718134_gshared
_gi:__Z175RuntimeInvoker_Void_t1185182177_SByte_t1669577662_SByte_t1669577662_SByte_t1669577662_SByte_t1669577662_SByte_t1669577662_SByte_t1669577662_SByte_t1669577662_SByte_t1669577662PFvvEPK10MethodInfoPvPS4_
geh:_Array_compare_TisRaycastResult_t3360306849_m822404090_gshared
w1e:_Object_Destroy_m3118546832
EXh:_ReadOnlyCollection_1_System_Collections_Generic_IListU3CTU3E_set_Item_m519295790_gshared
F3g:_DateTime_FromTicks_m4059645178_AdjustorThunk
sKi:_Array_InternalArray__get_Item_TisClientCertificateType_t1004704908_m2297379651_gshared
YRd:_ConfigHandler_ParseTime_m1787834288
Uic:__ZN9ShaderLab7Program27CreateFromSerializedProgramERKNS_17SerializedProgramE10ShaderTypeiP16PropertyNamesSetPK6Shader
Bbh:_Array_InternalArray__ICollection_Remove_TisX509ChainStatus_t133602714_m3635989134_gshared
gIf:_Assembly_Load_m3487507613
AK:__ZNSt3__27__sort4IRNS_6__lessIN4core12basic_stringIcNS2_20StringStorageDefaultIcEEEES6_EEPS6_EEjT0_SA_SA_SA_T_
ssk:dynCall_viiiifii
ESj:__ZN6il2cpp2gc19AppendOnlyGCHashMapINSt3__24pairIPK11Il2CppImageP11Il2CppClassEEP22Il2CppReflectionModule17ReflectionMapHashIS9_ENS2_8equal_toIS9_EEEC2Ev
w6:__Z20GetPersistentManagerv
A7c:_UNITY_TT_Set_Var_Design
O2:__ZN21SystemInfoStringCache16StaticInitializeEPv
q9d:__ZL80Convert_t2465617642_CustomAttributesCacheGenerator_Convert_ToDecimal_m1695757674P21CustomAttributesCache
Wag:_NameObjectCollectionBase_FindFirstMatchedItem_m840305173
dYh:_ReadOnlyCollection_1_System_Collections_Generic_ICollectionU3CTU3E_Remove_m1100818788_gshared
j6j:__ZNK10KeyWrapperIP12Il2CppObjectE14EqualsComparerINSt3__28equal_toIS1_EEEclERKS2_S9_
Ifc:__ZNSt3__26vectorIN9ShaderLab20SerializedSubProgram15StructParameterENS_9allocatorIS3_EEE6assignIPS3_EENS_9enable_ifIXaasr21__is_forward_iteratorIT_EE5valuesr16is_constructibleIS3_NS_15iterator_traitsISA_E9referenceEEE5valueEvE4typeESA_SA_
JWh:_Collection_1_IsSynchronized_m2291009199_gshared
Tid:__ZN9Scripting11UnityEngine9Analytics21AnalyticsSessionState12CleanupProxyEv
EEb:__ZNK13MonoBehaviour7GetNameEv
M8a:__ZN19ScriptingInvocation28AdjustArgumentsToMatchMethodEv
zbi:_IndexedSet_1_Contains_m1525966688_gshared
vM:__Z15_CheckFMODError11FMOD_RESULTPKciS1_
c0j:__ZN6il2cpp6icalls8mscorlib6SystemL16ThrowInvalidCastEPK11Il2CppClassS5_
wDh:_EqualityComparer_1_get_Default_m79107703_gshared
mRe:_HMAC_KeySetup_m661741544
Wae:__ZL61MonoEnumInfo_t3694469084_CustomAttributesCacheGenerator_cacheP21CustomAttributesCache
s4j:__ZN6il2cpp2vm5Field11SetValueRawEPK10Il2CppTypePvS5_b
skh:_Latin1Encoding__ctor_m498920120
JVj:__ZN6il2cpp2vm4Type19GetGenericParameterEPK10Il2CppType
OMg:_StreamReader_Peek_m2272511193
yCg:_DateTimeFormatInfo_FillAllDateTimePatterns_m2683124783
Sdd:__Z51Register_UnityEngine_CanvasGroup_get_blocksRaycastsv
SFf:_NumberFormatter_get_IsFloatingSource_m3714711779
gTh:_Collection_1_System_Collections_IList_Add_m1403891193_gshared
JSf:_InternalEnumerator_1_System_Collections_IEnumerator_Reset_m169899350_AdjustorThunk
Vrh:_Type_GetConstructor_m1195697116
rd:_glBeginQuery
neh:__ZN21InterfaceFuncInvoker2Ii19Vector2_t2156229523S0_E6InvokeEjP11Il2CppClassP12Il2CppObjectS0_S0_
lla:__ZL48__ManagedRegistrationHelperFunction_VisibleLightPv
ovj:_Canvas_get_scaleFactor_m3314757802
qXb:__ZN6Camera12RenderStereoENS_10RenderFlagE8CullFlagPNS_24PerformEyeRenderFunctionE
vcb:__ZN20LocalFileSystemPosix10ToAbsoluteEPKc
iGa:__ZN20TierGraphicsSettings8TransferI19StreamedBinaryWriteILb0EEEEvRT_
TBk:b111
L7a:__Z23CollectSceneGameObjectsR13dynamic_arrayIiLj0EE
Qck:__ZN6il2cpp2vm13ComObjectBase16DisconnectObjectEj
ZEh:_GenericComparer_1__ctor_m3652072706_gshared
Cm:f0
Gp:__ZN6Object17MainThreadCleanupEv
DFa:__Z32TransferEnumWithNameForceIntSizeI14SafeBinaryRead7HDRModeEvRT_RT0_PKc17TransferMetaFlags
Vnk:_getcwd
Tua:__ZN25ThreadsafeLinearAllocatorD2Ev
L6a:__Z21SendMessageToEveryoneRK17MessageIdentifier11MessageData
Kca:__ZN21BillboardBatchManager16StaticInitializeEPv
M_g:_DateTime_AbsoluteDays_m4235097773
j4:__ZN12_GLOBAL__N_138ArchiveRedirectFileSystemStaticDestroyEPv
CYd:__ZL126U3CGetEnumeratorU3Ec__Iterator0_t1202911786_CustomAttributesCacheGenerator_U3CGetEnumeratorU3Ec__Iterator0_Dispose_m2078994225P21CustomAttributesCache
jci:__Z74RuntimeInvoker_RuntimeObject_RuntimeObject_RuntimeObject_SByte_t1669577662PFvvEPK10MethodInfoPvPS4_
MYd:__ZL69Type_t_CustomAttributesCacheGenerator_Type_GetConstructor_m1195697116P21CustomAttributesCache
gCd:_DefaultControls_CreateScrollView_m3842770629
tUc:__ZL55__ManagedRegistrationHelperFunction_PhysicsJobOptions2DPv
FQa:__ZN12CubemapArray34UpdateFileTextureUploadInstructionEP26FileAssetUploadInstructionj
a0d:__ZL94EnumBuilder_t2400448213_CustomAttributesCacheGenerator_EnumBuilder_GetConstructors_m3294436155P21CustomAttributesCache
xBi:__Z55RuntimeInvoker_TableRange_t3332867892_Int32_t2950945753PFvvEPK10MethodInfoPvPS4_
WVf:_InternalEnumerator_1_MoveNext_m1020308708_gshared
tSb:__Z23CreateSparseTextureGLES9TextureIDii14GraphicsFormati
Q2c:_otv_Anchor_validate
SR:__ZN13dynamic_arrayI12SoundChannelLj0EE9push_backERKS0_
nwg:_SynchronizedArrayListWrapper_CopyTo_m4207791406
_zg:_CCMath_mod_m3631663509
vqh:_TimeSpan_Negate_m1889505500_AdjustorThunk
L$h:_ReadOnlyCollection_1_System_Collections_ICollection_CopyTo_m2715087453_gshared
ewe:__ZL84Canvas_t3310196443_CustomAttributesCacheGenerator_Canvas_get_scaleFactor_m3314757802P21CustomAttributesCache
E5f:_Transform_1__ctor_m2810088858_gshared
Vfb:__ZN16MemoryFileSystemD0Ev
hmd:__ZN11UnityEngine7Connect20RemoteConfigSettings7SetJSONER8JSONReadb
HIj:__ZN6il2cpp2vm13MetadataCache37GetParameterDefaultValueDataFromIndexEi
PWj:_il2cpp_class_get_assemblyname
Vli:__Z50RuntimeInvoker_SByte_t1669577662_SByte_t1669577662PFvvEPK10MethodInfoPvPS4_
WEd:_Graphic_OnFillVBO_m1026749972
mBj:__ZN6il2cpp2vm5Class15GetEnumBaseTypeEP11Il2CppClass
Mwf:_Context_set_WriteSequenceNumber_m942577065
Wd:_glVertexAttrib4fv
_gg:_X509CertificateEnumerator_Reset_m4026698923
kdk:__ZNK6il2cpp5utils13VmStringUtils23CaseInsensitiveComparerclERKNSt3__212basic_stringIcNS3_11char_traitsIcEENS3_9allocatorIcEEEEPKc
ozd:_CanvasScaler_SetScaleFactor_m3006968999
ADi:__Z78RuntimeInvoker_Boolean_t97287965_Navigation_t3049316579_Navigation_t3049316579PFvvEPK10MethodInfoPvPS4_
eRa:__ZNK9Texture2D16GetNpotTexelSizeEv
GFf:_NumberFormatter_Init_m3576155222
tdb:__ZL33FileEntryInfoListToFolderContentsRKN4core12basic_stringIcNS_20StringStorageDefaultIcEEEERK19dynamic_block_arrayI13FileEntryInfoLj32EERNSt3__23setIS3_NSB_4lessIS3_EENSB_9allocatorIS3_EEEE
ngf:_LayoutUtility_GetLayoutProperty_m714717302
huj:_Terminal_NotifyCommandHandlers_m909296863
yRj:__ZN24dense_hashtable_iteratorINSt3__24pairIK10KeyWrapperINS1_IPK12PropertyInfoP11Il2CppClassEEEjEES9_17ReflectionMapHashIS8_EN14dense_hash_mapIS9_jSD_NS9_14EqualsComparerINS0_8equal_toIS8_EEEENS0_9allocatorISB_EEE9SelectKeyESI_SK_E30advance_past_empty_and_deletedEv
wvh:__ZN23InterfaceActionInvoker1IP39UnhandledExceptionEventArgs_t2886101344E6InvokeEjP11Il2CppClassP12Il2CppObjectS1_
ytd:_EventSystem_set_sendNavigationEvents_m983981895
Mhb:__ZN9GfxDevice22GetDefaultVertexBufferE26GfxDefaultVertexBufferTypej
hah:_Array_InternalArray__ICollection_Contains_TisInt64_t3736567304_m2911357929_gshared
kIb:__Z17BeginSplashScreenb
U0i:_Collection_1_Remove_m3022471627_gshared
lok:___fseeko_unlocked
Opa:__ZN9Scripting11UnityEngine12Experimental9Playables21TexturePlayableOutput12CleanupProxyEv
fHf:_Object_ToString_m1740002499
dok:_sscanf
Xud:_ExecuteEvents_GetEventChain_m2404658789
xHi:_Array_Resize_TisUILineInfo_t4195266810_m3763058392_gshared
YOe:_SByte_ToString_m3584531119_AdjustorThunk
Xhc:__ZN9ShaderLab16SerializedShader8TransferI19StreamedBinaryWriteILb0EEEEvRT_
Jkj:_TrackableProperty_GetHashCode_m3407865350
ku:__ZN7mecanim9animation18CreateAvatarMemoryEPKNS0_14AvatarConstantERNS_6memory9AllocatorE
u0g:_Convert_ToInt32_m1876369743
rpf:_ModulusRing__ctor_m2420310199
R_g:_Convert_ToDateTime_m626620011
R2f:_Enumerator_System_Collections_IDictionaryEnumerator_get_Key_m2500634048_AdjustorThunk
BE:__ZN7mecanim8skeleton16SkeletonPoseCopyIN4math4trsXENS2_7affineXEEEvPKNS0_13SkeletonPoseTIT_EEPNS5_IT0_EE
fxb:__Z18Transfer_BlittableI19StreamedBinaryWriteILb0EELb0EaEvRK29SerializationCommandArgumentsR31RuntimeSerializationCommandInfo
JLh:_List_1_Remove_m3037048099_gshared
XPb:__ZN18GfxFramebufferGLES18GetFramebufferNameERK20GfxRenderTargetSetup
Fna:__ZN9Scripting11UnityEngine9Transform9InitProxyEv
bVj:__ZN6il2cpp2vm14TypeNameParser12ParseVersionERKNSt3__212basic_stringIcNS2_11char_traitsIcEENS2_9allocatorIcEEEERtSB_SB_SB_
Bdf:_InputField_MoveDown_m1455948167
uIc:__Z30Event_Get_Custom_PropCharacterP12Il2CppObject
sea:__ZN13PlayableGraph27SchedulePlayableDestructionERK9HPlayable
$1c:_cff_get_mm_var
vvk:_glGetFramebufferAttachmentParameteriv__wrapper
RQd:_ChannelServices_GetCurrentChannelInfo_m3041604116
YYf:_InternalEnumerator_1__ctor_m2635640285_AdjustorThunk
Zpb:__Z22scripting_array_length17ScriptingArrayPtr
XAf:_SynchronizedReader_Peek_m148942882
Ufi:__Z95RuntimeInvoker_Void_t1185182177_RuntimeObject_Int32_t2950945753_Int32_t2950945753_RuntimeObjectPFvvEPK10MethodInfoPvPS4_
PPa:__ZN14SafeBinaryRead20TransferTypelessDataEjPvi
N8j:__ZN15dense_hashtableINSt3__24pairIK10KeyWrapperIPcES3_EES4_N6il2cpp5utils15PassThroughHashIS3_EEN14dense_hash_mapIS4_S3_SA_NS4_14EqualsComparerINS0_8equal_toIS3_EEEENS0_9allocatorIS6_EEE9SelectKeyESF_SH_E3endEv
S8c:_Horizontal_Sweep_Init
aCa:__Z19GetActiveColorSpacev
T3c:_UNITY_tt_face_load_kern
RKd:_MonoMethodInfo_GetDeclaringType_m2924452727
A3:__Z6StrCmpPKcS0_
EGf:_NumberFormatter_AppendIntegerString_m2257376141
Kjc:__Z21CheckGpuProgramUsable20ShaderGpuProgramType
tuc:__ZN13ProduceHelperI14Texture2DArrayLb0EE7ProduceE10MemLabelId18ObjectCreationMode
Bak:__ZN6il2cpp2os9Directory20GetFileSystemEntriesERKNSt3__212basic_stringIcNS2_11char_traitsIcEENS2_9allocatorIcEEEESA_iiPi
Gog:_Array_System_Collections_IList_Add_m1063688101
hYc:__ZN20TextRenderingPrivate19NativeTextGenerator5SetupEv
e3b:__ZNK15SharedLightData24GetFinalShadowResolutionEv
waj:_PatternCompiler_EmitAlternationEnd_m2444359097
Fpe:__ZL91GameObject_t1113636619_CustomAttributesCacheGenerator_GameObject_get_activeSelf_m1767405923P21CustomAttributesCache
L2a:__ZN12AspectRatios8TransferI18StreamedBinaryReadILb0EEEEvRT_
clc:__ZN10GameObject14CopyPropertiesERS_
YJc:__Z44Register_UnityEngine_GUIStyle_get_fixedWidthv
ebh:_Array_InternalArray__ICollection_Remove_TisLink_t544317964_m1280781374_gshared
jak:__ZNSt3__214__split_bufferIN6il2cpp2os10ThreadImpl10APCRequestERNS_9allocatorIS4_EEEC2EjjS7_
Yqg:_BitConverter_DoubleWordsAreSwapped_m1474345095
Bvg:_FixedSizeArrayListWrapper_set_Capacity_m4221053039
Gok:_rand
Zvk:_emscripten_glFramebufferRenderbuffer__wrapper
gBc:__ZN13MeshScripting10CreateMeshE21ScriptingObjectOfTypeI4MeshE
eyj:_ListPool_1__cctor_m3480273184_gshared
Bnf:_Slider_FindSelectableOnLeft_m1667068522
lri:__Z56RuntimeInvoker_Void_t1185182177_PropertyName_t3749835189PFvvEPK10MethodInfoPvPS4_
Wx:__ZN17AnimationPlayable22PrepareAnimationEventsEfR13dynamic_arrayI22AnimationClipEventInfoLj0EE
Dud:__ZN23InterfaceActionInvoker1IP25BaseEventData_t3903027533E6InvokeEjP11Il2CppClassP12Il2CppObjectS1_
Yqb:__ZN14SafeBinaryRead21TransferSTLStyleArrayINSt3__26vectorI17AnimationCurveTplIfE13stl_allocatorIS4_L18MemLabelIdentifier1ELi16EEEEEEvRT_17TransferMetaFlags
ewg:_SynchronizedArrayListWrapper_Contains_m3809499313
byf:_HandshakeMessage_Compare_m2214647946
rbh:_Array_InternalArray__ICollection_Remove_TisLabelData_t360167391_m3556246844_gshared
KQj:__ZN15dense_hashtableINSt3__24pairIK10KeyWrapperINS1_IPK11Il2CppImageP11Il2CppClassEEEjEES9_17ReflectionMapHashIS8_EN14dense_hash_mapIS9_jSD_NS9_14EqualsComparerINS0_8equal_toIS8_EEEENS0_9allocatorISB_EEE9SelectKeyESI_SK_E12expand_arrayEjN21dense_hash_map_traits17integral_constantIbLb0EEE
fkb:__ZN9GfxDevice30ResolveComputeProgramResourcesE12ObjectHandleI18ComputeProgram_TagPvER19ComputeShaderKernelR13dynamic_arrayI15ComputeShaderCBLj0EERS6_I18ComputeShaderParamLj0EEb
ARe:_HMACSHA256__ctor_m346174875
VUe:_Color_op_Multiply_m2887457390
XWi:_List_1_Remove_m2092443302_gshared
C5b:__Z22PrepareOptimizedPlanesPK5PlaneiPKN4math7_float4E
RSf:_InternalEnumerator_1__ctor_m1559487635_gshared
$$:__ZN11UnityEngine15CloudWebService17WebFileDownloaderINS0_20WebRequestRestClientENS0_23WebRequestRestHeaderMapEE10InitializeERKN4core12basic_stringIcNS5_20StringStorageDefaultIcEEEE
Ica:__ZN17UniqueIDGenerator15CreatePureIndexEv
Isc:__Z48InitializeRectTransformAnimationBindingInterfacev
i5a:__ZNSt3__26vectorIN15ResourceManager10DependencyE13stl_allocatorIS2_L18MemLabelIdentifier52ELi16EEE6assignINS_11__wrap_iterIPS2_EEEENS_9enable_ifIXaasr21__is_forward_iteratorIT_EE5valuesr16is_constructibleIS2_NS_15iterator_traitsISC_E9referenceEEE5valueEvE4typeESC_SC_
BAj:__ZN15dense_hashtableINSt3__24pairIK10KeyWrapperIPK22Il2CppGenericParameterEP11Il2CppClassEES6_N6il2cpp5utils11PointerHashIS4_EEN14dense_hash_mapIS6_S9_SE_NS6_14EqualsComparerINS0_8equal_toIS5_EEEENS0_9allocatorISA_EEE9SelectKeyESJ_SL_E14squash_deletedEv
uLa:__ZN9ShaderLabL27GetDesiredRenderTextureDescEPK6Camera
e6d:__ZL131RSACryptoServiceProvider_t2683512874_CustomAttributesCacheGenerator_RSACryptoServiceProvider_t2683512874____PublicOnly_PropertyInfoP21CustomAttributesCache
bFi:_Array_InternalArray__Insert_TisMark_t3471605523_m2854535880_gshared
LAc:__ZN4Mesh24UpdateSubMeshVertexRangeEi
WIc:__Z14GUIClipTextureP9Texture2DPhiiii
Bse:__ZL52HumanBone_t2465339518_CustomAttributesCacheGeneratorP21CustomAttributesCache
CHe:_MethodReturnDictionary__cctor_m278392388
aZb:__ZNK9Transform18TransformDirectionERK8Vector3f
b3i:_SslStreamBase_get_CanWrite_m1622082918
deb:__ZNK17ArchiveFileSystem12GetAssetGUIDERK13FileEntryData
TDe:__ZL80CanvasScaler_t2767979955_CustomAttributesCacheGenerator_m_ReferencePixelsPerUnitP21CustomAttributesCache
L5d:__ZL47HMAC_t2621101144_CustomAttributesCacheGeneratorP21CustomAttributesCache
uoh:_Thread_GetSerializedCurrentUICulture_m3681656498
PHh:_Enumerator_MoveNext_m2114485647_gshared
DMf:_GenericTypeParameterBuilder_GetCustomAttributes_m580748276
Xjj:_AnalyticsTracker_get_TP_m2800669040
qHj:__ZN15dense_hashtableINSt3__24pairIK10KeyWrapperIPK11Il2CppClassEPKcEES6_N6il2cpp5utils11PointerHashIS3_EEN14dense_hash_mapIS6_S9_SE_NS6_14EqualsComparerINS0_8equal_toIS5_EEEENS0_9allocatorISA_EEE9SelectKeyESJ_SL_E12resize_deltaEjj
pqk:__ZNK10__cxxabiv120__si_class_type_info27has_unambiguous_public_baseEPNS_19__dynamic_cast_infoEPvi
wpf:_Kernel_LeftShift_m4140742987
VHf:_Assembly_GetManifestResourceInternal_m1224391897
PCa:__Z30AddDefaultStreamsToMeshBuffersR9GfxDeviceR11MeshBuffersj17ShaderChannelMaskS3_
M3:__ZL16GetInterfaceImpl18UnityInterfaceGUID
Zck:__ZN6il2cpp6icalls8mscorlib6System15MonoCustomAttrs27GetCustomAttributesInternalEP12Il2CppObjectP20Il2CppReflectionTypeb
Sb:invoke_viifi
X7c:_UNITY_TT_Set_MM_Blend
pra:__ZN9Scripting11UnityEngine11Application9InitProxyEv
d2i:_InternalAsyncResult_get_FromWrite_m4228047810
hji:__Z53RuntimeInvoker_MonoEventInfo_t346866618_RuntimeObjectPFvvEPK10MethodInfoPvPS4_
UUh:_Collection_1_CopyTo_m955200729_gshared
CIb:__ZN14PreloadManager35WaitForAllAsyncOperationsToCompleteEv
QCj:__ZN13Il2CppHashMapIP9FieldInfoiN6il2cpp5utils11PointerHashIS0_EENSt3__28equal_toIS1_EENS6_9allocatorINS6_4pairIK10KeyWrapperIS1_EiEEEEEC2EjRKS5_RKS8_
xwe:__ZL103UISystemProfilerApi_t2230074258_CustomAttributesCacheGenerator_UISystemProfilerApi_AddMarker_m495483138P21CustomAttributesCache
G5:__ZNK18ScriptingObjectPtr17ToScriptingStringEv
rM:__ZL31InitializeAudioScriptingClassesv
vYb:__Z14SortGUIByDepthP10GUIElementS0_
aBb:__ZN18StreamedBinaryReadILb1EE21TransferSTLStyleArrayI13dynamic_arrayIhLj0EEEEvRT_17TransferMetaFlags
H0e:_PlayerConnection_OnEnable_m4286555589
$ni:__Z69RuntimeInvoker_UInt32_t2560061978_Int32_t2950945753_SByte_t1669577662PFvvEPK10MethodInfoPvPS4_
tF:__ZN12_GLOBAL__N_120ProcessRootMotionMixER33AnimationPlayableEvaluationOutputR35AnimationPlayableEvaluationConstantR32AnimationPlayableEvaluationInputS1_f
cfj:_UriParser__cctor_m3655686731
dgf:_LayoutRebuilder_U3Cs_RebuildersU3Em__0_m589488547
dDi:__Z53RuntimeInvoker_KeyValuePair_2_t71524366_RuntimeObjectPFvvEPK10MethodInfoPvPS4_
Xcb:__ZNK20LocalFileSystemPosix21GetAvailableDiskSpaceEPKcRy
wK:__ZNSt3__26__treeIiNS_4lessIiEENS_9allocatorIiEEE7destroyEPNS_11__tree_nodeIiPvEE
xhb:__ZNK9GfxDevice14GetWorldMatrixEv
TJj:_RemoteConfigSettings_t1247263429_marshal_pinvoke
L8e:_Transform_set_parent_m786917804
Mnj:_AudioSampleProvider_InternalSetScriptingPtr_m3742743270
fnf:_Slider_get_value_m739683640
tbb:__Z19scripting_array_new17ScriptingClassPtrjj
C0g:_Convert_ToInt32_m2128774575
LR:__ZN11SoundHandle13CreateChannelEb
Poh:_WaitCallback_BeginInvoke_m3012509827
ngc:__ZNSt3__26vectorIN9ShaderLab20SerializedSubProgram16TextureParameterENS_9allocatorIS3_EEE6assignIPS3_EENS_9enable_ifIXaasr21__is_forward_iteratorIT_EE5valuesr16is_constructibleIS3_NS_15iterator_traitsISA_E9referenceEEE5valueEvE4typeESA_SA_
TFj:__ZN13Il2CppHashMapIN6il2cpp5utils13dynamic_arrayIPK10Il2CppTypeLj4EEEPFvvENS0_8metadata19Il2CppSignatureHashENS9_22Il2CppSignatureCompareENSt3__29allocatorINSC_4pairIK10KeyWrapperIS6_ES8_EEEEEC2EjRKSA_RKSB_
YSi:__ZN21InterfaceFuncInvoker0I22UILineInfo_t4195266810E6InvokeEjP11Il2CppClassP12Il2CppObject
tgi:__Z122RuntimeInvoker_Void_t1185182177_RuntimeObject_RuntimeObject_ContractionU5BU5DU26_t2277527001_Level2MapU5BU5DU26_t359320357PFvvEPK10MethodInfoPvPS4_
kTj:__ZN15dense_hashtableINSt3__24pairIK10KeyWrapperIPK22Il2CppGenericParameterEPK24MonoGenericParameterInfoEES6_N6il2cpp5utils11PointerHashIS4_EEN14dense_hash_mapIS6_SA_SF_NS6_14EqualsComparerINS0_8equal_toIS5_EEEENS0_9allocatorISB_EEE9SelectKeyESK_SM_E15set_deleted_keyERKSB_
WOe:_SByte_TryParse_m2431806379
bEj:__ZNK15dense_hashtableINSt3__24pairIK10KeyWrapperIP9FieldInfoEiEES5_N6il2cpp5utils11PointerHashIS3_EEN14dense_hash_mapIS5_iSB_NS5_14EqualsComparerINS0_8equal_toIS4_EEEENS0_9allocatorIS7_EEE9SelectKeyESG_SI_E8min_sizeEjj
Ebe:__ZL64ObjectDisposedException_t21392786_CustomAttributesCacheGeneratorP21CustomAttributesCache
oIa:__ZN6prcoreL11inner_clearILj2EEEvPhjjj
$ra:__ZN9Scripting5Unity11Collections8LowLevel6Unsafe24NativeContainerAttribute9InitProxyEv
yQe:_DSACryptoServiceProvider_get_KeySize_m786836990
ODj:__ZNSt3__218uninitialized_fillIPNS_4pairIK10KeyWrapperIPKcEP11Il2CppClassEES9_EEvT_SB_RKT0_
Hg:_emscripten_exit_fullscreen
DGi:_Array_qsort_TisBoolean_t97287965_TisBoolean_t97287965_m214793583_gshared
XGh:_Enumerator_System_Collections_IEnumerator_Reset_m1564381721_gshared
Osc:__ZZL31RegisterRectTransformPropertiesR22GenericPropertyBindingEN39Wrapper_RectTransformAnchoredPositiony113GetFloatValueEPv
$Gf:_Object_MemberwiseClone_m1474068832
t9j:__ZN6il2cpp6icalls8mscorlib6System6String19InternalAllocateStrEi
hSc:__Z29Transfer_Blittable_ArrayFieldI8JSONRead11QuaternionfEvRT_R9ArrayInfoRK23StaticTransferFieldInfo
Ecb:__ZN20LocalFileSystemPosix8SetFlagsER13FileEntryDatajj
Joc:__Z45Register_UnityEngine_Camera_get_targetDisplayv
mxc:__ZNK24RendererAnimationBinding15GenerateBindingERKN4core12basic_stringIcNS0_20StringStorageDefaultIcEEEEbRN11UnityEngine9Animation14GenericBindingE
Ncg:_IPv6Address__ctor_m3704187391
CHa:__Z15GetFlareManagerv
spc:__ZN15ApplicationInfo24GetApplicationIdentifierEv
$sa:__ZN9Behaviour8TransferI18StreamedBinaryReadILb0EEEEvRT_
ou:__ZN8Animator13GetAvatarRootEv
Jgh:_Array_InternalArray__ICollection_Add_TisResourceCacheItem_t51292791_m3851804827_gshared
Gmk:___toread
rGb:__ZNSt3__26vectorI10vector_mapIiiNS_4lessIiEE13stl_allocatorINS_4pairIiiEEL18MemLabelIdentifier38ELi16EEES4_IS9_LS7_38ELi16EEE26__swap_out_circular_bufferERNS_14__split_bufferIS9_RSA_EE
Uof:_BigInteger_get_Rng_m3283260184
Sqk:___cxa_is_pointer_type
nJ:__ZN8Animator22ScriptingStringToCRC32ERK11ICallString
nce:__ZL55EventHandler_t1348719766_CustomAttributesCacheGeneratorP21CustomAttributesCache
vF:__ZN7mecanim9animation16EvaluateAvatarDXEPKNS0_14AvatarConstantEPKNS0_11AvatarInputEPNS0_12AvatarMemoryEPNS0_15AvatarWorkspaceEPNS0_12AvatarOutputE
Rwd:_RaycastResult_ToString_m2678663776_AdjustorThunk
BKi:_Array_InternalArray__get_Item_TisKeyValuePair_2_t2530217319_m2886833132_gshared
UAb:__ZN18StreamedBinaryReadILb1EE21TransferSTLStyleArrayI13dynamic_arrayIN4math12int3_storageELj0EEEEvRT_17TransferMetaFlags
Mka:__ZL50__ManagedRegistrationHelperFunction_UnityEventBasePv
mqc:__Z34Transform_CUSTOM_SetAsFirstSiblingP12Il2CppObject
$Nj:__ZNK15dense_hashtableINSt3__24pairIK10KeyWrapperINS1_IPK14Il2CppAssemblyP11Il2CppClassEEEjEES9_17ReflectionMapHashIS8_EN14dense_hash_mapIS9_jSD_NS9_14EqualsComparerINS0_8equal_toIS8_EEEENS0_9allocatorISB_EEE9SelectKeyESI_SK_E10test_emptyEj
Cqj:__ZL25UnresolvedVirtualCall_129P12Il2CppObjectjijPK10MethodInfo
mgi:__Z63RuntimeInvoker_Void_t1185182177_RuntimeObject_SByte_t1669577662PFvvEPK10MethodInfoPvPS4_
fhe:__ZL57SetupCoroutine_t2062820429_CustomAttributesCacheGeneratorP21CustomAttributesCache
qdf:_InputField_Delete_m3471899192
Fae:__ZL79Convert_t2465617642_CustomAttributesCacheGenerator_Convert_ToUInt64_m1627266664P21CustomAttributesCache
m3d:__ZL91UrlAttribute_t221584584_CustomAttributesCacheGenerator_UrlAttribute_IsContextOK_m1228378186P21CustomAttributesCache
VJe:_RemotingConfiguration_get_ProcessId_m2180277012
fsj:__ZL25UnresolvedVirtualCall_214P12Il2CppObjectS0_iPK10MethodInfo
xY:__ZN11UnityEngine15CloudWebService17SessionEventQueue14ParseEventDataERKN4core12basic_stringIcNS2_20StringStorageDefaultIcEEEE
rdg:_WebHeaderCollection_Add_m183143026
NKh:_List_1_Remove_m2605758101_gshared
QOb:__ZN13TranslateGLES4InitERK12GraphicsCaps16GfxDeviceLevelGL
jDb:__Z29Transfer_Blittable_ArrayFieldI18StreamedBinaryReadILb0EE10ColorRGBAfEvRT_R9ArrayInfoRK23StaticTransferFieldInfo
Wzj:_NativeTypeAttribute_set_CodegenOptions_m3839252515
gCh:_EqualityComparer_1_get_Default_m180770000_gshared
AHg:_Int64_System_IConvertible_ToUInt16_m848637338_AdjustorThunk
uid:__Z32CustomEventData_CUSTOM_AddUInt32P12Il2CppObjectP12Il2CppStringj
$eh:_Array_InternalArray__IndexOf_TisLink_t544317964_m455584088_gshared
BXi:_Enumerator_get_Current_m2282646120_AdjustorThunk
z$h:_ReadOnlyCollection_1_IndexOf_m2539022912_gshared
uSh:_KeyGeneratedEventHandler__ctor_m1990062371
$Ce:__ZL66Selectable_t3250028441_CustomAttributesCacheGenerator_m_TransitionP21CustomAttributesCache
xkk:__ZN6il2cpp2os6Memory12AlignedAllocEjj
eHh:_Enumerator_get_Current_m2305210644_AdjustorThunk
lPc:__ZN9JSONWrite8TransferI13dynamic_arrayIN4math12int3_storageELj0EEEEvRT_PKc17TransferMetaFlags
lof:_Text_set_alignByGeometry_m3828822280
Ydk:__ZN6il2cpp8metadataL7CompareEPK10Il2CppTypeS3_
Xsb:__Z18Transfer_BlittableI17RemapPPtrTransferLb0E11ColorRGBA32EvRK29SerializationCommandArgumentsR31RuntimeSerializationCommandInfo
T9f:_HybridDictionary__ctor_m1681134385
kya:__ZN21ScalableBufferManager11GetInstanceEv
ABb:__Z18Transfer_BlittableI18StreamedBinaryReadILb0EELb1E10ColorRGBAfEvRK29SerializationCommandArgumentsR31RuntimeSerializationCommandInfo
xQa:__ZN12CubemapArray23VirtualRedirectTransferER17RemapPPtrTransfer
Fqh:_TimeSpan_op_LessThan_m1594498345
Umc:__ZL27GetComponentsImplementationILb0ELi0EEbR10GameObjectbRK17CompareParametersRK39GetComponentsImplementation_ReturnValue
qFb:__ZN9Scripting36IsSystemCollectionsGenericDictionaryE17ScriptingClassPtr
Dai:_UnityEvent_1_FindMethod_Impl_m322741469_gshared
Q3d:__ZL92ConstructionCallDictionary_t686578562_CustomAttributesCacheGenerator_U3CU3Ef__switchU24map24P21CustomAttributesCache
vDe:__ZL64Slider_t3903728902_CustomAttributesCacheGenerator_m_WholeNumbersP21CustomAttributesCache
$8e:_Enumerator_get_Current_m2591725252
J9:__ZL16ReadTypeTreeImplILb0EEbR8TypeTreeRK16TypeTreeIteratorRPKhS6_i
fkg:_Interval_Contains_m110351300_AdjustorThunk
v0g:_Convert_ToInt32_m3048308591
Eu:__ZN25RuntimeAnimatorControllerD2Ev
$Ee:__ZL77LayoutUtility_t2745813735_CustomAttributesCacheGenerator_U3CU3Ef__amU24cache6P21CustomAttributesCache
uif:_RectMask2D_OnCanvasHierarchyChanged_m3195492255
P4g:_DateTimeOffset_Equals_m3030958070
fHa:__ZNK22BuiltinResourceManager21GetResourceInstanceIDEPKN5Unity4TypeERKN4core12basic_stringIcNS4_20StringStorageDefaultIcEEEE
kDb:__ZN18StreamedBinaryReadILb0EE21TransferSTLStyleArrayI13dynamic_arrayI10ColorRGBAfLj0EEEEvRT_17TransferMetaFlags
noc:__Z42Register_UnityEngine_RectOffset_set_bottomv
$jj:_AnalyticsTracker_BuildParameters_m43920649
rsj:__ZL25UnresolvedVirtualCall_226P12Il2CppObject23SpriteState_t1362986479PK10MethodInfo
GJc:__Z28GUIStyleState_CUSTOM_CleanupP12Il2CppObject
cCg:_DateTimeFormatInfo_GetMonthName_m2034512315
A_b:__ZN28LightProbeProxyVolumeContext8CopyFromERKS_
k0h:_ReadOnlyCollection_1_System_Collections_Generic_IListU3CTU3E_Insert_m2489506856_gshared
qxa:__ZN23TransformChangeDispatch32QueueTransformChangeIfHasChangedER18TransformHierarchy
WMh:_SimpleCollator_ToDashTypeValue_m6184468
vRb:__ZN7ApiGLES18DeleteRenderbufferERj
HQb:__ZL23ProgramUniformMatrix4fvPK7ApiGLESjiihPKv
IKb:__ZN7ApiGLES13CreateTextureEjj14GraphicsFormatiiiii
Zpg:_Array_new_gap_m262136975
Vfc:__ZN9ShaderLab20SerializedSubProgram15MatrixParameter8TransferI14SafeBinaryReadEEvRT_
Wmc:__ZL27GetComponentsImplementationILb0ELi1EEbR10GameObjectbRK17CompareParametersRK39GetComponentsImplementation_ReturnValue
ggg:_X509Store__ctor_m275383717
u8e:_Transform_INTERNAL_get_position_m1310184257
I6c:_Round_Down_To_Grid
MIj:__ZN6il2cpp2vm13MetadataCache40AddThreadLocalStaticOffsetForFieldLockedEP9FieldInfoiRKNS_2os12FastAutoLockE
Kza:__ZN13RenderTexture7ReleaseEv
GPc:__Z18Transfer_BlittableI8JSONReadLb1EN4math12int3_storageEEvRK29SerializationCommandArgumentsR31RuntimeSerializationCommandInfo
H_a:__ZN10MeshFilter23VirtualRedirectTransferER14SafeBinaryRead
AEe:__ZL64LayoutGroup_t2436138090_CustomAttributesCacheGenerator_m_PaddingP21CustomAttributesCache
Wdg:_AsnEncodedData_get_Oid_m402887164
W0a:__ZN12MeshRenderer17MainThreadCleanupEv
qBj:__ZN6il2cpp2vmL10InitLockedEP11Il2CppClassRKNS_2os12FastAutoLockE
gmb:__ZN22CreateGpuProgramOutput12CreateParamsEv
zN:__ZN10ObjectPoolIN4FMOD7ChannelENS0_8ChannelIEE7GetFreeEi
Bs:__ZL62__ManagedRegistrationHelperFunction_AnimatorOverrideControllerPv
w0h:_ReadOnlyCollection_1_System_Collections_IList_Insert_m177536056_gshared
BDd:_FontData_get_font_m2720086288
GTf:_InternalEnumerator_1_System_Collections_IEnumerator_get_Current_m548105685_gshared
HOb:__ZNK14GfxContextGLES13GetDefaultFBOEv
oBi:__Z99RuntimeInvoker_Void_t1185182177_UILineInfoU5BU5DU26_t2468919161_Int32_t2950945753_Int32_t2950945753PFvvEPK10MethodInfoPvPS4_
_rg:_Byte_System_IConvertible_ToType_m2251112646
NEc:__Z55Register_UnityEngine_MonoBehaviour_StopCoroutineManagedv
fvi:__Z81RuntimeInvoker_Char_t3634460470_RuntimeObject_Int32_t2950945753_Int16_t2552820387PFvvEPK10MethodInfoPvPS4_
J3g:_DateTime_get_Hour_m4153505178_AdjustorThunk
Xmj:_AudioExtensionManager_WriteExtensionProperties_m3028464154
MRg:_Evidence_Equals_m1478353107
S8i:_CostDelegate__ctor_m4027655829
nAc:__Z13GetImagePixelI10ColorRGBAfET_PKhii13TextureFormat15TextureWrapModeS5_ii
$Qi:_List_1_System_Collections_IList_set_Item_m1842844683_gshared
nyj:_ObjectPool_1__ctor_m2535233435_gshared
jbi:_EventFunction_1__ctor_m4292798223_gshared
vYj:__ZN6il2cpp2vm6Thread49CheckCurrentThreadForInterruptAndThrowIfNecessaryEv
a_g:_Convert_ToChar_m3757390865
uCa:__ZNSt3__23mapIN9ShaderLab16FastPropertyNameEN18UnityPropertySheet11UnityTexEnvENS_4lessIS2_EENS_9allocatorINS_4pairIKS2_S4_EEEEEixERS9_
JKb:__ZNK13TranslateGLES25GetTextureTargetDimensionEj
JHf:_RankException__ctor_m3453633632
W3h:_Comparison_1__ctor_m533218197_gshared
uBi:__Z96RuntimeInvoker_Void_t1185182177_Vector3U5BU5DU26_t3038522815_Int32_t2950945753_Int32_t2950945753PFvvEPK10MethodInfoPvPS4_
xZh:_ReadOnlyCollection_1_System_Collections_IList_Remove_m1842121503_gshared
Oyg:_File_OpenRead_m2936789020
x5:__ZN9Scripting12LogExceptionE21ScriptingExceptionPtriPKcb
Xri:__Z94RuntimeInvoker_Void_t1185182177_RuntimeObject_PlayableGraph_t3515989261_RuntimeObject_IntPtr_tPFvvEPK10MethodInfoPvPS4_
Ii:_emscripten_glVertexAttrib4f
Wrb:__ZN14SafeBinaryRead21TransferSTLStyleArrayI13dynamic_arrayIN4math12int3_storageELj0EEEEvRT_17TransferMetaFlags
VZf:_InternalEnumerator_1_System_Collections_IEnumerator_Reset_m4072625129_AdjustorThunk
hjc:__ZNSt3__26vectorIN20GpuProgramParameters14ConstantBufferENS_9allocatorIS2_EEE8__appendEj
Qgg:_X509CertificateCollection_AddRange_m3683116910
HWf:_InternalEnumerator_1_Dispose_m1837758743_AdjustorThunk
ozj:_CustomEventData_t317522481_marshal_pinvoke_cleanup
rRd:_SinkProviderData__ctor_m1624738837
V$b:__ZN11HaloManager21ReleaseGeometryJobMemEP25DynamicVBOGeometryJobData
EJg:_DirectoryNotFoundException__ctor_m1689636868
Bui:__Z88RuntimeInvoker_RuntimeObject_RuntimeObject_SByte_t1669577662_RuntimeObject_RuntimeObjectPFvvEPK10MethodInfoPvPS4_
SZh:_ReadOnlyCollection_1_System_Collections_Generic_IListU3CTU3E_get_Item_m978644313_gshared
dVh:_Collection_1_get_Item_m2253972692_gshared
RHd:_RefEmitPermissionSet_t484390987_marshal_pinvoke_cleanup
rJf:_CustomAttributeTypedArgument_Equals_m2261980307
Wz:__ZN7mecanim12statemachine24CreateStateMachineMemoryEPKNS0_20StateMachineConstantERNS_6memory9AllocatorE
sjb:__ZN9GfxDevice18SetGlobalDepthBiasEff
qLj:__ZN6il2cpp6icalls8mscorlib6System8MonoType12get_AssemblyEP20Il2CppReflectionType
rLg:_IsolatedStorageException__ctor_m3386787868
TId:_TypeBuilder_MakeGenericType_m2799607032
ojg:_RepeatContext_get_Start_m1076992038
U2h:_ReadOnlyCollection_1_IndexOf_m3669095250_gshared
Wi:_emscripten_glGetPointerv
NQi:_List_1_System_Collections_Generic_IEnumerableU3CTU3E_GetEnumerator_m3687886202_gshared
rJi:_Dictionary_2_Do_CopyTo_TisKeyValuePair_2_t3842366416_TisRuntimeObject_m1564656153_gshared
cF:__ZN8Animator22ApplyBuiltinRootMotionEv
Rqc:__Z14BezierExtractUfff
_Hb:__Z26ApplyMaterialPassWithCacheRK18SharedMaterialDataR17ShaderPassContextP6ShaderPN9ShaderLab4PassEibPKNS6_10GrabPassesEPNS6_11SubProgramsEPK22DeviceRenderStateBlock
Ami:__Z55RuntimeInvoker_DateTime_t3738529785_TimeSpan_t881159249PFvvEPK10MethodInfoPvPS4_
Ige:__ZL81Camera_t4157153871_CustomAttributesCacheGenerator_Camera_RaycastTry2D_m2460696262P21CustomAttributesCache
YEf:_MulticastDelegate_KPM_m22863605
mXf:_InternalEnumerator_1_get_Current_m1897120917_AdjustorThunk
vEf:_MonoType_ReorderParamArrayArguments_m2458683451
vLe:_FormatterConverter_ToInt16_m4282804414
iki:__Z81RuntimeInvoker_Void_t1185182177_Int64_t3736567304_RuntimeObject_Int64_t3736567304PFvvEPK10MethodInfoPvPS4_
vxd:_StandaloneInputModule_ProcessTouchPress_m4019232747
Ryg:_FileStream__ctor_m3151488352
Ypg:_Array_swap_m547389985
vUa:__ZN8Renderer23VirtualRedirectTransferER14SafeBinaryRead
fuh:_UInt32_ToString_m2420423038
aOi:_List_1_System_Collections_IList_Add_m634558835_gshared
N2h:_ReadOnlyCollection_1_System_Collections_IList_get_IsFixedSize_m1923250479_gshared
eKg:_FileStream_get_Length_m426703983
Wyc:__Z13RegisterClassI10TagManagerEvPKc
i8f:_Enumerator__ctor_m1558933899_AdjustorThunk
zce:__ZL88BigInteger_t2902905090_CustomAttributesCacheGenerator_BigInteger_op_Implicit_m3414367033P21CustomAttributesCache
ABj:__ZN6il2cpp2vmL15GetBitmapNoInitEP11Il2CppClassPjRjj
gsj:__ZL25UnresolvedVirtualCall_215P12Il2CppObjectS0_iPK10MethodInfo
dVi:_List_1_Remove_m2092085040_gshared
Tcc:__ZL13MotionHandleriPK27EmscriptenDeviceMotionEventPv
YL:__ZN12AudioManager5ResetEv
rdi:__Z67RuntimeInvoker_Boolean_t97287965_RuntimeObject_SByteU26_t3619038962PFvvEPK10MethodInfoPvPS4_
dge:__ZL68DisallowMultipleComponent_t1422053217_CustomAttributesCacheGeneratorP21CustomAttributesCache
KZh:_ReadOnlyCollection_1_get_Count_m1336304542_gshared
hFe:__ZL111LayoutUtility_t2745813735_CustomAttributesCacheGenerator_LayoutUtility_U3CGetPreferredHeightU3Em__6_m3049688934P21CustomAttributesCache
hia:__ZN6prcoreL17RemapGenericFloatI17TexFormatRGBAHalf15TexFormatRGHalfEEvPKNS_9InnerInfoE
ZSj:__ZNK15dense_hashtableINSt3__24pairIK10KeyWrapperIPK14Il2CppAssemblyEPK22Il2CppMonoAssemblyNameEES6_N6il2cpp5utils11PointerHashIS4_EEN14dense_hash_mapIS6_SA_SF_NS6_14EqualsComparerINS0_8equal_toIS5_EEEENS0_9allocatorISB_EEE9SelectKeyESK_SM_E10test_emptyEj
Mak:__ZN6il2cpp6icalls8mscorlib6System11Environment20GetWindowsFolderPathEi
pZg:_Convert_ToBoolean_m2833752130
Ky:__ZN7mecanim5human18HumanPoseBlendNodeERNS0_9HumanPoseEPS1_f
$0c:_UNITY_FT_RoundFix
EX:__ZN23CloudWebServicesManager23VirtualRedirectTransferER17RemapPPtrTransfer
yUc:__ZN9Scripting11UnityEngine19PhysicsJobOptions2D12CleanupProxyEv
shk:_GC_is_heap_ptr
QPh:_ASN1_DecodeTLV_m1200977460
LXe:_UnityEventBase_PrepareInvoke_m1785382128
qJd:__ZN23InterfaceActionInvoker2IP12Il2CppObjectP20Delegate_t1188392813E6InvokeEjP11Il2CppClassS1_S1_S3_
Y0a:__ZNK12MeshRenderer22GetTypeVirtualInternalEv
ttg:_Char_System_IConvertible_ToUInt32_m3901815580
Fjf:_Scrollbar_set_onValueChanged_m346467699
Imi:__Z157RuntimeInvoker_Int32_t2950945753_RuntimeObject_Int32_t2950945753_Int32_t2950945753_Int32_t2950945753_SByte_t1669577662_SByte_t1669577662_Int32U26_t1369213839PFvvEPK10MethodInfoPvPS4_
Txj:_ListPool_1_Release_m957266927_gshared
C4d:__ZL105ConfigHandler_t4192437216_CustomAttributesCacheGenerator_ConfigHandler_ValidatePath_m3895556516____paths1P21CustomAttributesCache
WO:__ZN4FMOD6System17setSoftwareFormatEi17FMOD_SOUND_FORMATii18FMOD_DSP_RESAMPLER
sMa:__ZN14SafeBinaryRead19TransferSTLStyleMapINSt3__23mapIN4core12basic_stringIcNS3_20StringStorageDefaultIcEEEES7_NS1_4lessIS7_EE13stl_allocatorINS1_4pairIKS7_S7_EEL18MemLabelIdentifier1ELi16EEEEEEvRT_17TransferMetaFlags
js:__ZL49__ManagedRegistrationHelperFunction_AimConstraintPv
Dgd:__ZN2UI6Canvas27UpdateEventIndexesRecursiveERi
EY:__ZN11UnityEngine15CloudWebService16SessionContainer21PrepareDataErrorEventERN4core12basic_stringIcNS2_20StringStorageDefaultIcEEEE
Lud:_ExecuteEvents_get_pointerUpHandler_m3515704212
nug:_ArrayList_set_Item_m2003485935
vbk:__ZNSt3__218uninitialized_copyIPNS_4pairIK10KeyWrapperIPK19Il2CppGenericMethodEP10MethodInfoEESB_EET0_T_SD_SC_
_Od:_SatelliteContractVersionAttribute__ctor_m3630863995
Cae:__ZL79Convert_t2465617642_CustomAttributesCacheGenerator_Convert_ToUInt64_m3102114524P21CustomAttributesCache
Ewd:_MouseButtonEventData_PressedThisFrame_m1060658845
isd:_AxisEventData_get_moveVector_m270528189
Bxb:__Z19TransferField_ArrayI19StreamedBinaryWriteILb0EE27Converter_SimpleNativeClassI8GUIStyleEEvRK23StaticTransferFieldInfoR31RuntimeSerializationCommandInfoRT0_
RZh:_ReadOnlyCollection_1_System_Collections_Generic_IListU3CTU3E_RemoveAt_m3969985996_gshared
tte:__ZL83AudioSource_t3935305588_CustomAttributesCacheGenerator_AudioSource_Play_m3389845180P21CustomAttributesCache
IEa:__Z28BuildSingleStreamChannelInfoP11ChannelInfo17ShaderChannelMaskS1_
TYa:__ZNK13ScreenManager12GetIsFocusedEv
F0e:_PlayerConnection_get_isConnected_m911966057
yFd:_GraphicRegistry_GetGraphicsForCanvas_m4219276355
gLg:__ZN23InterfaceActionInvoker3IP22ByteU5BU5D_t4116647657iiE6InvokeEjP11Il2CppClassP12Il2CppObjectS1_ii
qFf:_NumberFormatter_FastToDecHex_m699829267
S9i:_PatternCompiler_MakeFlags_m1977119795
uPc:__Z35Transfer_Blittable_FixedBufferFieldI8JSONReadiEvRK29SerializationCommandArgumentsR31RuntimeSerializationCommandInfo
j5d:__ZL59StreamingContext_t3711869237_CustomAttributesCacheGeneratorP21CustomAttributesCache
vJj:__ZNSt3__213__vector_baseIN6il2cpp2os19SocketHandleWrapperENS_9allocatorIS3_EEED2Ev
TYd:__ZL48_Type_t3588564251_CustomAttributesCacheGeneratorP21CustomAttributesCache
SAe:__ZL81FontUpdateTracker_t1839077620_CustomAttributesCacheGenerator_U3CU3Ef__mgU24cache0P21CustomAttributesCache
cVa:__ZN28ReflectionProbeAnchorManager18RemoveCachedAnchorERK4PPtrI9TransformE
$b:invoke_viiffi
i$d:__ZL103RegionInfo_t1090270226_CustomAttributesCacheGenerator_RegionInfo_t1090270226____NativeName_PropertyInfoP21CustomAttributesCache
Dac:__ZN13sorted_vectorINSt3__24pairIN4core12basic_stringIcNS2_20StringStorageDefaultIcEEEEPK17MessageIdentifierEEN10vector_mapIS6_S9_NS0_4lessIS6_EENS0_9allocatorISA_EEE13value_compareESF_E10insert_oneERKSA_
aF:__ZNSt3__227__insertion_sort_incompleteIRPFbPKN8Animator11AnimatorJobES4_EPS4_EEbT0_S9_T_
oY:__ZNSt3__26__treeINS_12__value_typeIN4core12basic_stringIcNS2_20StringStorageDefaultIcEEEEjEENS_19__map_value_compareIS6_S7_NS_4lessIS6_EELb1EEE13stl_allocatorIS7_L18MemLabelIdentifier88ELi16EEE4findIS6_EENS_15__tree_iteratorIS7_PNS_11__tree_nodeIS7_PvEEiEERKT_
HSc:__ZN5Unity9rapidjson13GenericReaderINS0_4UTF8IcEES3_13JSONAllocatorE10ParseFalseILj0ENS0_19GenericStringStreamIS3_EENS0_15GenericDocumentIS3_S4_S4_EEEEvRT0_RT1_
VCa:__ZL13MeshExtractorPv16VertexInputMasksiR11MeshBuffersR16DrawBuffersRangeRiS5_
uQa:__ZNK12CubemapArray20GetRuntimeMemorySizeEv
oqh:_TimeSpan_FromHours_m1109641064
Rgc:__Z14resize_trimmedINSt3__26vectorIN9ShaderLab18SerializedPropertyENS0_9allocatorIS3_EEEEEvRT_j
ssb:__Z18Transfer_BlittableI17RemapPPtrTransferLb0EN4math12int3_storageEEvRK29SerializationCommandArgumentsR31RuntimeSerializationCommandInfo
Hfe:__ZL92StaticAccessorAttribute_t2432663902_CustomAttributesCacheGenerator_U3CNameU3Ek__BackingFieldP21CustomAttributesCache
DYf:_InternalEnumerator_1__ctor_m4124630986_gshared
ZGj:__ZN6il2cpp2vm13MetadataCache38GetMethodInfoFromMethodDefinitionIndexEi
wtd:_EventSystem_set_current_m38955169
AEc:__Z39MonoBehaviour_CUSTOM_GetScriptClassNameP12Il2CppObject
ZCe:__ZL53Selectable_t3250028441_CustomAttributesCacheGeneratorP21CustomAttributesCache
U8i:_CostDelegate_EndInvoke_m2797921932
EXa:__ZN10VertexData8TransferI24GenerateTypeTreeTransferEEvRT_
FZg:_Double_IsInfinity_m820013146
H$g:__ZN21InterfaceFuncInvoker1I19Decimal_t2948259380P12Il2CppObjectE6InvokeEjP11Il2CppClassS2_S2_
abk:__ZN13Il2CppHashMapIPK19Il2CppGenericMethodP10MethodInfoN6il2cpp8metadata23Il2CppGenericMethodHashENS6_26Il2CppGenericMethodCompareENSt3__29allocatorINS9_4pairIK10KeyWrapperIS2_ES4_EEEEEC2EjRKS7_RKS8_
QNi:_List_1_TrimExcess_m440552561_gshared
z6e:_Screen_get_dpi_m495672463
Qmh:_UTF8Encoding_InternalGetByteCount_m2120178851
zfe:__ZL130NativeTypeAttribute_t2250406315_CustomAttributesCacheGenerator_NativeTypeAttribute_set_IntermediateScriptingStructName_m3613994509P21CustomAttributesCache
b5b:__ZL10CullLightsRK22SceneCullingParametersR11CullResults
A2g:_Convert_ToUInt64_m3170916409
Prd:__ZN9Scripting11UnityEngine12Experimental2XR14ReferencePoint12CleanupProxyEv
oHg:_Int64_System_IConvertible_ToInt16_m4062196970_AdjustorThunk
SEf:_MonoType_GetGenericTypeDefinition_m3201894896
npc:__Z40GetTemporaryCachePathApplicationSpecificv
Uhb:__ZN9GfxDevice16EndAsyncJobFrameEv
jwi:__Z99RuntimeInvoker_Int32_t2950945753_Ray_t3785851493_RuntimeObject_Single_t1397266774_Int32_t2950945753PFvvEPK10MethodInfoPvPS4_
vRj:__ZNK15dense_hashtableINSt3__24pairIK10KeyWrapperINS1_IPK12PropertyInfoP11Il2CppClassEEEjEES9_17ReflectionMapHashIS8_EN14dense_hash_mapIS9_jSD_NS9_14EqualsComparerINS0_8equal_toIS8_EEEENS0_9allocatorISB_EEE9SelectKeyESI_SK_E10test_emptyERK30dense_hashtable_const_iteratorISB_S9_SD_SM_SI_SK_E
M3c:_UNITY_tt_face_load_hhea
iP:__ZN12AudioManager27InitialCompleteDomainReloadEv
s8j:__ZN15dense_hashtableINSt3__24pairIK10KeyWrapperIPcES3_EES4_N6il2cpp5utils15PassThroughHashIS3_EEN14dense_hash_mapIS4_S3_SA_NS4_14EqualsComparerINS0_8equal_toIS3_EEEENS0_9allocatorIS6_EEE9SelectKeyESF_SH_E16reset_thresholdsEv
Uk:___syscall3
sie:__ZL95MonoBehaviour_t3962482529_CustomAttributesCacheGenerator_MonoBehaviour_CancelInvoke_m3252264575P21CustomAttributesCache
Xk:___syscall6
Zib:__ZN9GfxDevice15GetNextCPUFenceEv
Zk:___syscall4
FKf:_DerivedType_GetMethods_m3787404845
XHe:_ReturnMessage__ctor_m2352989078
Qgb:__ZNSt3__26__treeINS_12__value_typeIN4core12basic_stringIcNS2_20StringStorageDefaultIcEEEEPN16MemoryFileSystem4NodeEEENS_19__map_value_compareIS6_SA_NS_4lessIS6_EELb1EEE13stl_allocatorISA_L18MemLabelIdentifier55ELi16EEE7destroyEPNS_11__tree_nodeISA_PvEE
Ysi:__Z67RuntimeInvoker_Boolean_t97287965_TextGenerationSettings_t1351628751PFvvEPK10MethodInfoPvPS4_
Q6j:__ZN6il2cpp2vm3RCW14QueryInterfaceILb1EEEP14Il2CppIUnknownP15Il2CppComObjectRK10Il2CppGuid
Yvf:_TlsServerCertificateRequest__ctor_m1334974076
iTc:__ZN27PerformanceReportingManager23VirtualRedirectTransferER14SafeBinaryRead
y0g:_Convert_ToInt32_m1613163543
VBi:__Z52RuntimeInvoker_TimeSpan_t881159249_Int32_t2950945753PFvvEPK10MethodInfoPvPS4_
ooa:__ZN9Scripting11UnityEngine9Playables8Playable12CleanupProxyEv
pZh:_ReadOnlyCollection_1_System_Collections_ICollection_CopyTo_m3127175806_gshared
ml:_emscripten_glShaderBinary
kSg:_String_op_Inequality_m215368492
RZ:__ZN15DownloadHandler19OnFinishReceiveDataEv
mth:_UInt16_ToString_m760649087
Pcb:__ZNK20LocalFileSystemPosix6ExistsERK13FileEntryData
kni:__Z21RuntimeInvoker_Guid_tPFvvEPK10MethodInfoPvPS4_
ioi:__Z46RuntimeInvoker_CipherAlgorithmType_t1174400495PFvvEPK10MethodInfoPvPS4_
EUe:_Camera_GetAllCameras_m668492922
Fdd:__Z58Register_UnityEngine_Canvas_GetETC1SupportedCanvasMaterialv
Eqh:_TimeSpan_op_Inequality_m2467851530
eAb:__ZN17AnimationCurveTplIfE8TransferI18StreamedBinaryReadILb1EEEEvRT_
KUd:__ZN28GenericInterfaceFuncInvoker1IP12Il2CppObjectP23HeaderU5BU5D_t204812840E6InvokeEPK10MethodInfoS1_S3_
sIi:_Array_Sort_TisUIVertex_t4057497605_m3996333845_gshared
Fwf:_Context_get_ReceivedConnectionEnd_m4011125537
_Pg:_ToBase64Transform_get_CanReuseTransform_m702204640
jri:__Z53RuntimeInvoker_PropertyName_t3749835189_RuntimeObjectPFvvEPK10MethodInfoPvPS4_
qqg:_Swapper_BeginInvoke_m1688449973
rWe:_Display_get_renderingWidth_m1970428952
Kjj:_U3CTimedTriggerU3Ec__Iterator0_MoveNext_m825792986
kwa:__ZN16LevelGameManager23VirtualRedirectTransferER19StreamedBinaryWriteILb0EE
moi:__Z81RuntimeInvoker_Void_t1185182177_RuntimeObject_Int32_t2950945753_Int64_t3736567304PFvvEPK10MethodInfoPvPS4_
xXa:__Z32TransferEnumWithNameForceIntSizeI14SafeBinaryRead16GfxPrimitiveTypeEvRT_RT0_PKc17TransferMetaFlags
lJ:__ZNSt3__26vectorIN4core12basic_stringIcNS1_20StringStorageDefaultIcEEEE13stl_allocatorIS5_L18MemLabelIdentifier1ELi16EEE21__push_back_slow_pathIS5_EEvOT_
kie:__ZL92Mesh_t3648964284_CustomAttributesCacheGenerator_Mesh_SetTriangles_m2205169959____baseVertex3P21CustomAttributesCache
Bzi:__Z52RuntimeInvoker_Int32_t2950945753_HitInfo_t3229609740PFvvEPK10MethodInfoPvPS4_
Mki:__Z86RuntimeInvoker_Boolean_t97287965_Int16_t2552820387_Int16_t2552820387_Int32_t2950945753PFvvEPK10MethodInfoPvPS4_
$8d:__ZL80Convert_t2465617642_CustomAttributesCacheGenerator_Convert_ToBoolean_m2807110707P21CustomAttributesCache
_Wd:__ZL72Enum_t4135868527_CustomAttributesCacheGenerator_Enum_GetName_m2151614395P21CustomAttributesCache
Dbi:_IndexedSet_1_IndexOf_m241693686_gshared
Pkd:__ZN11UnityEngine15PlatformWrapper30GetGraphicsDriverLibraryStringEv
aOe:_RuntimeMethodHandle_Equals_m3301340296_AdjustorThunk
Duh:_UInt64_System_IConvertible_ToSingle_m925613075_AdjustorThunk
Voj:__ZL24UnresolvedVirtualCall_40P12Il2CppObjectS0_PK10MethodInfo
myj:_ListPool_1__cctor_m704263611_gshared
BBb:__Z18Transfer_BlittableI18StreamedBinaryReadILb0EELb0E4AABBEvRK29SerializationCommandArgumentsR31RuntimeSerializationCommandInfo
p5a:__ZN24GenerateTypeTreeTransfer19TransferSTLStyleMapINSt3__28multimapIN4core12basic_stringIcNS3_20StringStorageDefaultIcEEEE4PPtrI6ObjectENS1_4lessIS7_EE13stl_allocatorINS1_4pairIKS7_SA_EEL18MemLabelIdentifier52ELi16EEEEEEvRT_17TransferMetaFlags
Qt:__ZN16MecanimAnimation24DeleteAnimatedPropertiesERP26IAnimatedPropertyEvaluator
ACf:_Math_Min_m3468062251
bwj:_CanvasRenderer_SetMaterial_m824577244
YWb:__Z14DrawGUITextureRK5RectTIfEP7Texture11ColorRGBA32P8Materiali
fle:__ZL84RectOffset_t1369453676_CustomAttributesCacheGenerator_RectOffset_Cleanup_m2552807639P21CustomAttributesCache
iLa:__ZNK15PlayableMethods18InvokeProcessFrameER18ScriptingObjectPtrRK9HPlayableP18ScriptingFrameDataRK9FrameData
ND:__ZN9BlobWrite8TransferI22OffsetPtrArrayTransferIKN4math7_float4EEEEvRT_PKc17TransferMetaFlags
X8e:_Transform_IsChildOf_m224006092
kKa:__ZN15TextureSettings8TransferI24GenerateTypeTreeTransferEEvRT_
dPc:__ZN9JSONWrite8TransferI4AABBEEvRT_PKc17TransferMetaFlags
Uec:__ZN15dense_hashtableINSt3__24pairIKiN4core17string_with_labelILi1EEEEEi18SInt32HashFunctionN14dense_hash_mapIiS5_S7_NS0_8equal_toIiEE13stl_allocatorIS6_L18MemLabelIdentifier1ELi16EEE9SelectKeyESA_SD_E12expand_arrayEjN21dense_hash_map_traits17integral_constantIbLb0EEE
xLh:_List_1_Clear_m2154023298_gshared
Rrc:__Z13RegisterClassI15QualitySettingsEvPKc
mpj:__ZL24UnresolvedVirtualCall_59P12Il2CppObjectiPK10MethodInfo
dsd:_AbstractEventData_get_used_m2991176710
OVf:_InternalEnumerator_1_get_Current_m3191242573_AdjustorThunk
Awi:__Z94RuntimeInvoker_Void_t1185182177_ObjectU5BU5DU26_t712384779_Int32_t2950945753_Int32_t2950945753PFvvEPK10MethodInfoPvPS4_
Szi:__Z71RuntimeInvoker_Void_t1185182177_CustomAttributeNamedArgument_t287865710PFvvEPK10MethodInfoPvPS4_
Ar:__ZN13ConstraintJob17ConstraintJobDataD2Ev
Hij:_Aes__ctor_m178909601
WQa:__ZNK9Texture2D20GetRuntimeMemorySizeEv
dVd:_MethodCall_get_MethodSignature_m2407904958
GSc:__ZN5Unity9rapidjson13GenericReaderINS0_4UTF8IcEES3_13JSONAllocatorE9ParseTrueILj0ENS0_19GenericStringStreamIS3_EENS0_15GenericDocumentIS3_S4_S4_EEEEvRT0_RT1_
$Si:_List_1_Clear_m2003943277_gshared
vm:_emscripten_glUniform2iv
zka:__ZL46__ManagedRegistrationHelperFunction_ColorGamutPv
Olh:_UnicodeEncoding_CopyChars_m785272451
UFh:_Enumerator_Dispose_m1204547613_AdjustorThunk
VYc:_UNITY_FT_Outline_Transform
Jlc:__Z60Register_UnityEngine_Sprites_DataUtility_Internal_GetMinSizev
rfe:__ZL118NativeMethodAttribute_t4187428193_CustomAttributesCacheGenerator_NativeMethodAttribute_set_HasExplicitThis_m2961870915P21CustomAttributesCache
TBj:__ZN6il2cpp2vm5Class10GetMethodsEP11Il2CppClassPPv
ipd:__ZNK25UnityWebRequestJavaScript17GetUploadProgressEv
I0b:__Z30AddDefaultStreamsToMeshBuffersR9GfxDeviceR11MeshBuffersRK16DrawBuffersRange17ShaderChannelMaskS6_
vPi:_List_1_GetEnumerator_m1430071802_gshared
ZQb:__ZN7ApiGLES17DeleteFramebufferERN2gl6HandleILNS0_10ObjectTypeE9EEES3_
pTb:__ZN15UniformTFMethod13MapBoneBufferEj
vbd:__ZN2UI14CanvasRendererD2Ev
UKi:_Array_InternalArray__get_Item_TisParameterModifier_t1461694466_m29553316_gshared
GHg:_Int64_CompareTo_m1928360444_AdjustorThunk
eUj:__ZN15dense_hashtableINSt3__24pairIK10KeyWrapperINS1_IPK9EventInfoP11Il2CppClassEEEjEES9_17ReflectionMapHashIS8_EN14dense_hash_mapIS9_jSD_NS9_14EqualsComparerINS0_8equal_toIS8_EEEENS0_9allocatorISB_EEE9SelectKeyESI_SK_E15set_deleted_keyERKSB_
QGb:__Z9SetupArgviPPKc
T0g:_Convert_ToInt64_m2075031821
rle:__ZL111ScriptableObject_t2528358522_CustomAttributesCacheGenerator_ScriptableObject_CreateScriptableObject_m3504774547P21CustomAttributesCache
bVf:_InternalEnumerator_1__ctor_m236665673_gshared
Gjj:_AnalyticsEventTracker_OnDisable_m1553012800
bzk:_glTexParameteri__wrapper
lta:__ZN12ImmediatePtrI10GameObjectE8TransferI19StreamedBinaryWriteILb0EEEEvRT_
yQa:__ZN12CubemapArray23VirtualRedirectTransferER24GenerateTypeTreeTransfer
Fka:__ZL49__ManagedRegistrationHelperFunction_RenderTexturePv
MFa:__ZNSt3__26vectorI4PPtrI6ShaderE13stl_allocatorIS3_L18MemLabelIdentifier53ELi16EEE8__appendEj
Aak:__ZN6il2cpp2os9Directory6CreateERKNSt3__212basic_stringIcNS2_11char_traitsIcEENS2_9allocatorIcEEEEPi
XFa:__ZN4PPtrI6ShaderE8TransferI18StreamedBinaryReadILb0EEEEvRT_
nxa:__ZN23TransformChangeDispatch32QueueTransformChangeIfHasChangedERK15TransformAccess
web:__ZN15ArchiveReadFile5WriteEyPKvPy
RHf:_Assembly_get_FullName_m293988418
lFb:__ZN14SafeBinaryRead20OverrideRootTypeNameEPKc
k_c:__ZNSt3__26__treeINS_12__value_typeIN20TextRenderingPrivate7FontRefENS2_6OSFontEEENS_19__map_value_compareIS3_S5_NS_4lessIS3_EELb1EEENS_9allocatorIS5_EEE12__find_equalIS3_EERPNS_16__tree_node_baseIPvEESI_RKT_
ETc:__ZN27PerformanceReportingManager18ActiveSceneChangedEPS_P10UnitySceneS2_
B:tempValue
wAb:__ZN18StreamedBinaryReadILb1EE21TransferSTLStyleArrayI13dynamic_arrayI8Vector4fLj0EEEEvRT_17TransferMetaFlags
fcc:__Z29StdTemplateConversionFunctionIaiEbPvR14SafeBinaryRead
hlk:__ZN6il2cpp8metadata24Il2CppGenericContextHash4HashEPK20Il2CppGenericContext
uVf:_InternalEnumerator_1_get_Current_m356936020_AdjustorThunk
GXb:__ZN6Camera21RenderODSWorldTextureERK11CullResultsRK19SharedRendererSceneR17ShaderPassContextNS_10RenderFlagE
VGg:_Int32_ToString_m141394615_AdjustorThunk
_5:__Z29scripting_class_from_fullnamePKcS0_S0_
czg:_Directory_GetCurrentDirectory_m219218555
Mmg:_SmallXmlParser_UnexpectedEndError_m1914362401
oA:__ZN26AnimatorControllerPlayable18DeallocateBindingsEv
Q4d:__ZL61FormatterTypeStyle_t3400733584_CustomAttributesCacheGeneratorP21CustomAttributesCache
Ilb:__ZN14DelayedDeletorI15dense_hashtableINSt3__24pairIK9TextureIDiEES3_14GfxGenericHashIS3_EN14GfxDoubleCacheIS3_iS7_NS1_8equal_toIS3_EEN31GfxDoubleCacheConcurrencyPolicy11LocklessGetE42GfxDoubleCacheDefaultEmptyDeletedGeneratorIS3_EE9SelectKeyESA_13stl_allocatorIS5_L18MemLabelIdentifier24ELi16EEEEclEv
XR:__ZN11AudioSource19CreateOpenALRolloffEfff
G3c:_UNITY_FT_Stream_ReadAt
Lnj:_AudioSampleProvider_Dispose_m1993565764
Dph:_TimeSpan__ctor_m1896986612_AdjustorThunk
gGj:__ZN15dense_hashtableINSt3__24pairIK10KeyWrapperIN6il2cpp5utils13dynamic_arrayIPK10Il2CppTypeLj4EEEEPFvvEEESA_NS3_8metadata19Il2CppSignatureHashEN14dense_hash_mapISA_SD_SG_NSA_14EqualsComparerINSF_22Il2CppSignatureCompareEEENS0_9allocatorISE_EEE9SelectKeyESK_SM_E9set_valueEPSE_RKSE_
tkg:_ArgumentException__ctor_m1216717135
L3e:_Ray_ToString_m1732834890_AdjustorThunk
TOc:__ZN9JSONWrite8TransferI13dynamic_arrayI5RectTIfELj0EEEEvRT_PKc17TransferMetaFlags
RQi:_List_1_System_Collections_IList_Contains_m3860993176_gshared
DV:__ZN11AudioModule22CreateAudioClipFromWWWEP10IWWWStreamPKcbbi
wuc:__ZN9Texture2DC2E10MemLabelId18ObjectCreationMode
hKb:__Z17DebugStringToFileIA59_cEvRKT_iPKci15LogMessageFlagsiiPFvRK11CppLogEntryE
Ri:_emscripten_glRotatef
qth:_UInt32_System_IConvertible_ToBoolean_m1763673183_AdjustorThunk
FXe:_UnityEvent_AddListener_m2276267359
hr:__Z9SetLocalR15TransformAccessRKN4math7_float4Ey
Dqi:__Z35RuntimeInvoker_RangeInt_t2094684618PFvvEPK10MethodInfoPvPS4_
qIa:__ZN6prcoreL11inner_clearILj4EEEvPhjjj
aVd:_MethodCall_get_Args_m148309537
zHe:_DictionaryEnumerator_get_Value_m2166220004
_zj:_NativeTypeAttribute__ctor_m1677513894
umj:_PCMReaderCallback_BeginInvoke_m3391809637
N0:__GLOBAL__sub_I_Runtime_SceneManager_0_cpp
kfi:__Z74RuntimeInvoker_Void_t1185182177_RuntimeObject_StreamingContext_t3711869237PFvvEPK10MethodInfoPvPS4_
Mgk:_GC_initialize_offsets
DHh:_Enumerator_MoveNext_m2142368520_AdjustorThunk
rea:__ZNK8Playable6HandleEv
Pbf:_SetPropertyUtility_SetColor_m2229203028
Pqk:___cxa_guard_abort
n8:__ZN14MessageHandler28MessageIDToMessageIdentifierEi
hYa:__ZNK11SpriteAtlas20GetRuntimeRenderDataEPK6Sprite
qJg:_FileSystemInfo__ctor_m3035148496
Q1a:__ZNSt3__26__treeINS_12__value_typeIN4core12basic_stringIcNS2_20StringStorageDefaultIcEEEEiEENS_19__map_value_compareIS6_S7_NS_4lessIS6_EELb1EEENS_9allocatorIS7_EEE4findIS6_EENS_15__tree_iteratorIS7_PNS_11__tree_nodeIS7_PvEEiEERKT_
mGg:_Int32_System_IConvertible_ToDecimal_m2190376994_AdjustorThunk
wGh:_KeyValuePair_2_set_Key_m2121548577_AdjustorThunk
uCi:__Z46RuntimeInvoker_RefEmitPermissionSet_t484390987PFvvEPK10MethodInfoPvPS4_
P7d:__ZL88UTF7Encoding_t2644108479_CustomAttributesCacheGenerator_UTF7Encoding_GetBytes_m521917477P21CustomAttributesCache
xma:__ZL43__ManagedRegistrationHelperFunction_Vector4Pv
my:__ZN7mecanim14ValueArrayCopyILb0EEEvPKNS_10ValueArrayEPS1_
DJ:__Z51Register_UnityEngine_Animator_get_hasBoundPlayablesv
u$i:_Collection_1_CopyTo_m3142835220_gshared
Dd:emscriptenWebGLGetUniform
ro:FUNCTION_TABLE_iiiiiiiiiii
Tfj:_GUI_CallWindowDelegate_m3309453386
Z1c:_cff_set_mm_blend
sUb:__ZN19GfxThreadableDevice15OnDeviceCreatedEb
U6b:__ZL10CleanUpJobP20CullingGroupsJobData
G0b:__Z20IsRunningNativeTestsv
nJg:_DirectoryInfo_get_Exists_m3142069876
G_a:__ZN10MeshFilter23VirtualRedirectTransferER24GenerateTypeTreeTransfer
Src:__Z13RegisterClassI16LightmapSettingsEvPKc
PWb:__ZN13RenderManager15BatchModeUpdateEv
r6h:_Predicate_1__ctor_m327447107_gshared
dgg:_X509Chain_get_CertificateAuthorities_m804805415
l1b:__Z14SetupLightmapsRK8Vector4fS1_R17ShaderPassContext
R5e:_Vector2_get_one_m738793577
sAc:__ZNK4Mesh14GetIndexFormatEv
Sid:__ZN9Scripting11UnityEngine9Analytics21AnalyticsSessionState9InitProxyEv
GFh:_GenericEqualityComparer_1__ctor_m4072188982_gshared
gfj:_UriParser_set_DefaultPort_m4007715058
g6j:__ZN14dense_hash_mapI10KeyWrapperIP12Il2CppObjectEN6il2cpp2gc9CachedCCWENS4_5utils11PointerHashIS1_EENS3_14EqualsComparerINSt3__28equal_toIS2_EEEENSB_9allocatorINSB_4pairIKS3_S6_EEEEE13set_empty_keyERSH_
Kkj:_FieldWithTarget__ctor_m583221563
gd:_glVertexAttribIPointer
kZe:_Input_GetAxisRaw_m2316819917
ylc:__ZNK6Sprite10GetPaddingE20SpriteRenderDataMode
Gbh:_Array_InternalArray__ICollection_Remove_TisUInt32_t2560061978_m733727733_gshared
pPe:_CryptographicException__ctor_m503735289
tUd:_ConstructionCall_get_CallSiteActivationAttributes_m3498917408
yKg:_Stream_EndRead_m1896469262
Cci:__Z93RuntimeInvoker_Boolean_t97287965_Int32_t2950945753_SByte_t1669577662_ExceptionU26_t3600731591PFvvEPK10MethodInfoPvPS4_
p_b:__ZN14qsort_internal5QSortIP15RODataDepthPassi17ROSorterDepthPassEEvT_S4_T0_T1_
p4c:_UNITY_ft_glyphslot_alloc_bitmap
IXh:_ReadOnlyCollection_1_System_Collections_IList_Add_m3642938800_gshared
wzf:_RSASslSignatureDeformatter_SetHashAlgorithm_m895570787
O0e:_U3CRegisterU3Ec__AnonStorey0__ctor_m1879208136
i7i:_X509CrlEntry__ctor_m4013514048
VEj:__ZN15dense_hashtableI10KeyWrapperIPK17Il2CppGenericInstES4_N6il2cpp8metadata21Il2CppGenericInstHashEN14dense_hash_setIS4_S7_NS4_14EqualsComparerINS6_24Il2CppGenericInstCompareEEENSt3__29allocatorIS4_EEE8IdentityESB_SE_E16reset_thresholdsEv
vqi:__Z87RuntimeInvoker_Color_t2555686324_Color_t2555686324_Color_t2555686324_Single_t1397266774PFvvEPK10MethodInfoPvPS4_
d9c:_ft_raster1_render
kWh:_Collection_1_System_Collections_IList_get_IsReadOnly_m2288996004_gshared
TFc:__Z47Register_UnityEngine_Mesh_RecalculateBoundsImplv
fib:__ZN9GfxDevice27UpdateComputeSkinPoseBufferEP9GfxBufferP12SkinMeshInfo
hJh:_Enumerator_get_Current_m3382684163_AdjustorThunk
$Qf:_InternalEnumerator_1_System_Collections_IEnumerator_Reset_m3677481164_AdjustorThunk
zpk:__ZNKSt3__221__basic_string_commonILb1EE20__throw_length_errorEv
OCh:_EqualityComparer_1_System_Collections_IEqualityComparer_Equals_m245992594_gshared
tmi:__Z52RuntimeInvoker_UInt64_t4134040092_Single_t1397266774PFvvEPK10MethodInfoPvPS4_
rfh:_Array_InternalArray__IndexOf_TisParameterModifier_t1461694466_m1227120810_gshared
HRb:__ZN18GfxFramebufferGLES13ReadbackImageER14ImageReferenceiiiiii
JLc:__ZN5Unity9rapidjson6WriterI16TempBufferWriterNS0_4UTF8IcEES4_13JSONAllocatorE11WriteStringEPKcj
uxe:__ZL95WebRequestUtils_t3541624225_CustomAttributesCacheGenerator_WebRequestUtils_RedirectTo_m55747000P21CustomAttributesCache
Iia:__ZN6prcoreL12RemapGenericI17TexFormatARGB888815TexFormatRGB565EEvPKNS_9InnerInfoE
iN:__ZN4FMOD7Channel19setReverbPropertiesEPK29FMOD_REVERB_CHANNELPROPERTIES
Dkj:_StandardEventPayload_GetParameters_m2672427676
LMg:_StreamReader_Dispose_m156389394
O7:__ZN13MonoBehaviour22GetScriptFullClassNameEv
uXj:_il2cpp_object_get_class
TPg:_SymmetricAlgorithm_get_Padding_m1011382560
myc:__ZN13ProduceHelperI11MonoManagerLb0EE7ProduceE10MemLabelId18ObjectCreationMode
fNg:_RIPEMD160Managed_JJ_m112143231
BZb:__ZN13BatchRendererC2ER15RenderLoopStatsRK15RenderNodeQueuebb
A0f:_Comparer_1__ctor_m191896560_gshared
XNh:_PreviousInfo_t2148130204_marshal_pinvoke_back
Egb:__ZNK16MemoryFileSystem9EnumerateEPKcP19dynamic_block_arrayI13FileEntryInfoLj32EEbPPv19FileEnumerationFlag
_Eb:__ZN13MonoBehaviour9CallAwakeEv
eIa:__ZN20SphericalHarmonicsL211AddWeightedERKS_f
Ffi:__Z82RuntimeInvoker_RuntimeObject_Int64_t3736567304_Int64_t3736567304_Int64_t3736567304PFvvEPK10MethodInfoPvPS4_
Ftb:__Z19TransferField_ArrayI17RemapPPtrTransfer27Converter_SimpleNativeClassI8GUIStyleEEvRK23StaticTransferFieldInfoR31RuntimeSerializationCommandInfoRT0_
J2:__ZL22StaticInitializeShaderPv
xMc:__ZN9JSONWrite8TransferI10ColorRGBAfEEvRT_PKc17TransferMetaFlags
pod:__ZN11UnityEngine9Analytics22EventLimitResumedEventC2EjRKN4core12basic_stringIcNS2_20StringStorageDefaultIcEEEEb
gZf:_InternalEnumerator_1__ctor_m3913006324_AdjustorThunk
h8:__Z25scripting_method_get_name18ScriptingMethodPtr
Hzf:_SslCipherSuite_ComputeKeys_m661027754
Yrb:__Z19TransferField_ArrayI14SafeBinaryRead16Converter_StringEvRK23StaticTransferFieldInfoR31RuntimeSerializationCommandInfoRT0_
u1e:_Object_set_name_m291480324
cke:__ZL68UpdateCanvasRectTransform_t1832875547_CustomAttributesCacheGeneratorP21CustomAttributesCache
tZg:_Convert_ToBoolean_m481380807
B6g:_Decimal_Equals_m2486655999
Ogk:_GC_exit_check
DIf:_AssemblyName_SetPublicKeyToken_m582470133
gri:__Z52RuntimeInvoker_Boolean_t97287965_HitInfo_t3229609740PFvvEPK10MethodInfoPvPS4_
zQ:__ZNK4PPtrI9AudioClipEcvPS0_Ev
H6:__Z20UnlockObjectCreationv
k4h:__ZN16VirtFuncInvoker2Ii19Color32_t2600501292S0_E6InvokeEjP12Il2CppObjectS0_S0_
I1b:__Z34SetupObjectBakedOcclusionInForwardbRK15SharedLightDataRK26SharedLightmapSettingsDataRK15LightmapIndicesR17ShaderPassContext
LQh:_DSAManaged_get_Random_m923751780
A4:__ZL29TransformAccessChangeCallbackPK15TransformAccessj
aaf:_Vector3_set_Item_m1772472431_AdjustorThunk
Yig:_Interpreter_PopulateGroup_m4042796257
$od:__ZN9Scripting11UnityEngine10Networking18CertificateHandler9InitProxyEv
Krd:__ZN9Scripting11UnityEngine12Experimental2XR13TrackableType9InitProxyEv
Lrh:_Type_GetProperty_m3414567179
i1j:__ZN6il2cpp2vm13LivenessState25FieldCanContainReferencesEP9FieldInfo
Xac:__ZNSt3__26vectorINS_4pairIN4core12basic_stringIcNS2_20StringStorageDefaultIcEEEES6_EE13stl_allocatorIS7_L18MemLabelIdentifier38ELi16EEE6insertENS_11__wrap_iterIPKS7_EERSD_
rYe:_RenderPipelineManager_DoRenderLoop_Internal_m3799666479
_oe:__ZL78Sprite_t280657092_CustomAttributesCacheGenerator_Sprite_get_packed_m1179604684P21CustomAttributesCache
ED:__ZN9BlobWrite8TransferI22OffsetPtrArrayTransferI9OffsetPtrIN7mecanim12statemachine18StateMachineMemoryEEEEEvRT_PKc17TransferMetaFlags
Ioj:__ZL24UnresolvedVirtualCall_27P12Il2CppObjectS0_aPK10MethodInfo
Zxc:__Z13RegisterClassI14PlayerSettingsEvPKc
df:_emscripten_glStencilOpSeparate
k1i:_Collection_1_System_Collections_IList_IndexOf_m3894953546_gshared
u5i:_PKCS12_get_Certificates_m26161562
Gag:_NameObjectCollectionBase_Init_m2525481323
H0b:__ZN15SkyboxGenerator28GetCubemapSkyboxVertexFormatEv
Skb:__ZN19ShaderPropertySheet24SetTextureWithExplicitIDERK23FastTexturePropertyNameP7Texture9TextureID
LKh:_List_1_Insert_m1582252370_gshared
yck:__ZN6il2cpp2vm6String8NewUtf16EPKDsi
mOe:_SByte_System_IConvertible_ToByte_m2268214252_AdjustorThunk
hak:__ZN6il2cpp2os10ThreadImpl12QueueUserAPCEPFvPvES2_
BRi:_List_1_get_Capacity_m3047075120_gshared
CS:__Z32TransferEnumWithNameForceIntSizeI14SafeBinaryReadN10SampleClip17CompressionFormatEEvRT_RT0_PKc17TransferMetaFlags
xdj:_RegularExpression__ctor_m119502265
Eod:__ZN22BaseUnityConnectClient10QueueEventERN11UnityEngine15CloudWebService17CloudServiceEventEPKcjb
gjf:_DelegatePInvokeWrapper_RaycastAllCallback_t1884415901
OZh:_ReadOnlyCollection_1_System_Collections_Generic_ICollectionU3CTU3E_Clear_m522482168_gshared
LKf:_DerivedType_IsByRefImpl_m2585680005
vUd:_ConstructionCall_InitMethodProperty_m2021094586
UDc:__Z27Texture_CUSTOM_GetDataWidthP12Il2CppObject
b7c:_UNITY_FT_Hypot
Hre:__ZL95TextGenerator_t3211863866_CustomAttributesCacheGenerator_TextGenerator_get_lineCount_m916872812P21CustomAttributesCache
_De:__ZL74CanvasScaler_t2767979955_CustomAttributesCacheGenerator_m_DefaultSpriteDPIP21CustomAttributesCache
HWj:_il2cpp_class_is_abstract
xf:_emscripten_glGetError
PSj:__ZN15dense_hashtableINSt3__24pairIK10KeyWrapperIPK14Il2CppAssemblyEPK22Il2CppMonoAssemblyNameEES6_N6il2cpp5utils11PointerHashIS4_EEN14dense_hash_mapIS6_SA_SF_NS6_14EqualsComparerINS0_8equal_toIS5_EEEENS0_9allocatorISB_EEE9SelectKeyESK_SM_E14squash_deletedEv
rmg:_SmallXmlParser__ctor_m202236734
kO:__Z14FMOD_FILE_SeekPvjS_
ohf:_MaskableGraphic_OnDisable_m1757789159
rJa:__ZN7TextureC2E10MemLabelId18ObjectCreationMode
dff:_LayoutGroup__ctor_m2162961217
Bid:__Z56Register_UnityEngine_Analytics_CustomEventData_AddStringv
Ifd:__ZZN2UI6Canvas15InitializeClassEvEN39FunctorImpl_1449kCanvasHierarchyChanged4CallEPviR11MessageData
Bvh:_ValueType_t3640485471_marshal_pinvoke_cleanup
d8b:__ZNK13RenderTexture32CalculateNeedsInvertedProjectionEv
idc:__ZN10systeminfo18GetOperatingSystemEv
Ff:emscriptenWebGLGet
Caa:__Z19CanReplaceComponentRN5Unity9ComponentEPKNS_4TypeEPN4core12basic_stringIcNS5_20StringStorageDefaultIcEEEE
hCf:_UnmanagedMemoryStream_Flush_m1540584491
e0i:_Collection_1_GetEnumerator_m3986802482_gshared
kEg:_GuidParser_ParseGuid2_m1914838819
hwc:__ZN12CubemapArray11InitTextureEiii13TextureFormatb
$Ci:__Z36RuntimeInvoker_Enumerator_t185561725PFvvEPK10MethodInfoPvPS4_
kOi:_List_1_System_Collections_IList_get_Item_m1112579679_gshared
g2d:__ZL70ReliabilityContractAttribute_t502331440_CustomAttributesCacheGeneratorP21CustomAttributesCache
eQf:_InternalEnumerator_1_System_Collections_IEnumerator_get_Current_m55999184_gshared
R8f:_ValueCollection_System_Collections_Generic_ICollectionU3CTValueU3E_Contains_m1842955046_gshared
EPj:__ZN24dense_hashtable_iteratorINSt3__24pairIK10KeyWrapperIPK10Il2CppTypeEjEES6_N6il2cpp8metadata14Il2CppTypeHashEN14dense_hash_mapIS6_jSB_NS6_14EqualsComparerINSA_26Il2CppTypeEqualityComparerEEENS0_9allocatorIS8_EEE9SelectKeyESF_SH_E30advance_past_empty_and_deletedEv
zEd:_Graphic_get_depth_m815589653
tfj:_Event_set_displayIndex_m1342258734
fUc:__ZN27PerformanceReportingManager17PlayerLoopHandlerEv
Cff:_LayoutGroup_SetLayoutInputForAxis_m2458344630
lE:__ZN7mecanim5human13HumanFixTwistEPKNS0_5HumanEPNS_8skeleton13SkeletonPoseTIN4math4trsXEEES9_iiRKf
v1b:__ZL24AssignProjectorQueuesJobP30AssignProjectorQueuesJobHeader
byh:_KeyValuePair_2_get_Key_m1218836954_gshared
tNd:_ParameterModifier_t1461694466_marshal_pinvoke
yjc:__ZNSt3__26vectorIN9ShaderLab20SerializedSubProgram15StructParameterENS_9allocatorIS3_EEE21__push_back_slow_pathIS3_EEvOT_
vFg:_Int16_System_IConvertible_ToUInt32_m3410279543
ljc:__ZN9ShaderLab20SerializedSubProgram14SetConstBufferEPKci
GNj:__ZN6il2cpp2os4File5CloseEPNS0_10FileHandleEPi
OFj:__ZNSt3__27__sort5IRN6il2cpp5utils11collections13ArrayValueMapIPK10Il2CppType17Il2CppInteropData26InteropDataToTypeConverterNS1_8metadata14Il2CppTypeLessENSA_26Il2CppTypeEqualityComparerEE12SortComparerEPS8_EEjT0_SH_SH_SH_SH_T_
U7e:_Touch_get_fingerId_m859576425_AdjustorThunk
Uxi:__Z48RuntimeInvoker_Boolean_t97287965_Link_t544317964PFvvEPK10MethodInfoPvPS4_
Ihf:_Navigation_get_selectOnDown_m1912812616_AdjustorThunk
SPi:_List_1_System_Collections_ICollection_CopyTo_m2688165607_gshared
Dxi:__Z53RuntimeInvoker_UIVertex_t4057497605_Int32_t2950945753PFvvEPK10MethodInfoPvPS4_
Wsh:_UInt16_CompareTo_m2664746316_AdjustorThunk
_8f:_ValueCollection_GetEnumerator_m616748621_gshared
bhb:__ZN9GfxDevice13SetActiveTierE12GraphicsTier
jRc:__Z29Transfer_Blittable_ArrayFieldI8JSONReadjEvRT_R9ArrayInfoRK23StaticTransferFieldInfo
Q1h:_ReadOnlyCollection_1_get_Item_m679165083_gshared
Ugk:_GC_check_finalizer_nested
lg:__setLetterbox
vlf:_ScrollRect_OnScroll_m3861066534
sah:_Array_InternalArray__ICollection_Contains_TisResourceCacheItem_t51292791_m2991582559_gshared
Joe:__ZL72FormerlySerializedAsAttribute_t2859083114_CustomAttributesCacheGeneratorP21CustomAttributesCache
cbf:_OnValidateInput_Invoke_m1009124904
maj:_PatternCompiler_EmitFastRepeat_m3012952683
O$a:__ZNSt3__26vectorI17BlendShapeChannelNS_9allocatorIS1_EEE6assignINS_11__wrap_iterIPS1_EEEENS_9enable_ifIXaasr21__is_forward_iteratorIT_EE5valuesr16is_constructibleIS1_NS_15iterator_traitsISA_E9referenceEEE5valueEvE4typeESA_SA_
iKb:__Z12SetGfxDeviceP9GfxDevice
bdc:__ZN11TimeManager11GetRealtimeEv
ole:__ZL91RectOffset_t1369453676_CustomAttributesCacheGenerator_RectOffset_get_horizontal_m2663785949P21CustomAttributesCache
q1e:_Object_GetHashCode_m1944636947
hJg:_BinaryReader_ReadUInt32_m2210658763
GO:__ZN29AudioEffectInternalDefinitionC2EP26UnityAudioEffectDefinitionb
J2h:_ReadOnlyCollection_1_System_Collections_IList_Remove_m2434650390_gshared
nth:_UInt16_ToString_m3056878594_AdjustorThunk
nG:__ZN4PPtrI6AvatarE8TransferI18StreamedBinaryReadILb0EEEEvRT_
Yyh:_Dictionary_2_System_Collections_Generic_ICollectionU3CSystem_Collections_Generic_KeyValuePairU3CTKeyU2CTValueU3EU3E_Contains_m2803718146_gshared
mkj:_EventTrigger_set_repeatTime_m1188543944
Vjg:_Interval_get_IsSingleton_m3386290029
aWj:__ZNSt3__2plIcNS_11char_traitsIcEENS_9allocatorIcEEEENS_12basic_stringIT_T0_T1_EERKS9_PKS6_
lmd:__ZN18UnityConnectClient27OnPlayerSessionStateChangedEjyy
ePa:_stbir_resize
Feh:_Array_IndexOf_TisCustomAttributeTypedArgument_t2723150157_m3158556463_gshared
oCh:_EqualityComparer_1_System_Collections_IEqualityComparer_GetHashCode_m360549782_gshared
Byg:_Environment_GetOSVersionString_m407782784
Mih:_DecoderExceptionFallback_Equals_m1082173956
lEh:_EqualityComparer_1_System_Collections_IEqualityComparer_GetHashCode_m345188086_gshared
M0d:__ZL69Assembly_t_CustomAttributesCacheGenerator_Assembly_GetName_m981771927P21CustomAttributesCache
cla:__ZL59__ManagedRegistrationHelperFunction_AsyncGPUReadbackRequestPv
die:__ZL93Mesh_t3648964284_CustomAttributesCacheGenerator_Mesh_GetAllocArrayFromChannelImpl_m3084065604P21CustomAttributesCache
O_a:__ZN4PPtrI4MeshE8TransferI14SafeBinaryReadEEvRT_
Teb:__Z37ReadDirectoryInfo_UnityWebAndUnityRawR12FileAccessorRKN20ArchiveStorageHeader6HeaderERNS1_13DirectoryInfoE
O4:__ZNSt3__26__treeINS_12__value_typeIPKciEENS_19__map_value_compareIS3_S4_15compare_tstringIS3_ELb1EEENS_9allocatorIS4_EEE7destroyEPNS_11__tree_nodeIS4_PvEE
NEi:_Array_InternalArray__Insert_TisIntPtr_t_m189626842_gshared
ifg:_X509Certificate2_get_IssuerName_m1277209535
WLh:_Locale_GetText_m3374010885
aWh:_Collection_1_System_Collections_IEnumerable_GetEnumerator_m1598238343_gshared
n8i:_RijndaelManaged_CreateEncryptor_m263736311
kph:_WaitCallback__ctor_m1893321019
m_b:__ZN20DynamicPropertySheet14SetValueQueuedEN9ShaderLab16FastPropertyNameEN19ShaderPropertySheet12PropertyTypeEjNS2_8SetFlagsE
kXe:_InvokableCallList_ClearPersistent_m1904264973
iGb:__ZN25PathNamePersistentManagerD2Ev
K5a:__ZN17PersistentManager48IntegrateObjectAndUnlockIntegrationMutexInternalEi
kne:__ZL85NativeDisableUnsafePtrRestrictionAttribute_t2582701661_CustomAttributesCacheGeneratorP21CustomAttributesCache
dha:__ZZ29InitializeSortingGroupManagerPvEN44PostLateUpdateSortingGroupsUpdateRegistrator7ForwardEv
Ixe:__ZL55EventTrigger_t1076084509_CustomAttributesCacheGeneratorP21CustomAttributesCache
DSg:_SecurityElement_SearchForChildByTag_m900466299
zp:__ZN6Object12SetHideFlagsENS_9HideFlagsE
t1g:_Convert_ToSingle_m3227075028
_vk:_emscripten_glGetFramebufferAttachmentParameteriv__wrapper
t7b:__ZN13RendererScene15InitializeUmbraEv
Z6f:__ZN21InterfaceFuncInvoker2I26KeyValuePair_2_t2401056908P12Il2CppObjectiE6InvokeEjP11Il2CppClassS2_S2_i
rGa:__Z28CalculateGlobalMatrixInverse23TransformAccessReadOnly
R$e:_MonoBehaviour__ctor_m1579109191
hve:__ZL59GUITargetAttribute_t25796337_CustomAttributesCacheGeneratorP21CustomAttributesCache
tFh:_GenericEqualityComparer_1_Equals_m3457564127_gshared
mpf:_BigInteger_ModInverse_m2426215562
Lfa:__ZN17CallbackArrayBaseIPFvPK9IndexListPK16RendererCullDataEPFvPKvS2_S5_EE8RegisterES7_SB_S9_
NRf:_InternalEnumerator_1_System_Collections_IEnumerator_Reset_m2386791007_AdjustorThunk
Iih:_DecoderExceptionFallback__ctor_m4044614564
FTf:_InternalEnumerator_1_System_Collections_IEnumerator_Reset_m3011999097_AdjustorThunk
JYj:__ZN6il2cpp2vm6Thread17FullMemoryBarrierEv
mCf:_LocalDataStoreSlot__cctor_m644942532
flk:__ZN6il2cpp6icalls8mscorlib6System6Object7GetTypeEP12Il2CppObject
qMd:_MonoProperty_CachePropertyInfo_m2968057423
hpd:__ZNK25UnityWebRequestJavaScript18GetDownloadedBytesEv
J3e:_Ray_GetPoint_m1852405345_AdjustorThunk
d$d:__ZL53RegionInfo_t1090270226_CustomAttributesCacheGeneratorP21CustomAttributesCache
mwe:__ZL85Canvas_t3310196443_CustomAttributesCacheGenerator_Canvas_get_sortingOrder_m1860900812P21CustomAttributesCache
oWd:__ZL74Single_t1397266774_CustomAttributesCacheGenerator_Single_IsNaN_m4024467661P21CustomAttributesCache
mIb:__Z21BeginSplashScreenFadev
tpd:__ZN12HeaderHelper14SetUnvalidatedERKN4core12basic_stringIcNS0_20StringStorageDefaultIcEEEES6_b
OM:__ZN4FMOD6SoundI7releaseEv
Q0c:_cff_parse_num
vfb:__ZN10MemoryFile9SetLengthEy
Lvb:__ZN5RectTIiE8TransferI24GenerateTypeTreeTransferEEvRT_
Czg:_Exception_get_ClassName_m2428844642
DFb:__Z28scripting_class_is_interface17ScriptingClassPtr
Ch:_glTexStorage2D
iBg:_CultureInfo_ConstructInternalLocaleFromName_m4012802696
VLa:__ZNK9ShaderLab10SubProgram14EnsureCompiledEv
CNf:_MethodBuilder_GetGenericArguments_m1765425737
_3g:_DateTime_CompareTo_m3687348273
Jfk:_GC_push_marked
x4g:_DateTime_ToUniversalTime_m1945318289_AdjustorThunk
s_f:_InternalEnumerator_1_MoveNext_m1262669372_gshared
pzg:_EventArgs__ctor_m32674013
h0g:_Convert_ToInt16_m1336719169
Z7:__Z18BuildScriptClassId17ScriptingClassPtr
Iuj:_TextGenerator_Init_m1168488231
hSh:_RSAManaged_Finalize_m3915335854
wp:__ZNK16LevelGameManager7GetNameEv
ddb:__ZL31DeleteLastPathNameComponentImplRKN4core12basic_stringIcNS_20StringStorageDefaultIcEEEEPKc
q5g:_DBNull_System_IConvertible_ToUInt64_m4072736670
ijd:__ZN18UnityConnectClient15GetCloudServiceEv
prb:__Z29Transfer_Blittable_ArrayFieldI14SafeBinaryRead5RectTIiEEvRT_R9ArrayInfoRK23StaticTransferFieldInfo
tUf:_InternalEnumerator_1_get_Current_m2698009637_gshared
pJj:__ZN6il2cpp2os19SocketHandleWrapperD2Ev
h1e:_U3CAddAndCreateU3Ec__AnonStorey1__ctor_m1186055370
xFb:__ZL28SerializationCommandGroupForRK31TransferFunctionScriptingTraits17ScriptingClassPtr17ScriptingFieldPtrRK20CoreScriptingClasses
xva:__ZN10TagManager32RegisterDefaultTagsAndLayerMasksEv
xph:_WaitHandle_Dispose_m738127030
NTi:_List_1_System_Collections_IList_get_IsReadOnly_m1729002068_gshared
Ili:__Z50RuntimeInvoker_Double_t594665363_Int32_t2950945753PFvvEPK10MethodInfoPvPS4_
u6h:_Predicate_1_EndInvoke_m1490920825_gshared
mbe:__ZL78LoaderOptimization_t1484956347_CustomAttributesCacheGenerator_DisallowBindingsP21CustomAttributesCache
Zyh:_Dictionary_2_System_Collections_Generic_ICollectionU3CSystem_Collections_Generic_KeyValuePairU3CTKeyU2CTValueU3EU3E_CopyTo_m3122240003_gshared
Gui:__Z104RuntimeInvoker_Void_t1185182177_Color_t2555686324_Single_t1397266774_SByte_t1669577662_SByte_t1669577662PFvvEPK10MethodInfoPvPS4_
lTi:_List_1_Remove_m3853969205_gshared
zJh:_Enumerator_System_Collections_IEnumerator_get_Current_m1540440674_gshared
yTg:_Single_System_IConvertible_ToInt16_m809233024_AdjustorThunk
Did:__Z56Register_UnityEngine_Analytics_CustomEventData_AddUInt32v
Mnk:_fmodf
fla:__ZL47__ManagedRegistrationHelperFunction_CullResultsPv
POb:__ZN4gles8InitCapsEP7ApiGLESP12GraphicsCapsR16GfxDeviceLevelGL
wPa:__ZN6prcore14BlitImageFloatERK14ImageReferenceRS0_NS0_8BlitModeE
MHa:__Z24CalculateVertexLightDataRK15SharedLightDataR14GfxVertexLight
ki:_glEnable
bRj:__ZN15dense_hashtableINSt3__24pairIK10KeyWrapperINS1_IPK12PropertyInfoP11Il2CppClassEEEjEES9_17ReflectionMapHashIS8_EN14dense_hash_mapIS9_jSD_NS9_14EqualsComparerINS0_8equal_toIS8_EEEENS0_9allocatorISB_EEE9SelectKeyESI_SK_E15insert_noresizeERKSB_
cqa:__ZN9Scripting11UnityEngine33ExcludeFromObjectFactoryAttribute12CleanupProxyEv
RLa:__ZNK9ShaderLab7Program28BeginReadUnsupportedVariantsEv
ita:__ZN12CachedWriter11Align4WriteEv
Prj:__ZL25UnresolvedVirtualCall_196P12Il2CppObject22UILineInfo_t4195266810S1_PK10MethodInfo
n4a:__ZNSt3__26vectorIN30RuntimeInitializeOnLoadManager9ClassInfoE13stl_allocatorIS2_L18MemLabelIdentifier13ELi16EEE7reserveEj
JMc:__Z35Transfer_Blittable_FixedBufferFieldI9JSONWriteiEvRK29SerializationCommandArgumentsR31RuntimeSerializationCommandInfo
ste:__ZL85AudioSource_t3935305588_CustomAttributesCacheGenerator_AudioSource_set_clip_m31653938P21CustomAttributesCache
JFh:_Enumerator__ctor_m1590062855_AdjustorThunk
NTj:__ZN14dense_hash_mapI10KeyWrapperINSt3__24pairIPK10MethodInfoP11Il2CppClassEEEj17ReflectionMapHashIS8_ENS9_14EqualsComparerINS1_8equal_toIS8_EEEENS1_9allocatorINS2_IKS9_jEEEEEC2EjRKSB_RKSF_
gA:__ZN26AnimatorControllerPlayable17ProcessRootMotionEP35AnimationPlayableEvaluationConstantP32AnimationPlayableEvaluationInputP33AnimationPlayableEvaluationOutput
H4d:__ZL54SoapServices_t133988723_CustomAttributesCacheGeneratorP21CustomAttributesCache
MBf:_UnexceptionalStreamReader_Peek_m1842169584
mkd:__ZN11UnityEngine7Connect15DeviceInfoEvent16CollectExtraInfoEv
TXi:_Queue_1_System_Collections_IEnumerable_GetEnumerator_m3464578225_gshared
gLj:_TypeInferenceRuleAttribute__ctor_m2736695831
wTe:_Bounds_GetHashCode_m1844059663_AdjustorThunk
GPe:_CryptographicException__ctor_m1422015889
yaf:_Vector4_Equals_m1779210055_AdjustorThunk
C2g:_Convert_ChangeType_m739676612
Xok:_atoi
TUb:__ZN20ArchiveStorageReader10InitializeER15FileSystemEntryyb
Yok:_atol
Ndk:__ZThn8_N6il2cpp2vm13CachedCCWBaseINS0_13ManagedObjectEE6AddRefEv
uId:_TypeBuilder_CreateType_m3375483507
XXh:_ReadOnlyCollection_1_GetEnumerator_m3690861713_gshared
ROh:_ModulusRing_BarrettReduction_m167376748
oIe:_RemotingServices_GetRealProxy_m2081098851
sQh:_BlockProcessor_Core_m189015002
QDj:__ZN15dense_hashtableINSt3__24pairIK10KeyWrapperIPKcEP11Il2CppClassEES5_N6il2cpp5utils11StringUtils12StringHasherIS4_EEN14dense_hash_mapIS5_S8_SE_NS5_14EqualsComparerINSB_13VmStringUtils21CaseSensitiveComparerEEENS0_9allocatorIS9_EEE9SelectKeyESJ_SL_EC2EjRKSE_RKSJ_RKSN_
gwk:_emscripten_glScissor__wrapper
vo:FUNCTION_TABLE_viifi
wo:FUNCTION_TABLE_viiff
Qlg:_X501__cctor_m1166912714
Dye:__ZL102PointerEventData_t3807901092_CustomAttributesCacheGenerator_PointerEventData_set_lastPress_m2928324031P21CustomAttributesCache
IYd:__ZL37Type_t_CustomAttributesCacheGeneratorP21CustomAttributesCache
it:__ZN9Scripting11UnityEngine14AnimationState9InitProxyEv
YTe:_Bounds_ToString_m4208690781
YYj:__ZN15dense_hashtableINSt3__24pairIK10KeyWrapperINS1_IP11Il2CppClassjEEES4_EES6_N6il2cpp8metadata14ArrayClassHashEN14dense_hash_mapIS6_S4_SB_NS6_14EqualsComparerINSA_17ArrayClassCompareEEENS0_9allocatorIS8_EEE9SelectKeyESF_SH_E5clearEv
nDj:__ZNSt3__218uninitialized_copyIPNS_4pairIK10KeyWrapperIPK11Il2CppClassEPKcEESB_EET0_T_SD_SC_
MUj:__ZN6il2cpp2vm14TypeNameParser5ParseEb
Jpe:__ZL100GameObject_t1113636619_CustomAttributesCacheGenerator_GameObject_SendMessage_m3720186693____options2P21CustomAttributesCache
tAf:_StreamWriter_Initialize_m3490883444
Yrh:_Type_GetGenericArguments_m3500465462
PIj:__ZN15dense_hashtableINSt3__24pairIK10KeyWrapperIP9FieldInfoEiEES5_N6il2cpp5utils11PointerHashIS3_EEN14dense_hash_mapIS5_iSB_NS5_14EqualsComparerINS0_8equal_toIS4_EEEENS0_9allocatorIS7_EEE9SelectKeyESG_SI_E12resize_deltaEjj
Und:__ZN23UnityPurchasingSettingsC2Ev
xqk:__ZNSt9bad_allocD0Ev
yKd:_Module_IsDefined_m2423524910
yKf:_DerivedType_create_unmanaged_type_m747846525
_te:__ZL60EventType_t3528516131_CustomAttributesCacheGenerator_repaintP21CustomAttributesCache
lAa:__ZN17GPUFenceInternals7ReleaseEv
_Ce:__ZL66Selectable_t3250028441_CustomAttributesCacheGenerator_m_NavigationP21CustomAttributesCache
RNd:_ResolveEventHandler__ctor_m1911137231
yAc:__ZN17MaterialScripting18CreateWithMaterialE21ScriptingObjectOfTypeI8MaterialEPS1_
UTh:_Collection_1_System_Collections_IList_Contains_m2393482847_gshared
e8b:__ZL10RenderFaceR9GfxDeviceR18MaterialStateCacheP13RenderTextureiif
AId:_TypeBuilder_GetElementType_m1881206953
UYh:_ReadOnlyCollection_1_System_Collections_IList_RemoveAt_m1980090087_gshared
J4i:_ExtendedKeyUsageExtension_ToString_m2116504780
R8a:__ZNK5Unity9Component38MarkGameObjectAndComponentDependenciesER27GarbageCollectorThreadState
TIg:_BinaryReader_Read_m3708759962
HT:__ZNK7Texture21GetShadowSamplingModeEv
y8:__ZNK11TypeManager15ClassNameToRTTIEPKcb
Ika:__ZL57__ManagedRegistrationHelperFunction_DefaultExecutionOrderPv
qCb:__Z18Transfer_BlittableI18StreamedBinaryReadILb0EELb1EdEvRK29SerializationCommandArgumentsR31RuntimeSerializationCommandInfo
uOb:__ZN9GfxDevice26CreateDefaultVertexBuffersEv
Axk:_emscripten_glVertexAttrib2fv__wrapper
Hqd:__ZN13RuntimeStaticINSt3__26vectorIPN5physx15PxVehicleWheelsENS0_9allocatorIS4_EEEELb0EE13StaticDestroyEPv
ZAf:_SynchronizedReader_ReadToEnd_m2160105378
h8g:_Double_System_IConvertible_ToUInt16_m4132603953_AdjustorThunk
gSa:__ZN4crnd12symbol_codec32decode_receive_static_data_modelERNS_25static_huffman_data_modelE
Wuc:__ZN18ScriptingArguments8AddFloatEf
FGd:_Image_set_fillOrigin_m469806249
akd:__ZN11UnityEngine15PlatformWrapper16GetVRRenderScaleEv
JNc:__Z18Transfer_BlittableI9JSONWriteLb0EaEvRK29SerializationCommandArgumentsR31RuntimeSerializationCommandInfo
ZX:__ZN11UnityEngine15CloudWebService14DataDispatcher34OnSessionContainerArchivedAndReadyERNS0_16SessionContainerE
A0e:_ConnectionChangeEvent__ctor_m764126802
Apf:_Kernel_Multiply_m193213393
EDf:_IntComparer__ctor_m2901422390
SNd:_ResolveEventHandler_Invoke_m1337322179
M5d:__ZL50HMACMD5_t2742219965_CustomAttributesCacheGeneratorP21CustomAttributesCache
S$f:_Comparer_1__ctor_m1078828713_gshared
owb:__Z18Transfer_BlittableI19StreamedBinaryWriteILb0EELb0E8Vector3fEvRK29SerializationCommandArgumentsR31RuntimeSerializationCommandInfo
rIh:_Enumerator_VerifyState_m2621680056_gshared
rej:_UriParser_InternalRegister_m3643767086
Dre:__ZL106TextGenerator_t3211863866_CustomAttributesCacheGenerator_TextGenerator_INTERNAL_get_rectExtents_m183810018P21CustomAttributesCache
Dec:__ZN14SafeBinaryRead19TransferSTLStyleMapINSt3__23mapIN4core12basic_stringIcNS3_20StringStorageDefaultIcEEEEiNS1_4lessIS7_EENS1_9allocatorINS1_4pairIKS7_iEEEEEEEEvRT_17TransferMetaFlags
dCg:_DateTimeFormatInfo_get_RawAbbreviatedDayNames_m1257850285
RNg:_RSACryptoServiceProvider_EncryptValue_m944137256
GQj:__ZN15dense_hashtableINSt3__24pairIK10KeyWrapperINS1_IPK11Il2CppImageP11Il2CppClassEEEjEES9_17ReflectionMapHashIS8_EN14dense_hash_mapIS9_jSD_NS9_14EqualsComparerINS0_8equal_toIS8_EEEENS0_9allocatorISB_EEE9SelectKeyESI_SK_ED2Ev
F5c:_gray_move_to
m5g:_DBNull_System_IConvertible_ToSingle_m13713620
Rtg:_Char_ToLowerInvariant_m1926695830
IEe:__ZL127U3CDelayedSetDirtyU3Ec__Iterator0_t3170500204_CustomAttributesCacheGenerator_U3CDelayedSetDirtyU3Ec__Iterator0_Reset_m160466733P21CustomAttributesCache
FUe:_CameraCallback__ctor_m899467377
QYh:_ReadOnlyCollection_1_System_Collections_IList_Contains_m1327645028_gshared
SGd:_Image_GetDrawingDimensions_m3060965396
Rre:__ZL69FontTextureRebuildCallback_t2467502454_CustomAttributesCacheGeneratorP21CustomAttributesCache
psh:_TypeLoadException__ctor_m1154572625
YCc:__Z30RegisterValidateMethodCallbackiPF18ScriptingMethodPtrS_17ScriptingClassPtrP6ObjectEPKc
DNa:__ZNSt3__27__sort4IRPFbRKNS_4pairIN9ShaderLab16FastPropertyNameE10ColorRGBAfEES7_EPS5_EEjT0_SC_SC_SC_T_
oIf:_AssemblyDescriptionAttribute__ctor_m3993445315
Lwf:_Context_get_WriteSequenceNumber_m1115956887
Xtf:_CipherSuite_get_ClientHMAC_m377589750
CJi:_Dictionary_2_Do_ICollectionCopyTo_TisKeyValuePair_2_t2401056908_m1169495264_gshared
pHd:_OpCodes__cctor_m3821715395
DAd:_ContentSizeFitter__ctor_m2349275633
nde:__ZL56TypeConverter_t2249118273_CustomAttributesCacheGeneratorP21CustomAttributesCache
ETh:_Collection_1_RemoveAt_m3506636491_gshared
V4c:_tt_cmap_init
aSc:__ZN8JSONRead8TransferI9BoundsIntEEvRT_PKc17TransferMetaFlagsb
P8j:__ZN24dense_hashtable_iteratorINSt3__24pairIK10KeyWrapperIPcES3_EES4_N6il2cpp5utils15PassThroughHashIS3_EEN14dense_hash_mapIS4_S3_SA_NS4_14EqualsComparerINS0_8equal_toIS3_EEEENS0_9allocatorIS6_EEE9SelectKeyESF_SH_E30advance_past_empty_and_deletedEv
mb:invoke_viidi
Ffb:__ZN25SingleBlockMemoryFileData9SetLengthEy
bIi:_Array_Sort_TisOrderBlock_t1585977831_m2922111197_gshared
qEd:_Graphic_OnRectTransformDimensionsChange_m3695755375
oOe:_SByte_System_IConvertible_ToChar_m1489191771_AdjustorThunk
EM:__ZN9AudioClip7CleanupEv
Uxc:__Z13RegisterClassI18DelayedCallManagerEvPKc
TAi:__Z76RuntimeInvoker_Void_t1185182177_Int32_t2950945753_PlayableBinding_t354260709PFvvEPK10MethodInfoPvPS4_
Pjg:_Interval_t1802865632_marshal_pinvoke_cleanup
i_j:__ZNK15dense_hashtableINSt3__24pairIK10KeyWrapperIP11Il2CppClassES4_EES5_N6il2cpp8metadata16SZArrayClassHashEN14dense_hash_mapIS5_S4_SA_NS5_14EqualsComparerINS9_19SZArrayClassCompareEEENS0_9allocatorIS7_EEE9SelectKeyESE_SG_E12test_deletedEj
r0g:_Convert_ToInt16_m1223489986
NEd:_Graphic_GraphicUpdateComplete_m1502194795
DQc:__Z18Transfer_BlittableI8JSONReadLb0EdEvRK29SerializationCommandArgumentsR31RuntimeSerializationCommandInfo
FTd:_SynchronizationAttribute_EnterContext_m1660729920
qvj:_Canvas_get_referencePixelsPerUnit_m3420541976
WYh:_ReadOnlyCollection_1_System_Collections_ICollection_get_SyncRoot_m2522539235_gshared
rfj:_Event_get_current_m2393892120
Klj:_VertexHelper_Clear_m627349662
nKj:__ZN6il2cpp2vm21ThreadPoolCompartment13QueueWorkItemEP17Il2CppAsyncResult
yhb:__ZNK9GfxDevice13GetViewMatrixEv
iCf:_UnmanagedMemoryStream_Dispose_m2681886347
Q7a:__ZN17RemapPPtrTransferC2E24TransferInstructionFlagsb
A$g:_Convert_ToDecimal_m889385228
B9:__ZN8TypeTree8BlobReadERPKhS1_ib
ppe:__ZL87Display_t1387065949_CustomAttributesCacheGenerator_Display_GetSystemExtImpl_m2808197389P21CustomAttributesCache
Qpg:_Array_Reverse_m3714848183
MCd:_Dropdown_ClearOptions_m4085591601
Qzd:_CanvasUpdateRegistry_InternalRegisterCanvasElementForGraphicRebuild_m3522560454
ryh:_KeyValuePair_2__ctor_m880186442_gshared
X5a:__ZN18LoadSceneOperation23GetAllowSceneActivationEv
qya:__ZN6CameraD0Ev
DYi:_Collection_1_System_Collections_IList_get_IsReadOnly_m2319019412_gshared
eue:__ZL57EventModifiers_t2016417398_CustomAttributesCacheGeneratorP21CustomAttributesCache
eWh:_Collection_1_System_Collections_IList_IndexOf_m837396833_gshared
yz:__ZN7mecanim12AndValueMaskILb0EEEvPKNS_14ValueArrayMaskEPS1_
b4a:__ZN14SafeBinaryRead21TransferSTLStyleArrayINSt3__26vectorIi13stl_allocatorIiL18MemLabelIdentifier13ELi16EEEEEEvRT_17TransferMetaFlags
ujh:_EncoderFallback__cctor_m3806755293
sRf:_InternalEnumerator_1__ctor_m962177456_AdjustorThunk
GZc:_raccess_guess_apple_double
nQb:__ZL18ProgramUniform1uivPK7ApiGLESjiihPKv
qwc:__ZN14Texture2DArray13RebuildMipMapEv
OCj:__ZN13Il2CppHashSetIPK17Il2CppGenericInstN6il2cpp8metadata21Il2CppGenericInstHashENS4_24Il2CppGenericInstCompareENSt3__29allocatorI10KeyWrapperIS2_EEEEC2EjRKS5_RKS6_
npb:__Z18Transfer_BlittableI14SafeBinaryReadLb1EaEvRK29SerializationCommandArgumentsR31RuntimeSerializationCommandInfo
_8j:__ZN6il2cpp2gc16GarbageCollector14RemoveWeakLinkEPPv
mjc:__ZN9ShaderLab20SerializedSubProgram14AddVectorParamEPKcii15ShaderParamTypei
rQi:_List_1_GetEnumerator_m563931292_gshared
qfd:__ZN2UI14CanvasRenderer12CleanupClassEv
LYg:_Enumerator__ctor_m3362421874
Pse:__ZL94AudioSampleProvider_t3950279772_CustomAttributesCacheGenerator_U3CtrackIndexU3Ek__BackingFieldP21CustomAttributesCache
x5j:__ZN6il2cpp2vm6Object3BoxEP11Il2CppClassPv
IYj:__ZN6il2cpp2vm6Thread7SetNameEP12Il2CppThreadP12Il2CppString
sZ:__ZN11UnityEngine15CloudWebService10RestClientINS0_23WebRequestRestHeaderMapEE16SetRequestHeaderERKN4core12basic_stringIcNS4_20StringStorageDefaultIcEEEESA_
g4a:__ZN30RuntimeInitializeOnLoadManager15ClassMethodInfo8TransferI14SafeBinaryReadEEvRT_
oUd:_ConstructionCall_InitDictionary_m2824447813
GNd:_TargetException__ctor_m3701535709
Hyi:__Z86RuntimeInvoker_Int32_t2950945753_Vector3_t3722313464_Vector3_t3722313464_RuntimeObjectPFvvEPK10MethodInfoPvPS4_
zW:__ZL22InitializeModule_Audiov
qgb:__ZN16MemoryFileSystem8IsLockedERK13FileEntryData
N$j:__ZN6il2cpp6icalls8mscorlib6System2IO6MonoIO5WriteEiP11Il2CppArrayiiPi
M_e:_Mathf_InverseLerp_m4155825980
Vii:__Z92RuntimeInvoker_RuntimeObject_RuntimeObject_RuntimeObject_SByte_t1669577662_SByte_t1669577662PFvvEPK10MethodInfoPvPS4_
_k:_emscripten_glBindRenderbuffer
dOi:_List_1_System_Collections_IList_Insert_m1011775503_gshared
Jgk:_GC_dirty_init
c4j:__ZN6il2cpp2vm5Image33GetCachedMemoryMappedResourceFileEP24Il2CppReflectionAssembly
t4j:__ZN6il2cpp2vm5Field14GetValueObjectEP9FieldInfoP12Il2CppObject
bdd:__ZNK2UI6Canvas16GetTargetDisplayEv
Kxi:__Z69RuntimeInvoker_Void_t1185182177_Int32_t2950945753_Vector2_t2156229523PFvvEPK10MethodInfoPvPS4_
Aid:__Z63Register_UnityEngine_Analytics_CustomEventData_Internal_Destroyv
fqh:_TimeSpan_CompareTo_m3633415627_AdjustorThunk
phf:_MaskableGraphic_OnTransformParentChanged_m329502413
A$i:_Collection_1_Remove_m3611142372_gshared
UEb:__ZN13MonoBehaviour17RemoveFromManagerEv
_9e:_Vector3_get_Item_m668685504_AdjustorThunk
eza:__ZN12ImageFilters14AddImageFilterERK11ImageFilter
ESd:_Context_NotifyDynamicSinks_m1841702879
$fj:_GUIUtility_get_pixelsPerPoint_m2369948084
pSg:_WindowsIdentity_System_Runtime_Serialization_IDeserializationCallback_OnDeserialization_m3428853631
e1:__ZN13MemoryManagerC2Ev
K0a:__ZN12SkinMeshInfo10DeallocateEPS_
DDj:__ZNK15dense_hashtableINSt3__24pairIK10KeyWrapperIPKcEP11Il2CppClassEES5_N6il2cpp5utils11StringUtils12StringHasherIS4_EEN14dense_hash_mapIS5_S8_SE_NS5_14EqualsComparerINSB_13VmStringUtils21CaseSensitiveComparerEEENS0_9allocatorIS9_EEE9SelectKeyESJ_SL_E8min_sizeEjj
Ykf:_ScrollRect_SetDirty_m214267968
VCi:__Z74RuntimeInvoker_Int32_t2950945753_UIVertex_t4057497605_UIVertex_t4057497605PFvvEPK10MethodInfoPvPS4_
Kfb:__ZN20ArchiveStorageReader28AcquireAndPrefillUnusedBlockEjPNS_11CacheResultE
nrg:_Boolean_System_IConvertible_ToDateTime_m603510836
lwc:__Z12NHxRoughnessIA4_tEvP9Texture2DPT_iiii
B3h:__ZN28GenericInterfaceFuncInvoker2IibbE6InvokeEPK10MethodInfoP12Il2CppObjectbb
Xnd:__ZN11UnityEngine15PlatformWrapper33GetTimeSinceStartupInMillisecondsEv
eqj:__ZL25UnresolvedVirtualCall_105P12Il2CppObjecthPK10MethodInfo
fX:__Z6simd4iiiii
Dab:__ZN9Transform5ResetEv
w0g:_Decimal_op_Explicit_m1842265407
$vb:__Z22TransferField_NonArrayI24GenerateTypeTreeTransfer16Converter_StringEvRK23StaticTransferFieldInfoR31RuntimeSerializationCommandInfoRT0_
Yka:__ZL47__ManagedRegistrationHelperFunction_FixedUpdatePv
gwj:_CanvasRenderer_SetAlphaTexture_m2009567627
t1c:_UNITY_FT_CMap_New
qRf:_InternalEnumerator_1_get_Current_m4241643334_AdjustorThunk
tQf:_InternalEnumerator_1_MoveNext_m154749640_AdjustorThunk
pHb:__Z17MainLoopKeepalivePv
rDe:__ZL62Slider_t3903728902_CustomAttributesCacheGenerator_m_HandleRectP21CustomAttributesCache
ZEj:__ZN15dense_hashtableI10KeyWrapperIPK17Il2CppGenericInstES4_N6il2cpp8metadata21Il2CppGenericInstHashEN14dense_hash_setIS4_S7_NS4_14EqualsComparerINS6_24Il2CppGenericInstCompareEEENSt3__29allocatorIS4_EEE8IdentityESB_SE_E12expand_arrayEjN21dense_hash_map_traits17integral_constantIbLb0EEE
wXf:_InternalEnumerator_1_get_Current_m1588647567_AdjustorThunk
dIf:_Assembly_UnprotectedGetName_m600830855
s2d:__ZL51GCHandle_t3351438187_CustomAttributesCacheGeneratorP21CustomAttributesCache
Ebf:_InputField_get_caretBlinkRate_m3620074524
Nkj:_FieldWithTarget_get_fieldPath_m341366840
h_b:__Z19SetupLODFadeKeywordR17ShaderPassContexti
lOg:_RSAPKCS1SignatureFormatter_CreateSignature_m3191980616
KLa:__ZN10builtintex16GetDefaultTexEnvE16TextureDimensionb
vSb:__ZL25CheckCopyTextureArgumentsRK7ApiGLESP11GLESTextureS3_
yXf:_InternalEnumerator_1__ctor_m362401472_AdjustorThunk
sOi:_List_1_AsReadOnly_m2400800347_gshared
pAk:_glDeleteShader__wrapper
dfa:__ZNK15PlayableMethods18InvokeOnGraphStartER18ScriptingObjectPtrRK9HPlayable
xvb:__Z29Transfer_Blittable_ArrayFieldI24GenerateTypeTreeTransferyEvRT_R9ArrayInfoRK23StaticTransferFieldInfo
Fvh:_ValueType_Equals_m1524437845
oge:__ZL71RuntimePlatform_t4159857903_CustomAttributesCacheGenerator_OSXWebPlayerP21CustomAttributesCache
yN:__ZN4FMOD7SystemI9playSoundE17FMOD_CHANNELINDEXPNS_5SoundEbPPNS_7ChannelE
kwi:__Z123RuntimeInvoker_RuntimeObject_Ray_t3785851493_RuntimeObject_Single_t1397266774_Int32_t2950945753_RuntimeObject_RuntimeObjectPFvvEPK10MethodInfoPvPS4_
nMi:_List_1_System_Collections_IList_Remove_m3140917266_gshared
JHg:_Int64_GetHashCode_m703091690
dma:__ZL60__ManagedRegistrationHelperFunction_ReflectionProbeBlendInfoPv
v7i:_X509CrlEntry_get_RevocationDate_m606796547
Efj:_Event_get_commandName_m4275147343
xz:__ZN27AnimationLayerMixerPlayable17LayerMixerProcessEP35AnimationPlayableEvaluationConstantP32AnimationPlayableEvaluationInputP33AnimationPlayableEvaluationOutputM17AnimationPlayableFvS1_S3_S5_EMS_FvS1_S3_S5_ESA_MS_FvS5_S1_S3_S5_ifE
F$g:_Decimal_op_Implicit_m4256234411
$L:__ZN12AudioManager23VirtualRedirectTransferER18StreamedBinaryReadILb0EE
xfi:__Z60RuntimeInvoker_RuntimeObject_RuntimeObject_Int16_t2552820387PFvvEPK10MethodInfoPvPS4_
D6h:__ZN28GenericInterfaceFuncInvoker1Ib40CustomAttributeTypedArgument_t2723150157E6InvokeEPK10MethodInfoP12Il2CppObjectS0_
IMg:_StreamReader__ctor_m3941437302
wqc:__Z57Register_UnityEngine_Transform_INTERNAL_get_localRotationv
Bcg:_IPv6Address_get_Address_m1389170741
V3a:__ZN30RuntimeInitializeOnLoadManager23VirtualRedirectTransferER17RemapPPtrTransfer
_sk:dynCall_viif
uIf:_AssemblyName_get_Flags_m1616840602
ZXf:_InternalEnumerator_1_MoveNext_m1590908934_AdjustorThunk
Qrc:__Z13RegisterClassIN5Unity9ComponentEEvPKc
TAf:_StringReader_ReadLine_m2337102945
dtb:__ZL26Transfer_SimpleNativeClassI17RemapPPtrTransfer8GradientLb0EEvRK29SerializationCommandArgumentsR31RuntimeSerializationCommandInfo
Bhe:__ZL49Shader_t4151988712_CustomAttributesCacheGeneratorP21CustomAttributesCache
XVe:__ZN23InterfaceActionInvoker3IiP8String_tP24ObjectU5BU5D_t2843939325E6InvokeEjP11Il2CppClassP12Il2CppObjectiS1_S3_
iB:__ZN17AnimationPlayable26DisconnectNoTopologyChangeEPS_i
Mrg:_Boolean_Equals_m2410333903_AdjustorThunk
BUi:_List_1_System_Collections_IList_Contains_m2131605266_gshared
Z4d:__ZL61ISurrogateSelector_t3040401154_CustomAttributesCacheGeneratorP21CustomAttributesCache
fWi:_List_1_ToArray_m1990123684_gshared
n_:__ZN13UploadHandlerD2Ev
_J:__GLOBAL__sub_I_Modules_AssetBundle_Public_1_cpp
zrk:dynCall_viiiiiffi
Btj:_Hacker__ctor_m518604791
wc:_emscripten_glBlendFuncSeparate
t1i:_Collection_1_Add_m809543251_gshared
H5:__Z20scripting_string_newPKc
Cdj:_Parser_IsSingleline_m326238187
nxg:_CollectionBase_get_Count_m1708965601
bRe:_HMAC__ctor_m97939284
N_h:_ReadOnlyCollection_1_System_Collections_IList_get_Item_m1005238747_gshared
Pae:__ZL49DBNull_t3725197148_CustomAttributesCacheGeneratorP21CustomAttributesCache
Evh:_ValueType_DefaultEquals_m2927252100
oMc:__ZN9JSONWrite12AppendToNodeEPN5Unity9rapidjson12GenericValueINS1_4UTF8IcEE13JSONAllocatorEEPKcRS6_
aQh:_ASN1_ToString_m1340204511
jgg:_X509Store_get_Certificates_m2149701265
klb:__ZN20GfxAsyncReadbackDataD2Ev
Nzh:_DefaultComparer_GetHashCode_m2865442331_gshared
Erh:_Type_GetField_m2961003358
xze:__ZL144StandaloneInputModule_t2760469101_CustomAttributesCacheGenerator_StandaloneInputModule_t2760469101____allowActivationOnMobileDevice_PropertyInfoP21CustomAttributesCache
Eqa:__ZN9Scripting11UnityEngine13ComputeBuffer12CleanupProxyEv
llh:_StringBuilder_set_Chars_m3548656617
yNj:__ZN6il2cpp2os4File17GetFileAttributesERKNSt3__212basic_stringIcNS2_11char_traitsIcEENS2_9allocatorIcEEEEPi
qzi:__Z59RuntimeInvoker_Int32_t2950945753_X509ChainStatus_t133602714PFvvEPK10MethodInfoPvPS4_
WE:__ZNSt3__26__sortIRPFbPKN8Animator11AnimatorJobES4_EPS4_EEvT0_S9_T_
wT:__ZN17AudioCustomFilterD2Ev
gLc:__ZN11IMGUIModule26SetDeveloperConsoleVisibleEb
Xzi:__Z56RuntimeInvoker_Void_t1185182177_MonoResource_t4103430009PFvvEPK10MethodInfoPvPS4_
Y9a:__ZN9Transform16ResetReplacementEv
Cek:_GC_unpromote_black_lists
VJ:__ZN9Scripting11UnityEngine2XR5Tango9GridIndex9InitProxyEv
rRb:__ZN18GfxFramebufferGLES18ReleaseFramebufferEP17RenderSurfaceBaseP14GfxContextGLES
tPc:__Z18Transfer_BlittableI8JSONReadLb1EiEvRK29SerializationCommandArgumentsR31RuntimeSerializationCommandInfo
mBf:_TextReader_Dispose_m4253712522
R_:__ZN19CloudServiceHandler34HandleSaveFileWebRequestPlayerLoopEv
uce:__ZL82BigInteger_t2902905090_CustomAttributesCacheGenerator_BigInteger__ctor_m2474659844P21CustomAttributesCache
WA:__ZN7mecanim21ValueArrayReverseCopyEPKNS_18ValueArrayConstantEPKNS_10ValueArrayES2_PS3_PKi
frd:__ZL47__ManagedRegistrationHelperFunction_XRNodeStatePv
PS:__Z31GetParentSampleClipFromInstancePN11SoundHandle8InstanceE
R2i:_InternalAsyncResult_get_BytesRead_m3975435112
tsc:__ZNK28RectTransformPropertyBinding13GetFloatValueERKN11UnityEngine9Animation10BoundCurveE
B8b:__ZN6Camera22StandaloneCustomRenderENS_10RenderFlagEP6ShaderRKN4core12basic_stringIcNS3_20StringStorageDefaultIcEEEEPNS_21PerformRenderFunctionE
Zeh:_Array_InternalArray__IndexOf_TisKeyValuePair_2_t2401056908_m4118889689_gshared
f5a:__ZNSt3__26vectorI4PPtrI6ObjectE13stl_allocatorIS3_L18MemLabelIdentifier52ELi16EEE6assignINS_11__wrap_iterIPS3_EEEENS_9enable_ifIXaasr21__is_forward_iteratorIT_EE5valuesr16is_constructibleIS3_NS_15iterator_traitsISD_E9referenceEEE5valueEvE4typeESD_SD_
VWh:_Collection_1_System_Collections_ICollection_get_IsSynchronized_m500240145_gshared
Alk:__ZN6il2cpp2os16ThreadLocalValue8GetValueEPPv
mfg:_X509Certificate2_get_PublicKey_m370665820
FHj:__ZN6il2cpp2vm13MetadataCache14GetGenericInstEPKPK10Il2CppTypej
fU:__ZN13AudioListener17ReadExtensionNameEi
Zc:_glUniform1uiv
bmd:__ZN11UnityEngine7Connect20RemoteConfigSettings35CallConfigUpdatedOnMainThreadStaticEPS1_
c$i:_Collection_1_System_Collections_Generic_ICollectionU3CTU3E_get_IsReadOnly_m1419845799_gshared
Ojj:_U3CTimedTriggerU3Ec__Iterator0_System_Collections_Generic_IEnumeratorU3CobjectU3E_get_Current_m3822291412
mV:__ZN9AudioClip15InitializeClassEv
ap:setThrew
jAf:_SslClientStream_OnLocalPrivateKeySelection_m1934775249
dwc:__ZL21BuildEmptyCubeTexturePKci11ColorRGBA3217TextureColorSpace
cpe:__ZL106AsyncOperation_t1445031843_CustomAttributesCacheGenerator_AsyncOperation_InvokeCompletionEvent_m1410305036P21CustomAttributesCache
Nsg:_Byte_ToString_m721125428
Gec:__ZN14SafeBinaryRead21TransferSTLStyleArrayINSt3__26vectorIN9ShaderLab20SerializedSubProgramENS1_9allocatorIS4_EEEEEEvRT_17TransferMetaFlags
wfh:_Array_InternalArray__IndexOf_TisX509ChainStatus_t133602714_m48896230_gshared
fdb:__ZN19dynamic_block_arrayI13FileEntryInfoLj32EE4growEj
CPc:__Z15Transfer_StringI8JSONReadLb1EEvRK29SerializationCommandArgumentsR31RuntimeSerializationCommandInfo
s6a:__ZN16LightmapSettings15AppendLightmapsEiRK13dynamic_arrayI12LightmapDataLj0EE
zha:__ZN6prcoreL17RemapGenericFloatI17TexFormatRGBFloat15TexFormatRGHalfEEvPKNS_9InnerInfoE
D3d:__ZL63IContributeEnvoySink_t2817847987_CustomAttributesCacheGeneratorP21CustomAttributesCache
J3c:_sfnt_load_face
RYc:_UNITY_FT_Render_Glyph_Internal
x0j:__ZNSt3__212basic_stringIDsNS_11char_traitsIDsEENS_9allocatorIDsEEE21__grow_by_and_replaceEjjjjjjPKDs
J1c:_UNITY_ft_service_list_lookup
iqj:__ZL25UnresolvedVirtualCall_109P12Il2CppObjectiaPK10MethodInfo
Ysb:__Z18Transfer_BlittableI17RemapPPtrTransferLb1E11ColorRGBA32EvRK29SerializationCommandArgumentsR31RuntimeSerializationCommandInfo
gJc:__ZN5IMGUI21SelectReceivingWindowER8GUIStateb
rRe:_HMAC_Initialize_m3157696427
eBf:_SynchronizedWriter_Write_m2529550287
Tnk:___strchrnul
GSi:_List_1_System_Collections_ICollection_CopyTo_m3643417403_gshared
n2:__ZN13BaseAllocator13TryDeallocateEPv
gyb:__Z29Transfer_Blittable_ArrayFieldI19StreamedBinaryWriteILb0EEfEvRT_R9ArrayInfoRK23StaticTransferFieldInfo
lyj:_ListPool_1_Release_m1363449253_gshared
feg:_X509SubjectKeyIdentifierExtension__ctor_m2055934916
lLc:__ZN9Scripting19UnityEngineInternal5Input17NativeInputSystem9InitProxyEv
HIh:_Enumerator_Dispose_m2531396701_AdjustorThunk
_fb:__ZN16MemoryFileSystem5WriteER13FileEntryDatayPvPy
Alj:_Toggle_OnSubmit_m1320104356
Nmk:_sprintf
Ujc:__ZN9Scripting25CreateNullExceptionObjectE18ScriptingObjectPtr
cSh:_PrivateKeyInfo_DecodeRSA_m2889346634
jT:__ZN13AudioListener17RemoveFromManagerEv
sd:_glAttachShader
OAd:_ContentSizeFitter_SetLayoutHorizontal_m2833273874
OXh:_ReadOnlyCollection_1_System_Collections_IList_RemoveAt_m134366701_gshared
Dtf:__ZN28GenericInterfaceFuncInvoker1IbP22Int32U5BU5D_t385246372E6InvokeEPK10MethodInfoP12Il2CppObjectS1_
Txa:__ZNK6Camera19GetProjectionMatrixEv
JBe:__ZL70InputField_t3762917431_CustomAttributesCacheGenerator_m_SelectionColorP21CustomAttributesCache
ecf:_InputField_SetToCustomIfContentTypeIsNot_m2813459946
nci:__Z49RuntimeInvoker_DateTime_t3738529785_RuntimeObjectPFvvEPK10MethodInfoPvPS4_
uge:__ZL70RuntimePlatform_t4159857903_CustomAttributesCacheGenerator_FlashPlayerP21CustomAttributesCache
FEg:_Guid_GetHashCode_m3042133858_AdjustorThunk
ysa:__Z38PreallocateObjectFromPersistentManagerib
jfj:_Event_t2956885303_marshal_pinvoke_cleanup
KSg:_SecurityException_get_FirstPermissionThatFailed_m3934559164
ejg:_Interpreter_Backtrack_m2828876822
bRa:__ZNK9Texture2D20GetUnscaledTextureIDEv
pUi:_List_1_get_Capacity_m3666274724_gshared
EOe:_SByte_System_IConvertible_ToType_m4075253447
Hyk:_glFenceSync__wrapper
HAj:__ZNK15dense_hashtableINSt3__24pairIK10KeyWrapperIPK22Il2CppGenericParameterEP11Il2CppClassEES6_N6il2cpp5utils11PointerHashIS4_EEN14dense_hash_mapIS6_S9_SE_NS6_14EqualsComparerINS0_8equal_toIS5_EEEENS0_9allocatorISA_EEE9SelectKeyESJ_SL_E8min_sizeEjj
Q8e:_Transform_INTERNAL_get_worldToLocalMatrix_m2730237241
NTg:_Single_System_IConvertible_ToUInt64_m3299129161
vdf:_InputField_IsValidChar_m1928072643
jAi:__Z51RuntimeInvoker_Void_t1185182177_HitInfo_t3229609740PFvvEPK10MethodInfoPvPS4_
gRa:__ZNK9Texture2D26CanReuploadDataToGfxDeviceEv
V6d:__ZL63CodeAccessPermission_t2681295399_CustomAttributesCacheGeneratorP21CustomAttributesCache
R6a:__Z29ClearRepeatingLogMessageStatev
JVf:_InternalEnumerator_1_get_Current_m3191242573_gshared
Esg:_Byte_Equals_m1161982810_AdjustorThunk
Czi:__Z53RuntimeInvoker_Int32_t2950945753_UICharInfo_t75501106PFvvEPK10MethodInfoPvPS4_
txc:__ZN15QualitySettings12CleanupClassEv
Yca:__ZN21EnlightenSceneMappingaSERKS_
Bva:__ZN14SafeBinaryRead21TransferSTLStyleArrayI13dynamic_arrayI17SortingLayerEntryLj0EEEEvRT_17TransferMetaFlags
vVc:__ZL48__ManagedRegistrationHelperFunction_MeshColliderPv
JVi:_List_1_GrowIfNeeded_m278824317_gshared
jUb:__ZN7ApiGLESD2Ev
_wa:__ZN9Transform47ClearTransformHierarchyAndApplyToSerializedDataEv
AJj:_CertificateHandler_t2739891000_marshal_pinvoke
RQc:__ZN8JSONRead21TransferSTLStyleArrayINSt3__26vectorI8MonoPPtr13stl_allocatorIS3_L18MemLabelIdentifier1ELi16EEEEEEvRT_17TransferMetaFlags
Idf:_InputField_IsSelectionVisible_m3622592134
vqg:_AssemblyLoadEventHandler_Invoke_m1462077361
wya:__ZN6Camera23VirtualRedirectTransferER19StreamedBinaryWriteILb0EE
otk:dynCall_fidi
BOj:__ZN15dense_hashtableINSt3__24pairIK10KeyWrapperINS1_IPK9FieldInfoP11Il2CppClassEEEjEES9_17ReflectionMapHashIS8_EN14dense_hash_mapIS9_jSD_NS9_14EqualsComparerINS0_8equal_toIS8_EEEENS0_9allocatorISB_EEE9SelectKeyESI_SK_E12resize_deltaEjj
C8j:__ZNK15dense_hashtableINSt3__24pairIK10KeyWrapperIPcES3_EES4_N6il2cpp5utils15PassThroughHashIS3_EEN14dense_hash_mapIS4_S3_SA_NS4_14EqualsComparerINS0_8equal_toIS3_EEEENS0_9allocatorIS6_EEE9SelectKeyESF_SH_E10test_emptyERK30dense_hashtable_const_iteratorIS6_S4_SA_SJ_SF_SH_E
MOi:_List_1_TrimExcess_m3433550210_gshared
AEj:__ZNK15dense_hashtableINSt3__24pairIK10KeyWrapperIPK19Il2CppGenericMethodEPK26Il2CppGenericMethodIndicesEES6_N6il2cpp8metadata23Il2CppGenericMethodHashEN14dense_hash_mapIS6_SA_SE_NS6_14EqualsComparerINSD_26Il2CppGenericMethodCompareEEENS0_9allocatorISB_EEE9SelectKeyESI_SK_E8min_sizeEjj
A3d:__ZL58IContextProperty_t840037424_CustomAttributesCacheGeneratorP21CustomAttributesCache
kgj:_GUILayoutEntry__ctor_m2229197035
i$:__ZN11UnityEngine15CloudWebService14RestDownloaderD2Ev
fLf:_EnumBuilder_get_Assembly_m1175292766
Bbc:__Z29StdTemplateConversionFunctionIjhEbPvR14SafeBinaryRead
uBa:__ZN15dense_hashtableINSt3__24pairIKN9ShaderLab7Program23ShaderKeywordSetAndHashEPKNS2_10SubProgramEEES4_NS3_24ShaderKeywordHashFunctorEN14dense_hash_mapIS4_S8_SA_NS0_8equal_toIS4_EE13stl_allocatorIS9_L18MemLabelIdentifier67ELi16EEE9SelectKeyESD_SG_E15insert_noresizeERKS9_
JIi:_Array_swap_TisCustomAttributeNamedArgument_t287865710_TisCustomAttributeNamedArgument_t287865710_m881919420_gshared
Ipc:__ZNK13MonoBehaviour13GetScriptTypeEv
pJa:__ZN13RenderTexture12SetDimensionE16TextureDimension
Xzf:_SslClientStream_set_ClientCertSelectionDelegate_m1261530976
Voa:__ZN9Scripting11UnityEngine16GradientColorKey9InitProxyEv
ie:_SDL_FreeRW
aye:__ZL109ExecuteEvents_t3484638744_CustomAttributesCacheGenerator_ExecuteEvents_U3Cs_HandlerListPoolU3Em__0_m391641698P21CustomAttributesCache
HAi:__Z79RuntimeInvoker_Void_t1185182177_Int32_t2950945753_ParameterModifier_t1461694466PFvvEPK10MethodInfoPvPS4_
wed:__Z34CanvasRenderer_Get_Custom_PropCullP12Il2CppObject
PR:__ZN20SoundChannelInstance8getDelayE14FMOD_DELAYTYPEPjS1_
gjk:__ZNSt3__26__treeINS_12__value_typeIPvxEENS_19__map_value_compareIS2_S3_NS_4lessIS2_EELb1EEENS_9allocatorIS3_EEE12__find_equalIS2_EERPNS_16__tree_node_baseIS2_EESF_RKT_
LBa:__ZNSt3__26vectorIN20GpuProgramParameters15StructParameterENS_9allocatorIS2_EEEC2ERKS5_
vPf:_ArrayReadOnlyList_1_Contains_m232667507_gshared
lli:__Z77RuntimeInvoker_Boolean_t97287965_IntPtr_t_Int32_t2950945753_SByte_t1669577662PFvvEPK10MethodInfoPvPS4_
t2e:_PlayableHandle_GetPlayableType_m432385838_AdjustorThunk
FXc:__ZNSt3__26vectorIN20TextRenderingPrivate8FontImpl13CharacterInfoE13stl_allocatorIS3_L18MemLabelIdentifier1ELi16EEE8__appendEj
v:tempBigInt
lFi:_Array_InternalArray__Insert_TisKeyframe_t4206410242_m1558638568_gshared
e9d:__ZL77Convert_t2465617642_CustomAttributesCacheGenerator_Convert_ToByte_m3567528984P21CustomAttributesCache
qe:_emscripten_glVertexAttrib1fv
mfc:__ZNSt3__26vectorIN9ShaderLab20SerializedSubProgram12UAVParameterENS_9allocatorIS3_EEE7reserveEj
uqk:__ZSt11__terminatePFvvE
oO:__ZN12AudioManager14systemCallbackEP11FMOD_SYSTEM24FMOD_SYSTEM_CALLBACKTYPEPvS3_
c6h:_Nullable_1_Equals_m4046255732_gshared
N0h:_ReadOnlyCollection_1_System_Collections_Generic_ICollectionU3CTU3E_Clear_m3451551308_gshared
zyd:_BaseMeshEffect_OnEnable_m3291426649
IUe:_ClassLibraryInitializer_Init_m988673678
Cqg:_AssemblyLoadEventHandler_BeginInvoke_m1281107466
uHa:__ZN16ReflectionProbes16UpdateSampleDataEv
pJe:_TrackingServices_NotifyUnmarshaledObject_m2784831802
Ovg:_ReadOnlyArrayListWrapper_Sort_m2577012511
Nka:__ZL46__ManagedRegistrationHelperFunction_UnityEventPv
RBg:_CultureInfo_GetCultureInfo_m56098747
yOa:__ZN14Texture2DArray5ResetEv
p5b:__Z20AddActiveLocalLightsR11CullResultsR27LocalLightCullingParametersPPK15SharedLightDataPK8Vector4fRK9IndexListPfRSA_R12ActiveLightsSG_P5RectTIfEP13TargetEyeMask
Cs:__ZL53__ManagedRegistrationHelperFunction_AnimatorStateInfoPv
q$g:_Convert_ToDecimal_m1284148187
AUh:_Collection_1__ctor_m3489157029_gshared
Hhe:__ZL117TouchScreenKeyboard_t731888065_CustomAttributesCacheGenerator_TouchScreenKeyboard_Open_m3609399077____autocorrection2P21CustomAttributesCache
fka:__ZL52__ManagedRegistrationHelperFunction_AndroidJNIHelperPv
j$c:_cf2_getNormalizedVector
oua:__ZN5RectTIfE8TransferI18StreamedBinaryReadILb0EEEEvRT_
Ne:_JS_Sound_Play
t4f:_KeyCollection_GetEnumerator_m1862005650_gshared
lod:__Z26GetUnityConnectSettingsPtrv
K1h:_ReadOnlyCollection_1_System_Collections_IList_set_Item_m1538987737_gshared
u$f:_DefaultComparer_Compare_m1920986590_gshared
S4e:_RectOffset_t1369453676_marshal_pinvoke_back
M5a:__ZN5Mutex7TryLockEv
QFd:_GridLayoutGroup_set_constraint_m3308895167
Bte:__ZL103AudioSource_t3935305588_CustomAttributesCacheGenerator_AudioSource_ReadExtensionPropertyValue_m72717540P21CustomAttributesCache
CUd:_ConstructionCallDictionary_SetMethodProperty_m3145285304
Erb:__ZN15SerializeTraitsI13dynamic_arrayIsLj0EEE19ResizeSTLStyleArrayERS1_i
l1a:__ZN11TimeManagerD2Ev
oQf:_InternalEnumerator_1_System_Collections_IEnumerator_get_Current_m1503522504_gshared
nE:__ZN7mecanim8skeleton13SkeletonAlignEPKNS0_8SkeletonERKN4math7_float4ES7_i
fxc:__ZN19ShaderPropertySheet16SetVectorIndexedEN9ShaderLab16FastPropertyNameEifRK8Vector4fNS_8SetFlagsE
Zqh:_Type_get_IsAbstract_m1120089130
eaf:_Vector3_get_normalized_m2454957984_AdjustorThunk
Kq:__ZN14SafeBinaryRead21TransferSTLStyleArrayIN4core12basic_stringIcNS1_20StringStorageDefaultIcEEEEEEvRT_17TransferMetaFlags
$ej:_UriFormatException__ctor_m1115096473
JTf:_InternalEnumerator_1_Dispose_m2818366163_AdjustorThunk
Vch:_Array_InternalArray__IEnumerable_GetEnumerator_TisSlot_t384495010_m460993382_gshared
XYj:__ZN15dense_hashtableINSt3__24pairIK10KeyWrapperINS1_IP11Il2CppClassjEEES4_EES6_N6il2cpp8metadata14ArrayClassHashEN14dense_hash_mapIS6_S4_SB_NS6_14EqualsComparerINSA_17ArrayClassCompareEEENS0_9allocatorIS8_EEE9SelectKeyESF_SH_E9copy_fromERKSK_j
dcc:__Z29StdTemplateConversionFunctionIayEbPvR14SafeBinaryRead
znh:_WaitHandle__ctor_m1707080176
nEi:__Z55RuntimeInvoker_Boolean_t97287965_Nullable_1_t2603721331PFvvEPK10MethodInfoPvPS4_
Uhj:_GUIUtility_IsExitGUIException_m3644066650
J$:__ZN11UnityEngine15CloudWebService14DataDispatcher4StopEv
xFg:_Int16_System_IConvertible_ToUInt64_m134975563
ofc:__ZNSt3__26vectorIN9ShaderLab20SerializedSubProgram12UAVParameterENS_9allocatorIS3_EEE8__appendEj
vQf:_InternalEnumerator_1__ctor_m4191108945_gshared
gSj:__ZNK15dense_hashtableINSt3__24pairIK10KeyWrapperINS1_IPK9EventInfoP11Il2CppClassEEEjEES9_17ReflectionMapHashIS8_EN14dense_hash_mapIS9_jSD_NS9_14EqualsComparerINS0_8equal_toIS8_EEEENS0_9allocatorISB_EEE9SelectKeyESI_SK_E12test_deletedERK24dense_hashtable_iteratorISB_S9_SD_SM_SI_SK_E
hJc:__ZN5IMGUI9GUIWindow5OnGUIER8GUIState
znj:_AudioConfigurationChangeHandler_EndInvoke_m4175380841
uTg:_Single_System_IConvertible_ToDecimal_m325860800_AdjustorThunk
Thh:_Array_InternalArray__ICollection_CopyTo_TisSingle_t1397266774_m455540885_gshared
Nja:__ZN17ScriptingGCHandle7AcquireE18ScriptingObjectPtr25ScriptingGCHandleWeakness
nrj:__ZL25UnresolvedVirtualCall_168P12Il2CppObject39CustomAttributeNamedArgument_t287865710S1_PK10MethodInfo
Ani:__Z74RuntimeInvoker_RuntimeObject_RuntimeObject_Int64_t3736567304_RuntimeObjectPFvvEPK10MethodInfoPvPS4_
s8f:_Enumerator__ctor_m1734342590_gshared
jsk:dynCall_iifiii
Vzb:__ZN18StreamedBinaryReadILb1EE8TransferI13dynamic_arrayIjLj0EEEEvRT_PKc17TransferMetaFlags
Ipi:__Z85RuntimeInvoker_Int32_t2950945753_RuntimeObject_Int32U26_t1369213839_Int32_t2950945753PFvvEPK10MethodInfoPvPS4_
WOa:__Z21HasAlphaTextureFormat13TextureFormat
lW:__ZN12AudioManager6UpdateEv
QOa:__ZN14ImageReference9BlitImageERKS_NS_8BlitModeE
cv:__ZN8Animator12AddToManagerEv
QCf:_MissingFieldException__ctor_m3742452630
ahg:_X509Chain__ctor_m2674663382
w0:__GLOBAL__sub_I_Runtime_Core_Callbacks_0_cpp
O0h:_ReadOnlyCollection_1_System_Collections_Generic_IListU3CTU3E_Insert_m1121807192_gshared
OFb:__ZN23CachedSerializationDataD2Ev
A7b:__ZNK25CameraStackRenderingState31CalculateStereoCameraTargetTypeEv
UGa:__ZN14RenderSettings23VirtualRedirectTransferER14SafeBinaryRead
RYf:_InternalEnumerator_1_get_Current_m114240259_gshared
pak:__ZN6il2cpp2os10ThreadImpl15CurrentThreadIdEv
iDh:_EqualityComparer_1__ctor_m1138336971_gshared
UFa:__ZN17GlobalGameManager8TransferI17RemapPPtrTransferEEvRT_
wGe:__ZL73FieldWithTarget_t3058750293_CustomAttributesCacheGenerator_m_StaticStringP21CustomAttributesCache
MPg:_SymmetricAlgorithm_get_Key_m3241860519
zef:_U3CMouseDragOutsideRectU3Ec__Iterator1_Reset_m2233410497
q0:__GLOBAL__sub_I_Runtime_Camera_5_cpp
gwf:_ClientSessionInfo_get_HostName_m2118440995
QEa:__ZN16LevelGameManager8TransferI18StreamedBinaryReadILb0EEEEvRT_
w7c:_UNITY_tt_face_load_fpgm
Twa:__Z17IsObjectAvailablei
C1a:__ZN12InputManagerD0Ev
fKa:__Z32TransferEnumWithNameForceIntSizeI14SafeBinaryRead17TextureFilterModeEvRT_RT0_PKc17TransferMetaFlags
K5d:__ZL64DSASignatureFormatter_t2007981259_CustomAttributesCacheGeneratorP21CustomAttributesCache
Jnh:_ExecutionContext_Capture_m681135907
Qyh:_Dictionary_2_System_Collections_IDictionary_Add_m4011968134_gshared
MBb:__Z18Transfer_BlittableI18StreamedBinaryReadILb0EELb1EtEvRK29SerializationCommandArgumentsR31RuntimeSerializationCommandInfo
wRf:_InternalEnumerator_1_System_Collections_IEnumerator_get_Current_m2889979481_AdjustorThunk
opk:_posix_memalign
X3e:_Rect_get_position_m2115952571
W_h:_ReadOnlyCollection_1_get_Item_m4005849861_gshared
Ymf:_Slider_get_direction_m3871593184
ZPh:_ASN1_GetBytes_m3305539297
$Vi:_List_1_Remove_m2092116835_gshared
Wne:__ZL86Logger_t274032455_CustomAttributesCacheGenerator_Logger_LogFormat_m3030796110____args2P21CustomAttributesCache
J9d:__ZL77Convert_t2465617642_CustomAttributesCacheGenerator_Convert_ToSByte_m717245755P21CustomAttributesCache
h$f:_DefaultComparer__ctor_m2039558311_gshared
K7:__ZNK15MonoScriptCache7ReleaseEv
DBj:__ZN6il2cpp2vm5Class13HasReferencesEP11Il2CppClass
gug:_CLSCompliantAttribute__ctor_m581760440
ag:_glBindTexture
Enk:_snprintf
DIg:_InvalidCastException__ctor_m2551002860
Aui:__Z50RuntimeInvoker_RuntimeObject_Resources_t1597885468PFvvEPK10MethodInfoPvPS4_
zxk:_emscripten_glVertexAttrib1fv__wrapper
sAi:__Z76RuntimeInvoker_Void_t1185182177_Int32_t2950945753_KeyValuePair_2_t2401056908PFvvEPK10MethodInfoPvPS4_
Gwc:__ZN16LevelGameManagerC2E10MemLabelId18ObjectCreationMode
hnj:_AudioExtensionManager_RemoveExtensionFromManager_m442924172
T$e:_MonoBehaviour_Internal_IsInvokingAll_m2820042090
Yvk:_emscripten_glGetProgramInfoLog__wrapper
Vt:__ZN25AnimatedPropertyEvaluator29BindCurveToScriptingObjectPtrERKN13AnimationClip10FloatCurveEj18ScriptingObjectPtrb
eZa:__ZN13ScreenManager20SetScreenOrientationE17ScreenOrientation
WYi:_Collection_1_SetItem_m1090516645_gshared
yze:__ZL52InputMode_t3382566315_CustomAttributesCacheGeneratorP21CustomAttributesCache
vRg:_String_Equals_m1744302937
pWe:_Display__ctor_m501911701
jZh:_ReadOnlyCollection_1_System_Collections_Generic_IListU3CTU3E_Insert_m1020890112_gshared
_xg:_Hashtable__cctor_m4112166779
yCd:_Dropdown_get_onValueChanged_m2462066659
MBd:_DefaultControls_SetDefaultTextValues_m1943359795
X$b:__Z19SetupMotionMatricesR6CameraR18RPDataMotionVector
Kyj:__ZL7log2_64y
OF:__ZN26AnimatorControllerPlayable18PrepareForPlaybackERN7mecanim6memory9AllocatorE
aG:__ZN8Animator11AnimatorJob11AddPlayableEP17AnimationPlayablef
LFd:_GridLayoutGroup_get_cellSize_m2967185053
R2g:_CurrentSystemTimeZone_GetUtcOffset_m340358963
j5i:_PKCS12_Decrypt_m1280162536
FRf:_InternalEnumerator_1_get_Current_m3081223448_gshared
xfj:_Event_get_isMouse_m1058251071
eEa:__ZN10VertexDataC2ERKS_17ShaderChannelMask10MemLabelId
Xwg:_CaseInsensitiveHashCodeProvider_AreEqual_m1790260777
vZi:_Collection_1_IndexOf_m3762683187_gshared
k2c:_otv_JSTF_validate
OBa:__ZN22CreateGpuProgramOutputC2Ev
Xpf:_BigInteger_op_LessThanOrEqual_m3925173639
yXe:_PersistentCallGroup_Initialize_m4253175514
mrg:_Boolean_System_IConvertible_ToChar_m4279513009_AdjustorThunk
Txg:_Hashtable__ctor_m1763145853
PUd:_LogicalCallContext__ctor_m1263247987
xFf:_NumberFormatter_ScaleOrder_m3813786990
Fui:__Z43RuntimeInvoker_VerticalWrapMode_t2936607737PFvvEPK10MethodInfoPvPS4_
EOf:__ZN25GenericVirtActionInvoker2IP12Il2CppObjectS1_E6InvokeEPK10MethodInfoS1_S1_S1_
ODh:_EqualityComparer_1_System_Collections_IEqualityComparer_GetHashCode_m2027961449_gshared
_jg:_Interval_get_Size_m4163671410_AdjustorThunk
Bxe:__ZL53EventHandle_t600343995_CustomAttributesCacheGeneratorP21CustomAttributesCache
Ttc:__ZN8GUILayer12CleanupClassEv
bwg:_SynchronizedArrayListWrapper_get_SyncRoot_m3862302789
$Ni:_List_1_System_Collections_IEnumerable_GetEnumerator_m839737540_gshared
Hth:_UInt32_System_IConvertible_ToSByte_m1061556466
YKe:_WellKnownClientTypeEntry__ctor_m2471908952
CBj:__ZN6il2cpp2vm5Class4InitEP11Il2CppClass
ga:invoke_vidi
NGf:_NumberFormatter_FormatRoundtrip_m19342689
CKe:_RemotingServices_CreateClientProxyForContextBound_m783705199
Gvi:__Z30RuntimeInvoker_Axis_t809944411PFvvEPK10MethodInfoPvPS4_
mBc:__ZNK15GUIEventManager15GetEventAtIndexEi
c2i:_InternalAsyncResult_get_ProceedAfterHandshake_m2508379800
tgd:__ZN2UI14CanvasRenderer17SyncDirtyElementsER8JobFence
IBb:__Z18Transfer_BlittableI18StreamedBinaryReadILb0EELb0ExEvRK29SerializationCommandArgumentsR31RuntimeSerializationCommandInfo
J1g:_Convert_ToUInt16_m2952781888
I1f:_Enumerator_System_Collections_IEnumerator_get_Current_m3816090481_gshared
kck:__ZN6il2cpp5utils11StringUtils15StringDuplicateEPKc
zBh:_DefaultComparer_Equals_m2480133610_gshared
eBa:__ZNK9ShaderLab21ShaderRasterStateDesc16ToGfxRasterStateEPK19ShaderPropertySheetS3_R14GfxRasterState
yIi:_Array_Sort_TisVector3_t3722313464_m1915176437_gshared
Klk:__ZN6il2cpp2os9EventImplC2Ebb
rMi:_List_1_System_Collections_IList_get_IsFixedSize_m3566150119_gshared
cI:__ZN4PPtrI13MonoBehaviourE8TransferI19StreamedBinaryWriteILb0EEEEvRT_
ERi:_List_1_get_Item_m2113769949_gshared
fbg:_NameValueCollection__ctor_m4090053322
A6e:_ScriptableObject_t2528358522_marshal_pinvoke
Z3:__Z20IsMatrixBuiltinParamPKcPi
FSj:__ZN6il2cpp2gc19AppendOnlyGCHashMapINSt3__24pairIPK10MethodInfoP11Il2CppClassEEP11Il2CppArray17ReflectionMapHashIS9_ENS2_8equal_toIS9_EEEC2Ev
dRg:_String_memcpy4_m979367827
SSg:_SecurityFrame_t1422462475_marshal_pinvoke
$Pj:__ZN15dense_hashtableINSt3__24pairIK10KeyWrapperINS1_IPK10MethodInfoP11Il2CppClassEEEjEES9_17ReflectionMapHashIS8_EN14dense_hash_mapIS9_jSD_NS9_14EqualsComparerINS0_8equal_toIS8_EEEENS0_9allocatorISB_EEE9SelectKeyESI_SK_E16reset_thresholdsEv
Nlh:_UnicodeEncoding_GetBytesInternal_m1902824297
Jwc:__ZN8Renderer19PostInitializeClassEv
ueh:_Array_FindIndex_TisRuntimeObject_m2504082708_gshared
pgd:__ZNSt3__26__treeINS_12__value_typeINS_4pairIKiS3_EEN2UI14DepthSortLayerEEENS_19__map_value_compareIS4_S7_NS_4lessIS4_EELb1EEE13stl_allocatorIS7_L18MemLabelIdentifier1ELi16EEE25__emplace_unique_key_argsIS4_JRKNS_21piecewise_construct_tENS_5tupleIJOS4_EEENSK_IJEEEEEENS2_INS_15__tree_iteratorIS7_PNS_11__tree_nodeIS7_PvEEiEEbEERKT_DpOT0_
a7i:_X509Chain_FindCertificateRoot_m1937726457
FMg:_StreamAsyncResult_get_AsyncWaitHandle_m3390046559
gkd:__ZN11UnityEngine15PlatformWrapper21GetVRPlayAreaGeometryER13dynamic_arrayI8Vector3fLj0EE
Yhk:__ZN6il2cpp6icalls8mscorlib6System8Delegate23CreateDelegate_internalEP20Il2CppReflectionTypeP12Il2CppObjectP22Il2CppReflectionMethodb
J2f:_Enumerator_System_Collections_IEnumerator_get_Current_m921113401_AdjustorThunk
Lxg:_DictionaryEntry_get_Value_m618120527_AdjustorThunk
fFb:__ZN18DelayedCallManager18CancelCallDelayed2E4PPtrI6ObjectEPF15CallObjectStatePS1_PvES7_
Wua:__ZN25ThreadsafeLinearAllocator10ReallocateEPvji
Eob:__Z18Transfer_BlittableI14SafeBinaryReadLb1E11QuaternionfEvRK29SerializationCommandArgumentsR31RuntimeSerializationCommandInfo
$ga:__ZN18SpriteAtlasManagerD0Ev
vx:__ZN7mecanim9animation10SampleClipERKNS0_12ConstantClipEjPf
Dlj:_ToggleGroup_set_allowSwitchOff_m4192200290
Rxi:__Z57RuntimeInvoker_Boolean_t97287965_KeyValuePair_2_t71524366PFvvEPK10MethodInfoPvPS4_
mXa:__ZN10Matrix4x4f8TransferI14SafeBinaryReadEEvRT_
fRj:__ZNK10KeyWrapperINSt3__24pairIPK12PropertyInfoP11Il2CppClassEEE14EqualsComparerINS0_8equal_toIS7_EEEclERKS8_SE_
DPe:_CryptographicUnexpectedOperationException__ctor_m2381988196
iTj:__ZN14dense_hash_mapI10KeyWrapperIPK22Il2CppGenericParameterEPK24MonoGenericParameterInfoN6il2cpp5utils11PointerHashIS2_EENS4_14EqualsComparerINSt3__28equal_toIS3_EEEENSD_9allocatorINSD_4pairIKS4_S7_EEEEE15set_deleted_keyERSJ_
LF:__ZN14AvatarPlayback8StopTimeEv
iUf:_InternalEnumerator_1_System_Collections_IEnumerator_get_Current_m4213507601_gshared
oba:__Z6AppendRKN4core12basic_stringIcNS_20StringStorageDefaultIcEEEEPKc
eDi:__Z74RuntimeInvoker_DictionaryEntry_t3123975638_RuntimeObject_SByte_t1669577662PFvvEPK10MethodInfoPvPS4_
C8a:__ZL14OnWorldStoppedv
cdh:_Array_InternalArray__IEnumerable_GetEnumerator_TisCustomAttributeNamedArgument_t287865710_m523021714_gshared
K5j:__ZN6il2cpp2vm6Object12NullableInitEPhP12Il2CppObjectP11Il2CppClass
_Wh:__ZN21InterfaceFuncInvoker1I19Vector4_t3319028937iE6InvokeEjP11Il2CppClassP12Il2CppObjecti
_ma:__ZN9Scripting11UnityEngine16TrackedReference12CleanupProxyEv
r_c:__ZN20TextRenderingPrivate19NativeTextGeneratorC2ERK11UTF16StringPNS_8FontImplE11ColorRGBA32ifRK8Vector2fbifiibffbbP13dynamic_arrayIN2UI8UIVertexELj0EE
gXg:_HashKeys_get_SyncRoot_m3757723936
Mhj:_GUIUtility_RemoveCapture_m1294193818
fOb:__ZN7ApiGLES18ClearBufferSubDataEjN2gl12BufferTargetEll
Goc:__Z37Camera_Get_Custom_PropAllCamerasCountv
ZPa:__ZN14Texture2DArray8TransferI18StreamedBinaryReadILb0EEEEvRT_
VUi:_List_1_CopyTo_m2746988508_gshared
WJc:__Z38Register_UnityEngine_GUIStyle_get_namev
_8c:_Split_Cubic
$a:invoke_fiiii
Ydf:_InputField_OnSubmit_m3583210804
Lue:__ZL72GUISkin_t1244372282_CustomAttributesCacheGenerator_m_horizontalScrollbarP21CustomAttributesCache
lej:_Uri_CheckHostName_m2213216182
wxk:_emscripten_glBindRenderbuffer__wrapper
eKi:_Mesh_SetUvsImpl_TisVector2_t2156229523_m3009194955_gshared
Dvh:_ValueType_InternalEquals_m1384040357
AIi:_Array_Sort_TisVector4_t3319028937_TisVector4_t3319028937_m4254533673_gshared
FYf:_InternalEnumerator_1_System_Collections_IEnumerator_Reset_m729791527_AdjustorThunk
gvg:_ArrayListWrapper_Contains_m2641184447
L8c:_ft_black_render
Iki:__Z177RuntimeInvoker_Int32_t2950945753_RuntimeObject_Int32_t2950945753_Int32_t2950945753_RuntimeObject_Int32_t2950945753_EncoderFallbackBufferU26_t2343550713_CharU5BU5DU26_t3299466565PFvvEPK10MethodInfoPvPS4_
vtk:dynCall_viiifi
UQb:__ZN18GfxFramebufferGLES20ActiveContextChangedEPP17RenderSurfaceBaseS2_
Xne:__ZL86Logger_t274032455_CustomAttributesCacheGenerator_Logger_LogFormat_m3300686007____args3P21CustomAttributesCache
mlb:__Z19PluginsRenderMarkeri
G_f:_InternalEnumerator_1__ctor_m2307827786_AdjustorThunk
OI:__ZN10HumanTrait18InitializeBoneNameEv
vfc:__ZNSt3__26vectorIN9ShaderLab20SerializedSubProgram15StructParameterENS_9allocatorIS3_EEE6assignINS_11__wrap_iterIPS3_EEEENS_9enable_ifIXaasr21__is_forward_iteratorIT_EE5valuesr16is_constructibleIS3_NS_15iterator_traitsISC_E9referenceEEE5valueEvE4typeESC_SC_
xOa:__ZN14Texture2DArray21AwakeFromLoadThreadedEv
ICb:__Z29Transfer_Blittable_ArrayFieldI18StreamedBinaryReadILb0EEyEvRT_R9ArrayInfoRK23StaticTransferFieldInfo
W7e:_Touch_get_position_m3109777936_AdjustorThunk
h4j:__ZNSt3__214__split_bufferIN6il2cpp2vm5Image20EmbeddedResourceDataERNS_9allocatorIS4_EEEC2EjjS7_
wse:__ZL66SkeletonBone_t4134054672_CustomAttributesCacheGenerator_parentNameP21CustomAttributesCache
bzd:_CanvasScaler_set_screenMatchMode_m2975492035
nid:__Z69Register_UnityEngine_Analytics_UnityAnalyticsHandler_Internal_Destroyv
kgg:_X509Certificate2Collection_Add_m3151757943
wYd:__ZL83RuntimeArray_CustomAttributesCacheGenerator_RuntimeArray____LongLength_PropertyInfoP21CustomAttributesCache
Gve:__ZL100GUIUtility_t1868551600_CustomAttributesCacheGenerator_GUIUtility_Internal_GetDefaultSkin_m2977444868P21CustomAttributesCache
YWc:__ZN9Scripting11UnityEngine13CharacterInfo9InitProxyEv
$wg:_CaseInsensitiveHashCodeProvider_get_DefaultInvariant_m4264275163
hbe:__ZL67IndexOutOfRangeException_t1578797820_CustomAttributesCacheGeneratorP21CustomAttributesCache
_ki:__Z195RuntimeInvoker_Int32_t2950945753_RuntimeObject_Int32_t2950945753_Int32_t2950945753_Int32_t2950945753_RuntimeObject_DecoderFallbackBufferU26_t3866396827_ByteU5BU5DU26_t4057885439_SByte_t1669577662PFvvEPK10MethodInfoPvPS4_
Uqj:__ZL25UnresolvedVirtualCall_147P12Il2CppObject16Rect_t2360479859aPK10MethodInfo
mX:__ZN5physx14PxLightCpuTask12addReferenceEv
zDa:__ZNK15InstancingProps35FillInstanceBufferDispatchConstantsIN10Instancing14RenderLoopArgsEEEvPPvjjRK19ShaderPropertySheetRKT_
Byi:__Z86RuntimeInvoker_Int32_t2950945753_Color32_t2600501292_Color32_t2600501292_RuntimeObjectPFvvEPK10MethodInfoPvPS4_
AWa:__ZN21EnlightenSceneMapping8TransferI19StreamedBinaryWriteILb0EEEEvRT_
D6j:__ZN6il2cpp2gc16GarbageCollector19InitializeFinalizerEv
YA:__ZN7mecanim8skeleton18CreateSkeletonMaskEjPKNS0_19SkeletonMaskElementERNS_6memory9AllocatorE
B2h:_ReadOnlyCollection_1_System_Collections_Generic_ICollectionU3CTU3E_get_IsReadOnly_m2508509261_gshared
GKc:__ZN10GUIManager10DoGUIEventER10InputEventb
xub:__Z35Transfer_Blittable_FixedBufferFieldI24GenerateTypeTreeTransferxEvRK29SerializationCommandArgumentsR31RuntimeSerializationCommandInfo
_2c:_otv_LangSys_validate
$4e:_RectOffset_get_right_m2294081512
$qj:__ZL25UnresolvedVirtualCall_154P12Il2CppObjectfPK10MethodInfo
sJd:__ZN25GenericVirtActionInvoker1IP20Delegate_t1188392813E6InvokeEPK10MethodInfoP12Il2CppObjectS1_
JFi:_Array_InternalArray__set_Item_TisLink_t544317964_m1234244240_gshared
C7c:_UNITY_TT_Init_Glyph_Loading
d5d:__ZL61SerializationBinder_t274213469_CustomAttributesCacheGeneratorP21CustomAttributesCache
FCd:_OptionData_get_text_m2997376818
y3f:_Enumerator__ctor_m324536319_gshared
xNe:_SerializationInfo_GetBoolean_m1756153320
dQ:__Z32AudioMixerDuckingProcessCallbackP21UnityAudioEffectStatePfS1_jii
pkf:_U3CClickRepeatU3Ec__Iterator0_System_Collections_IEnumerator_get_Current_m543328413
u$e:_Mesh_get_uv2_m3615020997
$Yh:_ReadOnlyCollection_1_Contains_m2979956790_gshared
Hvc:__ZN26CustomRenderTextureManagerD2Ev
mrc:__Z32Input_Get_Custom_PropInputStringv
uCh:_EqualityComparer_1_System_Collections_IEqualityComparer_Equals_m4172006498_gshared
eM:__ZN12AudioManager8TransferI24GenerateTypeTreeTransferEEvRT_
OGi:_Array_qsort_TisOrderBlock_t1585977831_m3322202512_gshared
A_e:_Mathf_Round_m4098141538
sIa:__Z25GetBytesFromTextureFormat13TextureFormat
BZa:__ZN9Texture3D19UnloadFromGfxDeviceEb
i$j:__ZN6il2cpp6icalls8mscorlib6System9Threading6Thread20Thread_free_internalEP12Il2CppThreadi
SIb:__ZNK11PreloadData18GetInstanceIDArrayER13dynamic_arrayIiLj0EE
Gsb:__Z18Transfer_BlittableI17RemapPPtrTransferLb0EsEvRK29SerializationCommandArgumentsR31RuntimeSerializationCommandInfo
$we:__ZL64UnityAnalyticsHandler_t3011359618_CustomAttributesCacheGeneratorP21CustomAttributesCache
Zag:__KeysEnumerator_get_Current_m2996478063
lDf:_AmbiguousMatchException__ctor_m2012725345
H8:__Z32scripting_class_get_assemblyname17ScriptingClassPtr
ckd:__ZN11UnityEngine15PlatformWrapper15GetVRDeviceNameEv
eFe:__ZL109LayoutUtility_t2745813735_CustomAttributesCacheGenerator_LayoutUtility_U3CGetFlexibleWidthU3Em__3_m1091238571P21CustomAttributesCache
mui:__Z99RuntimeInvoker_Boolean_t97287965_Int32_t2950945753_PointerEventDataU26_t867828220_SByte_t1669577662PFvvEPK10MethodInfoPvPS4_
QSf:_InternalEnumerator_1_get_Current_m2128158355_AdjustorThunk
Iib:__ZN9GfxDevice21RegisterNativeTextureE9TextureIDi16TextureDimension
vEd:_GraphicRegistry__ctor_m1851575309
fAi:__Z52RuntimeInvoker_Void_t1185182177_Keyframe_t4206410242PFvvEPK10MethodInfoPvPS4_
fce:__ZL53TypeFilter_t2356120900_CustomAttributesCacheGeneratorP21CustomAttributesCache
_ik:__ZN6il2cpp6icalls8mscorlib6System10Reflection4Emit11TypeBuilder20create_generic_classEP27Il2CppReflectionTypeBuilder
dRb:__ZNK16UniformCacheGLES6SubmitEjRK13dynamic_arrayIN20GpuProgramParameters14ValueParameterELj0EERKS0_IiLj0EE
gch:_PlayableHandle_IsPlayableOfType_TisAnimationLayerMixerPlayable_t3631223897_m201603007_gshared
f8d:__ZL50Monitor_t2197244473_CustomAttributesCacheGeneratorP21CustomAttributesCache
iMj:__ZNSt3__26vectorIPK10MethodInfoNS_9allocatorIS3_EEE26__swap_out_circular_bufferERNS_14__split_bufferIS3_RS5_EE
oqf:_PrimalityTest_EndInvoke_m1035389364
IU:__Z60Register_UnityEngine_AudioListener_GetNumExtensionPropertiesv
Vi:_emscripten_glUniformMatrix4fv
kZj:__ZN15dense_hashtableINSt3__24pairIK10KeyWrapperINS1_IP11Il2CppClassjEEES4_EES6_N6il2cpp8metadata14ArrayClassHashEN14dense_hash_mapIS6_S4_SB_NS6_14EqualsComparerINSA_17ArrayClassCompareEEENS0_9allocatorIS8_EEE9SelectKeyESF_SH_E13set_empty_keyERKS8_
o9a:__ZN12ScriptMapperD2Ev
y8f:_Enumerator_Dispose_m3040896940_AdjustorThunk
HBk:b100
x$e:_Mesh_get_colors32_m1253190811
kfk:_GC_stopped_mark
yrd:__ZL59__ManagedRegistrationHelperFunction_SubsystemDescriptorBasePv
qSe:_AnimationCurve_Finalize_m2397002729
vof:_Text_OnEnable_m616205807
EEi:__Z50RuntimeInvoker_RuntimeObject_ColorTween_t809614380PFvvEPK10MethodInfoPvPS4_
Mdf:_InputField_OnFillVBO_m3649106646
cNe:_SerializationCallbacks__cctor_m1674315180
wgc:__Z32TransferEnumWithNameForceIntSizeI14SafeBinaryRead7FogModeEvRT_RT0_PKc17TransferMetaFlags
gHj:__ZNK15dense_hashtableI10KeyWrapperIPK19Il2CppGenericMethodES4_N6il2cpp8metadata23Il2CppGenericMethodHashEN14dense_hash_setIS4_S7_NS4_14EqualsComparerINS6_26Il2CppGenericMethodCompareEEENSt3__29allocatorIS4_EEE8IdentityESB_SE_E23find_position_with_hashERKS4_j
GAa:__ZNSt3__26vectorIN12FlareManager10FlareEntryENS_9allocatorIS2_EEE21__push_back_slow_pathIS2_EEvOT_
jic:__ZN9ShaderLab20SerializedSubProgram16TextureParameter8TransferI19StreamedBinaryWriteILb0EEEEvRT_
Yta:__ZNK7Hash12812PackToUInt32Ev
hwg:_SynchronizedArrayListWrapper_IndexOf_m3642674350
S6d:__ZL58WindowsIdentity_t2948242406_CustomAttributesCacheGeneratorP21CustomAttributesCache
R$:__ZN11UnityEngine15CloudWebService16SessionContainer8AddEventEPNS0_14CloudEventInfoE
Nmb:__Z4TrimRKN4core12basic_stringIcNS_20StringStorageDefaultIcEEEES5_
b0h:_ReadOnlyCollection_1_CopyTo_m209634623_gshared
uJi:_Dictionary_2_Do_ICollectionCopyTo_TisKeyValuePair_2_t3842366416_m1399105608_gshared
Nxe:__ZL77ExecuteEvents_t3484638744_CustomAttributesCacheGenerator_U3CU3Ef__mgU24cache2P21CustomAttributesCache
wfg:_X509Certificate2_Import_m4026562329
M3f:_Enumerator_System_Collections_IEnumerator_get_Current_m2763095718_AdjustorThunk
Fyk:_glGetStringi__wrapper
iXa:__ZN10VertexData8TransferI14SafeBinaryReadEEvRT_
wga:__ZN13RuntimeStaticI12AdsIdHandlerLb0EE16StaticInitializeEPv
_gk:_GC_malloc_atomic
oQd:_ActivatedClientTypeEntry_ToString_m2494181680
tGh:_HashSet_1_GetEnumerator_m3346268098_gshared
Njk:__ZN6il2cpp5utils6Memory13AlignedMallocEjj
$2e:_PropertyName_GetHashCode_m3570549176_AdjustorThunk
Yke:__ZL55PropertyName_t3749835189_CustomAttributesCacheGeneratorP21CustomAttributesCache
cef:_Selectable_get_animator_m2899312855
K6:__ZL20SortItemByInstanceIDRKN18AwakeFromLoadQueue4ItemES2_
N9e:_Vector2_op_Multiply_m2347887432
LDd:_FontData_get_maxSize_m195374730
pbg:_TypeConverterAttribute__ctor_m1774069684
hB:__ZNK34AnimationStateMachineMixerPlayable26GetInterruptedPosePlayableEv
Wmd:__ZN20UnityConnectSettings8TransferI24GenerateTypeTreeTransferEEvRT_
QD:__ZN34BlobWriteTransferSTLStyleArrayImplI22OffsetPtrArrayTransferIbEEclERS1_17TransferMetaFlagsR9BlobWrite
bvc:__ZZN12MeshRenderer15InitializeClassEvEN29FunctorImpl_205kDidDeleteMesh4CallEPviR11MessageData
mmg:_Byte_ToString_m4063101981
aEf:_MonoType_GetConstructors_m2574682189
tbk:__ZNK15dense_hashtableINSt3__24pairIK10KeyWrapperIPK19Il2CppGenericMethodEP10MethodInfoEES6_N6il2cpp8metadata23Il2CppGenericMethodHashEN14dense_hash_mapIS6_S9_SD_NS6_14EqualsComparerINSC_26Il2CppGenericMethodCompareEEENS0_9allocatorISA_EEE9SelectKeyESH_SJ_E10test_emptyERK30dense_hashtable_const_iteratorISA_S6_SD_SL_SH_SJ_E
w3d:__ZL59SinkProviderData_t4151372974_CustomAttributesCacheGeneratorP21CustomAttributesCache
fcg:_ServicePointManager_FindServicePoint_m4119451290
p$f:__ZN21InterfaceFuncInvoker1Ii22OrderBlock_t1585977831E6InvokeEjP11Il2CppClassP12Il2CppObjectS0_
iOj:__ZN15dense_hashtableINSt3__24pairIK10KeyWrapperINS1_IPK14Il2CppAssemblyP11Il2CppClassEEEjEES9_17ReflectionMapHashIS8_EN14dense_hash_mapIS9_jSD_NS9_14EqualsComparerINS0_8equal_toIS8_EEEENS0_9allocatorISB_EEE9SelectKeyESI_SK_E12expand_arrayEjN21dense_hash_map_traits17integral_constantIbLb0EEE
Hda:__ZL31InitializeRendererUpdateManagerPv
cNd:_ParameterInfo__ctor_m2779026345
Xbf:_InputField_set_onValueChange_m1251390545
Gma:__ZN9Scripting11UnityEngine18WaitForFixedUpdate12CleanupProxyEv
n5h:_Func_1_EndInvoke_m3591709415_gshared
VDd:_FontData_get_verticalOverflow_m4132840071
Vcd:__ZN2UI13CanvasManager14GetRenderOrderEPKNS_6CanvasE
UFf:_NumberFormatter_get_IsZeroInteger_m2263284741
hV:__ZN13AudioListener12CleanupClassEv
fda:__Z13GetIEnlightenv
oCg:_DateTimeFormatInfo_get_LongTimePattern_m1595254249
z3i:_X509Certificate_PEM_m2020851166
vPh:_BigInteger_op_GreaterThanOrEqual_m700865613
HEi:_Array_InternalArray__Insert_TisDateTime_t3738529785_m2308632330_gshared
A1a:__ZN11TimeManager8TransferI19StreamedBinaryWriteILb0EEEEvRT_
Zxf:_TlsServerCertificateRequest_ProcessAsTls1_m3214041063
u3c:_compare_uni_maps
Hri:__Z72RuntimeInvoker_Boolean_t97287965_Vector2_t2156229523_Vector2_t2156229523PFvvEPK10MethodInfoPvPS4_
Ukd:__ZN11UnityEngine15PlatformWrapper27GetGraphicsCapsSupportFlagsEv
Acd:__ZNSt3__218__insertion_sort_3IRPFbPN2UI6CanvasES3_EPS3_EEvT0_S8_T_
vJi:_Dictionary_2_Do_ICollectionCopyTo_TisRuntimeObject_m3695543300_gshared
dyb:__ZN12NativeBufferI16Converter_StringE15SetupForWritingER9ArrayInfo
BPh:_SequentialSearchPrimeGeneratorBase_GenerateSearchBase_m3595783982
$J:__ZN13RuntimeStaticI18AssetBundleManagerLb1EE16StaticInitializeEPv
Zuk:___cxa_end_catch__wrapper
Pqd:__GLOBAL__sub_I_artifacts_WebGL_codegenerator_0_cpp_7406
Jpi:__Z121RuntimeInvoker_Int32_t2950945753_RuntimeObject_Int32U26_t1369213839_Int32_t2950945753_Int32_t2950945753_Int32_t2950945753PFvvEPK10MethodInfoPvPS4_
Ytg:_Char_ToString_m278452217
Wtf:_CipherSuite_get_DecryptionCipher_m2839827488
wYh:_ReadOnlyCollection_1_System_Collections_IList_set_Item_m4047645019_gshared
Q0b:__ZNK4PPtrI5LightEcvPS0_Ev
Brd:__ZL50__ManagedRegistrationHelperFunction_ReferencePointPv
Spf:_BigInteger_op_RightShift_m460065452
Vue:__ZL61GUISkin_t1244372282_CustomAttributesCacheGenerator_m_SettingsP21CustomAttributesCache
T$j:__ZN6il2cpp6icalls8mscorlib6System5Array13ClearInternalEP11Il2CppArrayii
rif:_RectMask2D_get_rootCanvasRect_m2913509457
z9c:__Z38TextGenerator_Get_Custom_PropLineCountP12Il2CppObject
K2i:_InternalAsyncResult_SetComplete_m963842420
gkh:_Encoding_GetEncoding_m2801244948
eLc:__ZN11IMGUIModule25GetGUIStyleScriptingClassEv
U5c:_tt_get_interface
O2i:_SslStreamBase_EndRead_m495357226
V_j:__ZN6il2cpp5utils9PathUtils7CombineIcEENSt3__212basic_stringIT_NS3_11char_traitsIS5_EENS3_9allocatorIS5_EEEERKSA_SC_
V4f:_KeyCollection_GetEnumerator_m982770428_gshared
oTh:_Collection_1_System_Collections_IList_get_IsFixedSize_m214626114_gshared
sni:__Z64RuntimeInvoker_RuntimeObject_SByte_t1669577662_SByte_t1669577662PFvvEPK10MethodInfoPvPS4_
Qzc:__ZN13PlayableGraph21InvalidateMultithreadEv
mhj:_GUIScrollGroup_CalcHeight_m3173593443
M7d:__ZL86UTF7Encoding_t2644108479_CustomAttributesCacheGenerator_UTF7Encoding_Equals_m227704363P21CustomAttributesCache
H6d:__ZL59ApplicationTrust_t3270368423_CustomAttributesCacheGeneratorP21CustomAttributesCache
rLf:_EnumBuilder_GetConstructorImpl_m3068576149
K5:__Z18ConvertUTF16toUTF8PPKtS0_PPhS2_15ConversionFlags
Uak:__ZN6il2cpp2os20PathErrnoToErrorCodeERKNSt3__212basic_stringIcNS1_11char_traitsIcEENS1_9allocatorIcEEEEi
zBe:__ZL68InputField_t3762917431_CustomAttributesCacheGenerator_m_KeyboardTypeP21CustomAttributesCache
DPg:_SymmetricAlgorithm_System_IDisposable_Dispose_m3402297829
bCc:__Z24GetActualTargetFrameRatev
xyj:__ZL16my_g_bit_nth_msfj
wPg:_SHA512Managed_Sigma1_m922902398
Nee:__ZL129GenerateManagedProxyAttribute_t2394178854_CustomAttributesCacheGenerator_GenerateManagedProxyAttribute_set_NativeType_m3203265247P21CustomAttributesCache
zZj:__ZN15dense_hashtableINSt3__24pairIK10KeyWrapperIP11Il2CppClassES4_EES5_N6il2cpp8metadata16SZArrayClassHashEN14dense_hash_mapIS5_S4_SA_NS5_14EqualsComparerINS9_19SZArrayClassCompareEEENS0_9allocatorIS7_EEE9SelectKeyESE_SG_E12expand_arrayEjN21dense_hash_map_traits17integral_constantIbLb0EEE
xUe:__ZN30GenericInterfaceActionInvoker1IP18Camera_t4157153871E6InvokeEPK10MethodInfoP12Il2CppObjectS1_
EAh:_DefaultComparer_GetHashCode_m3369508712_gshared
qXi:_Enumerator_MoveNext_m3662315381_AdjustorThunk
Hxf:_TlsClientFinished_ProcessAsTls1_m2429863130
lQd:_ActivatedClientTypeEntry_get_ApplicationUrl_m2894992111
_Yb:__Z23SetupStereoFlareElementP11FlareVertexRK8Vector2fS3_S3_RK11ColorRGBA32RK10Matrix4x4fRK8Vector3fb
Goj:__ZL24UnresolvedVirtualCall_25P12Il2CppObjectS0_S0_PK10MethodInfo
QBj:__ZN6il2cpp2vm5Class15GetInstanceSizeEPK11Il2CppClass
Cvh:_ValueType__ctor_m2036258423
sa:invoke_iiiifiiii
T1f:_Enumerator_System_Collections_IDictionaryEnumerator_get_Key_m2502357460_AdjustorThunk
IDb:__ZNSt3__224__buffered_inplace_mergeIRN10vector_mapI17ScriptingClassPtrPKN5Unity4TypeENS_4lessIS2_EENS_9allocatorINS_4pairIS2_S6_EEEEE13value_compareENS_11__wrap_iterIPSB_EEEEvT0_SJ_SJ_T_NS_15iterator_traitsISJ_E15difference_typeESN_PNSM_10value_typeE
CTh:__ZN23InterfaceActionInvoker2Ii20UICharInfo_t75501106E6InvokeEjP11Il2CppClassP12Il2CppObjectiS0_
bqe:__ZL82Input_t1431474628_CustomAttributesCacheGenerator_Input_get_inputString_m1307069105P21CustomAttributesCache
J9e:_Vector2_Equals_m832062989_AdjustorThunk
r5f:_ShimEnumerator_MoveNext_m2406150314_gshared
xRb:__ZL19BlitFramebufferImplRN4gles23BlitFramebufferDrawQuadER9GfxDevice9TextureIDRK8Vector4f
isb:__Z18Transfer_BlittableI17RemapPPtrTransferLb0EhEvRK29SerializationCommandArgumentsR31RuntimeSerializationCommandInfo
cPj:__ZN15dense_hashtableINSt3__24pairIK10KeyWrapperIPK10Il2CppTypeEjEES6_N6il2cpp8metadata14Il2CppTypeHashEN14dense_hash_mapIS6_jSB_NS6_14EqualsComparerINSA_26Il2CppTypeEqualityComparerEEENS0_9allocatorIS8_EEE9SelectKeyESF_SH_E4findERS7_
hsk:dynCall_viiiiiiiiiiiiii
vZc:_UNITY_FT_List_Add
fwc:__ZN14Texture2DArray11InitTextureEiii13TextureFormatb
v4i:_X509Extension__ctor_m1474351312
z7d:__ZL104Encoding_t1523322056_CustomAttributesCacheGenerator_Encoding_t1523322056____DecoderFallback_PropertyInfoP21CustomAttributesCache
D8h:_InvokableCall_1_Invoke_m1524307439_gshared
rQa:__ZN12CubemapArray21AwakeFromLoadThreadedEv
kJg:_Directory_CreateDirectoriesInternal_m3735342319
KLh:_List_1_RemoveAll_m517055598_gshared
eFc:__Z41Camera_CUSTOM_WorldToScreenPoint_InjectedP12Il2CppObjectRK8Vector3fRS1_
mgf:_LayoutUtility_GetLayoutProperty_m3731360667
ZTj:__ZN15dense_hashtableINSt3__24pairIK10KeyWrapperINS1_IPK11Il2CppImageP11Il2CppClassEEEjEES9_17ReflectionMapHashIS8_EN14dense_hash_mapIS9_jSD_NS9_14EqualsComparerINS0_8equal_toIS8_EEEENS0_9allocatorISB_EEE9SelectKeyESI_SK_E14squash_deletedEv
BPg:_SHAConstants__cctor_m1699027474
iLd:_MonoEventInfo_t346866618_marshal_pinvoke_back
t1b:__ZNK6Camera26GetStereoSingleCullEnabledEv
QLh:_List_1_TrimExcess_m4121641494_gshared
y9d:__ZL78Convert_t2465617642_CustomAttributesCacheGenerator_Convert_ToInt16_m1733792763P21CustomAttributesCache
r4a:__Z14resize_trimmedINSt3__26vectorIN4core12basic_stringIcNS2_20StringStorageDefaultIcEEEE13stl_allocatorIS6_L18MemLabelIdentifier13ELi16EEEEEvRT_j
k0:__GLOBAL__sub_I_Runtime_2D_SpriteAtlas_0_cpp
mpb:__Z18Transfer_BlittableI14SafeBinaryReadLb0EaEvRK29SerializationCommandArgumentsR31RuntimeSerializationCommandInfo
aug:_CharEnumerator_System_Collections_IEnumerator_get_Current_m1328529384
ZUa:__ZN4core8hash_setINS_4pairIKiiLb0EEENS_9hash_pairINS_4hashIiEES2_iEENS_10equal_pairINSt3__28equal_toIiEES2_iEEE6insertERKS3_
Qwj:_AnimationLayerMixerPlayable__ctor_m860721801
Zci:__Z98RuntimeInvoker_Boolean_t97287965_RuntimeObject_Int32_t2950945753_RuntimeObject_Int64U26_t200113976PFvvEPK10MethodInfoPvPS4_
M7c:_UNITY_FT_List_Iterate
PFa:__ZN17GlobalGameManager8TransferI24GenerateTypeTreeTransferEEvRT_
vtg:_Char_System_IConvertible_ToUInt64_m3536560782
QBh:_EqualityComparer_1__cctor_m3452395357_gshared
Ehg:_X509ChainStatus_get_Status_m2572005749_AdjustorThunk
yXb:__Z20SyncFenceCullResultsR11CullResults
dTb:__ZN15TextureTFMethod20IsBoneCountSupportedEi
y8g:_Double_ToString_m3828879243_AdjustorThunk
Itb:__Z22TransferField_NonArrayI17RemapPPtrTransfer27Converter_SimpleNativeClassI8GUIStyleEEvRK23StaticTransferFieldInfoR31RuntimeSerializationCommandInfoRT0_
sBf:_TextReader_Synchronized_m3004980758
Xpd:__ZNK20UnityWebRequestProtoI24UnityWebRequestTransport16AtomicRefCounter14RedirectHelper14ResponseHelper15DownloadHandler13UploadHandler18CertificateHandler12HeaderHelper14AsyncOperationE16GetUploadedBytesEv
Pqc:__ZNK17AnimationCurveTplIfE20EvaluateWithoutCacheEfRf
uri:__Z67RuntimeInvoker_Boolean_t97287965_Rect_t2360479859_SByte_t1669577662PFvvEPK10MethodInfoPvPS4_
XBa:__ZN19ShaderPropertySheet10SetTextureERK23FastTexturePropertyNameP7Texture
dJf:_CustomAttributeData__ctor_m2966233049
Dzd:_CanvasUpdateRegistry_PerformUpdate_m1793997159
Zwf:_Context_set_ClientWriteIV_m3405909624
OAc:__ZN4Mesh10SetNormalsEPK8Vector3fj
Lij:_AesManaged_CreateDecryptor_m692040246
bck:__ZNSt3__212basic_stringIDsNS_11char_traitsIDsEENS_9allocatorIDsEEE9__grow_byEjjjjjj
vuj:_TextGenerationSettings_t1351628751_marshal_pinvoke_back
GH:__ZN17AnimationCurveTplIfE8TransferI14SafeBinaryReadEEvRT_
PFi:_Array_InternalArray__set_Item_TisInt16_t2552820387_m2544074754_gshared
yog:_ArithmeticException__ctor_m3551809662
d_d:__ZL51BitArray_t4087883509_CustomAttributesCacheGeneratorP21CustomAttributesCache
IWi:__ZN21InterfaceFuncInvoker0I19Vector4_t3319028937E6InvokeEjP11Il2CppClassP12Il2CppObject
IBi:__Z72RuntimeInvoker_CustomAttributeNamedArgument_t287865710_Int32_t2950945753PFvvEPK10MethodInfoPvPS4_
TR:__ZNK11AudioSource9IsPlayingEv
GTa:__ZNSt3__26vectorIN15QualitySettings14QualitySettingENS_9allocatorIS2_EEE6assignIPS2_EENS_9enable_ifIXaasr21__is_forward_iteratorIT_EE5valuesr16is_constructibleIS2_NS_15iterator_traitsIS9_E9referenceEEE5valueEvE4typeES9_S9_
Ita:__ZNK5Unity9Component10GetEnabledEv
Ikf:_ScrollRect_get_scrollSensitivity_m2832710591
sCh:_EqualityComparer_1__cctor_m3995042002_gshared
ZTi:_List_1_CopyTo_m1758106197_gshared
ILh:_List_1_CheckCollection_m1671972112_gshared
OWj:_il2cpp_class_get_image
ivf:_CipherSuiteFactory_GetSsl3SupportedCiphers_m3757358569
Zlh:_UnicodeEncoding_GetPreamble_m3002287178
daa:__Z16AsyncReadRequestP16AsyncReadCommand
UVc:__GLOBAL__sub_I_artifacts_WebGL_codegenerator_0_cpp_5476
cBj:__ZNK15dense_hashtableINSt3__24pairIK10KeyWrapperIPK22Il2CppGenericParameterEP11Il2CppClassEES6_N6il2cpp5utils11PointerHashIS4_EEN14dense_hash_mapIS6_S9_SE_NS6_14EqualsComparerINS0_8equal_toIS5_EEEENS0_9allocatorISA_EEE9SelectKeyESJ_SL_E12test_deletedEj
Pmj:_AudioSource_get_spatialize_m3609701298
HDe:__ZL56Toggle_t2735377061_CustomAttributesCacheGenerator_m_IsOnP21CustomAttributesCache
tmb:__ZN20GpuProgramParameters14AddVectorParamEPKcii15ShaderParamTypeiiiP16PropertyNamesSet
Wod:__ZN9Scripting19UnityEngineInternal15WebRequestUtils12CleanupProxyEv
rpd:__ZNK12HeaderHelper3GetERKN4core12basic_stringIcNS0_20StringStorageDefaultIcEEEE
T1a:__ZN9InputAxis8TransferI14SafeBinaryReadEEvRT_
Z6:__ZNK21ExecutionOrderManager30GetCustomAwakeFromLoadQueueForEPKN5Unity4TypeE
qod:__Z27RegisterModule_UnityConnectv
Rpd:__ZN18CertificateHandler7ReleaseEv
Ysc:__ZZL31RegisterRectTransformPropertiesR22GenericPropertyBindingEN32Wrapper_RectTransformSizeDeltax013GetFloatValueEPv
ILg:_MemoryStream_Expand_m3554752073
uSj:__ZN6il2cpp2vm10Reflection27GetCustomAttributesCacheForEP25Il2CppReflectionParameter
D6e:_ScriptableObject_CreateInstance_m2611081756
gLe:_ObjectRecord_get_IsInstanceReady_m2304516395
QYf:_InternalEnumerator_1_System_Collections_IEnumerator_get_Current_m1635397542_gshared
nMg:_Path__cctor_m3273994011
ljj:_AnalyticsEventTracker__ctor_m3064238498
Aqk:__ZNSt11logic_errorD2Ev
v3g:_DateTimeUtils_CountRepeat_m3396693018
nLj:_WeakReference_get_Target_m168713953
Lwk:_glBindRenderbuffer__wrapper
eP:__ZN10ObjectPoolIN4FMOD12ChannelGroupENS0_13ChannelGroupIEE7SetSizeEi
wij:_SymmetricTransform_FinalDecrypt_m764004682
vak:__ZN6il2cpp2os10ThreadImpl33UnregisterCurrentThreadForCleanupEv
XSc:__ZN9Scripting11UnityEngine26ParticleSystemVertexStream9InitProxyEv
GVi:_List_1_System_Collections_IList_get_Item_m1315368445_gshared
Iye:__ZL114PointerEventData_t3807901092_CustomAttributesCacheGenerator_PointerEventData_get_pointerCurrentRaycast_m2627585223P21CustomAttributesCache
gbj:_Parser_ParseGroupingConstruct_m263270497
Tsd:_UIBehaviour_OnDisable_m1784507360
_ne:__ZL112PlayerConnection_t3081694049_CustomAttributesCacheGenerator_PlayerConnection_MessageCallbackInternal_m1914517467P21CustomAttributesCache
L1:__Z22ValidateTlsfAllocationPvjiS_
gTf:_InternalEnumerator_1_MoveNext_m3525157932_gshared
ood:__ZN11UnityEngine9Analytics22EventLimitReachedEventC2EjyyRKN4core12basic_stringIcNS2_20StringStorageDefaultIcEEEEb
KUe:_Color__ctor_m2943235014_AdjustorThunk
dUj:__ZN14dense_hash_mapI10KeyWrapperINSt3__24pairIPK9EventInfoP11Il2CppClassEEEj17ReflectionMapHashIS8_ENS9_14EqualsComparerINS1_8equal_toIS8_EEEENS1_9allocatorINS2_IKS9_jEEEEE15set_deleted_keyERSH_
_qb:__Z14resize_trimmedINSt3__26vectorI17AnimationCurveTplIfE13stl_allocatorIS3_L18MemLabelIdentifier1ELi16EEEEEvRT_j
ipc:__Z12GUIDToStringRK9UnityGUID
Eaf:_Vector4_op_Division_m264790546
IR:__ZN11SoundHandleC2ERKS_
qv:__ZN17AnimationPlayableC2E18DirectorPlayerType
Zaf:_InputField_set_shouldHideMobileInput_m1650743574
kHj:__ZNK6il2cpp5utils11collections13ArrayValueMapIPK10Il2CppType17Il2CppInteropData26InteropDataToTypeConverterNS_8metadata14Il2CppTypeLessENS8_26Il2CppTypeEqualityComparerEE10find_firstERKS5_
_Wi:_List_1_Reverse_m1445355384_gshared
dKg:_FileStream_get_CanSeek_m331583577
Fbc:__Z29StdTemplateConversionFunctionItxEbPvR14SafeBinaryRead
fKe:_WellKnownServiceTypeEntry_get_ObjectType_m3211195371
vmj:_PCMReaderCallback_EndInvoke_m3916876196
wr:__ZNSt3__26__sortIR23DependencySortPredicatePN4core4pairIiP9BehaviourLb0EEEEEvT0_S9_T_
IEc:__Z47Register_UnityEngine_MonoBehaviour_CancelInvokev
xbe:__ZL65MissingMethodException_t1274661534_CustomAttributesCacheGeneratorP21CustomAttributesCache
GQe:_DSAParameters_t1885824122_marshal_pinvoke_back
RB:__ZN8Animator22OnGraphTopologyChangedEP8Playablei
qPh:_Kernel_MultiplyByDword_m1266935086
Zx:__ZN17AnimationPlayable18DeallocateBindingsEv
Rgi:__Z158RuntimeInvoker_Boolean_t97287965_RuntimeObject_Int32U26_t1369213839_Int32_t2950945753_Int32_t2950945753_RuntimeObject_SByte_t1669577662_ContextU26_t3937453398PFvvEPK10MethodInfoPvPS4_
_Ug:_String_Trim_m3384720403
YGa:__ZN14RenderSettings18TransferDeprecatedI14SafeBinaryReadEEvRT_
fli:__Z93RuntimeInvoker_Single_t1397266774_SingleU26_t1922108698_Single_t1397266774_Single_t1397266774PFvvEPK10MethodInfoPvPS4_
m0j:__ZN6il2cpp2vm9Exception27RaiseNullReferenceExceptionERKNS_5utils10StringViewIDsEEP19Il2CppSequencePoint
mfj:_Event__ctor_m526447123
Lbe:__ZL56RankException_t3812021567_CustomAttributesCacheGeneratorP21CustomAttributesCache
Xxi:__Z72RuntimeInvoker_Boolean_t97287965_CustomAttributeNamedArgument_t287865710PFvvEPK10MethodInfoPvPS4_
poi:__Z88RuntimeInvoker_RuntimeObject_RuntimeObject_RuntimeObject_RuntimeObject_Int32_t2950945753PFvvEPK10MethodInfoPvPS4_
Xrh:_Type_ToString_m3975981286
t2:__ZN12TLSAllocatorI14StackAllocatorE8AllocateEji
coj:_ConsumeSampleFramesNativeFunction_BeginInvoke_m342678987
Y7:__ZN16ScriptingManager18GetMonoScriptCacheEi
gVb:__ZN20ArchiveStorageHeader13GetDataOffsetERKNS_6HeaderE
ubj:_ExpressionAssertion__ctor_m2554412824
Scj:_CapturingGroup_IsComplex_m4061114763
_Gh:_Enumerator_System_Collections_IEnumerator_get_Current_m2237476582_gshared
tpb:__Z18Transfer_BlittableI14SafeBinaryReadLb1EyEvRK29SerializationCommandArgumentsR31RuntimeSerializationCommandInfo
oLj:_WeakReference_Finalize_m2841826116
iFf:_NullReferenceException__ctor_m3076065613
kMc:__ZN8JSONRead8TransferIfEEvRT_PKc17TransferMetaFlagsb
msj:__ZL25UnresolvedVirtualCall_221P12Il2CppObject6Guid_tS1_PK10MethodInfo
xH:__ZN25RuntimeAnimatorController8TransferI17RemapPPtrTransferEEvRT_
Tnh:_SynchronizationLockException__ctor_m3407855920
m4h:_Comparison_1_EndInvoke_m3981968715_gshared
Wic:__ZN9ShaderLab7Program22ComputeSupportsShadowsEv
ieg:_X509SubjectKeyIdentifierExtension_Decode_m1505409124
cjc:__ZL23AddGpuProgramParametersR20GpuProgramParametersRKNSt3__26vectorIN9ShaderLab20SerializedSubProgram15MatrixParameterENS1_9allocatorIS5_EEEERKNS2_INS4_15VectorParameterENS6_ISB_EEEEiiP16PropertyNamesSet
Oha:__ZN6prcoreL17RemapGenericFloatI18TexFormatARGBFloat17TexFormatRGBAHalfEEvPKNS_9InnerInfoE
ijj:_AnalyticsEventParamListContainer__ctor_m1995104893
DUg:_String_System_IConvertible_ToUInt16_m2888090399
IQ:__ZN11AudioSource21ApplyCachedParametersE12SoundChannel
$Hf:_Assembly_InternalGetType_m3065345470
hX:__ZN13Simd4iFactoryIN6detail9FourTupleEEC2Eiiii
VRf:_InternalEnumerator_1__ctor_m3390957028_gshared
IOd:_ResourceSet__ctor_m3356376607
qBd:_FloatTween_set_startValue_m53556027_AdjustorThunk
fvd:_PhysicsRaycaster_get_maxRayIntersections_m3887348715
d3d:__ZL56_ParameterInfo_t489405856_CustomAttributesCacheGeneratorP21CustomAttributesCache
aWa:__ZN15SerializeTraitsI33EnlightenTerrainChunksInformationE8TransferI14SafeBinaryReadEEvRS0_RT_
cxc:__ZNK32RendererMaterialAnimationBinding9BindValueER6ObjectRKN11UnityEngine9Animation14GenericBindingERNS3_10BoundCurveE
jCe:__ZL109MaskableGraphic_t3839221559_CustomAttributesCacheGenerator_MaskableGraphic_ParentMaskStateChanged_m1092090553P21CustomAttributesCache
H7f:_Transform_1_Invoke_m1731820209_gshared
hCj:__ZN6il2cpp2vm5Class11IsInterfaceEPK11Il2CppClass
o7d:__ZL50Decoder_t2204182725_CustomAttributesCacheGeneratorP21CustomAttributesCache
qPa:__ZL18stbir__support_onef
WTg:_Single_CompareTo_m189772128
ZNc:__Z26Transfer_UnityEngineObjectI9JSONWriteLb0EEvRK29SerializationCommandArgumentsR31RuntimeSerializationCommandInfo
d$f:_DefaultComparer_Compare_m4042058291_gshared
sGd:_Image_set_overrideSprite_m3213596394
YMa:__ZNSt3__26vectorIN4core12basic_stringIcNS1_20StringStorageDefaultIcEEEE13stl_allocatorIS5_L18MemLabelIdentifier1ELi16EEE6assignINS_11__wrap_iterIPS5_EEEENS_9enable_ifIXaasr21__is_forward_iteratorIT_EE5valuesr16is_constructibleIS5_NS_15iterator_traitsISF_E9referenceEEE5valueEvE4typeESF_SF_
mgd:__ZNSt3__27__sort5IRNS_6__lessIN2UI14DepthSortEntryES3_EEPS3_EEjT0_S7_S7_S7_S7_T_
PJg:_FileLoadException_ToString_m2989457882
u4i:_AuthorityKeyIdentifierExtension__ctor_m2197389230
fnj:_AudioListener_ClearExtensionProperties_m3849891634
aZc:_UNITY_FT_DivFix
GKi:_Array_InternalArray__get_Item_TisDecimal_t2948259380_m3511003792_gshared
WK:__ZL45__ManagedRegistrationHelperFunction_AudioClipPv
pRg:_SecurityElement_IsValidAttributeValue_m948345692
rwc:__ZN14Texture2DArrayC2E10MemLabelId18ObjectCreationMode
yOf:_Action_3__ctor_m967275408_gshared
Ba:invoke_vdd
vn:FUNCTION_TABLE_fiii
z1d:__ZL102MethodInfo_t_CustomAttributesCacheGenerator_MethodInfo_MakeGenericMethod_m1996785325____typeArguments0P21CustomAttributesCache
Iee:__ZL75g_UnityEngine_SharedInternalsModule_Assembly_CustomAttributesCacheGeneratorP21CustomAttributesCache
pzc:__Z19RegisterModule_Corev
hUd:_AsyncResult_get_CallMessage_m1679778649
Bdh:_Array_InternalArray__IEnumerable_GetEnumerator_TisPlayableBinding_t354260709_m1924544205_gshared
gad:__ZZ29InitializeTextRenderingModulevEN27cleanupAfterLoadRegistrator7ForwardEv
wz:__ZN27AnimationLayerMixerPlayable24ProcessAnimationLayerMixEP33AnimationPlayableEvaluationOutputP35AnimationPlayableEvaluationConstantP32AnimationPlayableEvaluationInputS1_if
Yzg:_CCFixed_FromDateTime_m3894190577
n7b:__Z29PluginsIssueRenderingExtEvent26UnityRenderingExtEventTypePv
fgi:__Z116RuntimeInvoker_RuntimeObject_RuntimeObject_Int32_t2950945753_RuntimeObject_RuntimeObject_RuntimeObject_RuntimeObjectPFvvEPK10MethodInfoPvPS4_
sSh:_RSAManaged_ToXmlString_m645792083
WNe:_RuntimeMethodHandle__ctor_m2229201676_AdjustorThunk
NLe:_MessageFormatter_ReadMethodCall_m2327590823
Vvc:__Z14RandomRotationP9Texture2DPhiiii
Rgh:_Array_InternalArray__ICollection_Add_TisUInt16_t2177724958_m3981262878_gshared
e6g:_Decimal_GetBits_m453754410
qGh:_HashSet_1_Contains_m3173358704_gshared
clj:_ToggleEvent__ctor_m834619998
h_f:_InternalEnumerator_1_Dispose_m436383441_AdjustorThunk
csf:_PKCS1_Encode_v15_m2077073129
Cnb:__ZN10Instancing11DrawAPIArgsC2ERK19ShaderPropertySheetPK8Vector4fS6_S6_i
Eyh:_Dictionary_2_get_Values_m2682483593_gshared
SVh:_Collection_1_set_Item_m4084225937_gshared
LDi:__Z51RuntimeInvoker_OrderBlock_t1585977831_RuntimeObjectPFvvEPK10MethodInfoPvPS4_
_4e:_RectOffset_get_left_m1232181034
WZj:__ZNSt3__214__split_bufferIN6il2cpp8metadata18GenericArrayMethodERNS_9allocatorIS3_EEED2Ev
ij:_JS_WebRequest_SetResponseHandler
Dti:__Z59RuntimeInvoker_Boolean_t97287965_Int32_t2950945753_IntPtr_tPFvvEPK10MethodInfoPvPS4_
oAk:_glDeleteProgram__wrapper
CPa:__ZN6prcoreL18BlitFloatToIntegerERK14ImageReferenceRS0_
p5g:_DBNull_System_IConvertible_ToUInt32_m3784627971
awf:_ClientSessionCache_Add_m964342678
dZb:__Z13GetIPhysics2Dv
m$:__ZN11UnityEngine15CloudWebService14RestDownloader17OnCompleteContentEv
VNj:__ZN15dense_hashtableINSt3__24pairIK10KeyWrapperINS1_IPK14Il2CppAssemblyP11Il2CppClassEEEjEES9_17ReflectionMapHashIS8_EN14dense_hash_mapIS9_jSD_NS9_14EqualsComparerINS0_8equal_toIS8_EEEENS0_9allocatorISB_EEE9SelectKeyESI_SK_E15insert_noresizeERKSB_
Anb:__ZN10Instancing11DrawAPIArgsC2Ev
H8e:_Transform_get_localScale_m129152068
u6g:_DivideByZeroException__ctor_m3496959969
aRb:__ZN26SinglePassStereoSupportExt19AfterDrawCallStereoEv
Zlf:_ScrollRect_get_layoutPriority_m1584702890
Na:invoke_viffi
zB:__ZN17AnimationPlayable28UpdateInternalStateRecursiveILi1ELb0EEEvPK35AnimationPlayableEvaluationConstant
R6j:__ZN6il2cpp2gcL10CleanupCCWEPvS1_
Qa:invoke_vifff
azk:_glGetVertexAttribiv__wrapper
JJd:__ZN23GenericVirtFuncInvoker2IbP12MemberInfo_tP12Il2CppObjectE6InvokeEPK10MethodInfoS3_S1_S3_
I6h:_Predicate_1_Invoke_m851618236_gshared
p$d:__ZL67IsolatedStorageException_t3468072396_CustomAttributesCacheGeneratorP21CustomAttributesCache
GGb:__ZN20LocalFileSystemWebGL6DeleteER13FileEntryDatab
Oe:_emscripten_glDisableVertexAttribArray
Cbh:_Array_InternalArray__ICollection_Remove_TisSingle_t1397266774_m3361324455_gshared
Vm:FUNCTION_TABLE_iiiifiiii
pqe:__ZL90AnimationCurve_t3046754366_CustomAttributesCacheGenerator_AnimationCurve_Cleanup_m35123172P21CustomAttributesCache
VYi:_Collection_1_set_Item_m839097518_gshared
xSf:_InternalEnumerator_1__ctor_m3456047704_gshared
gc:invoke_fifffi
EUh:_Collection_1_System_Collections_IList_Add_m2969482770_gshared
cQh:_BitConverterLE_GetBytes_m4130646282
NPb:__ZN4gles23ClearCurrentFramebufferEP7ApiGLESbbbRK10ColorRGBAffi
Sz:__ZN7mecanim12statemachine20CreateStateWorkspaceEjjjRNS_6memory9AllocatorE
zai:_UnityEvent_1_Invoke_m3604335408_gshared
Bae:__ZL79Convert_t2465617642_CustomAttributesCacheGenerator_Convert_ToUInt64_m2652538228P21CustomAttributesCache
Ze:_emscripten_glDeleteObjectARB
w7e:_StackTraceUtility__cctor_m1981266436
uSa:__Z14DecompressDXT3iiiPKjPj
_ji:__Z131RuntimeInvoker_Void_t1185182177_RuntimeObject_RuntimeObject_Int64_t3736567304_ObjectU26_t2146539884_SerializationInfoU26_t419328957PFvvEPK10MethodInfoPvPS4_
mia:__ZN6prcoreL27StretchGenericFloatBilinearI18TexFormatARGBFloatEEvPKNS_9InnerInfoE
SQh:_DSAManaged_CreateSignature_m2233977444
AAe:__ZL87U3CDelayedDestroyDropdownListU3Ec__Iterator0_t3853912249_CustomAttributesCacheGeneratorP21CustomAttributesCache
Jlg:_PKCS12_RemoveCertificate_m1421555398
Cpf:_Kernel_MinusEq_m2152832554
fia:__ZN6prcoreL17RemapGenericFloatI17TexFormatRGBAHalf18TexFormatARGBFloatEEvPKNS_9InnerInfoE
hKc:__Z14GetBuiltinSkini
eHe:_MethodDictionary_get_Item_m1201458851
KW:___cxx_global_var_init_13
ZW:___cxx_global_var_init_10
_W:___cxx_global_var_init_11
pdi:__Z60RuntimeInvoker_SByte_t1669577662_RuntimeObject_RuntimeObjectPFvvEPK10MethodInfoPvPS4_
vQh:_CryptoConvert_ToInt32LE_m3340980429
nak:__ZN6il2cpp2os10ThreadImpl13SetWaitObjectEPNS0_5posix15PosixWaitObjectE
il:_JS_SystemInfo_GetBrowserVersionString
V9a:__ZN2UI13RectTransform23VirtualRedirectTransferER14SafeBinaryRead
x4a:__ZN24GenerateTypeTreeTransfer8TransferINSt3__26vectorIN4core12basic_stringIcNS3_20StringStorageDefaultIcEEEE13stl_allocatorIS7_L18MemLabelIdentifier13ELi16EEEEEEvRT_PKc17TransferMetaFlags
z8f:_Enumerator_MoveNext_m3045873697_gshared
iqi:__Z31RuntimeInvoker_Rect_t2360479859PFvvEPK10MethodInfoPvPS4_
Igc:__ZNSt3__26vectorIN9ShaderLab20SerializedSubProgramENS_9allocatorIS2_EEE6assignIPS2_EENS_9enable_ifIXaasr21__is_forward_iteratorIT_EE5valuesr16is_constructibleIS2_NS_15iterator_traitsIS9_E9referenceEEE5valueEvE4typeES9_S9_
kQc:__Z18Transfer_BlittableI8JSONReadLb0E8BitFieldEvRK29SerializationCommandArgumentsR31RuntimeSerializationCommandInfo
Wtg:_Char_ToString_m3588025615_AdjustorThunk
kGh:_HashSet_1_CopyTo_m2849056227_gshared
xzb:__ZL17Transfer_GUIStyleI18StreamedBinaryReadILb1EELb0EEvRK29SerializationCommandArgumentsR31RuntimeSerializationCommandInfo
LHc:__ZN9Scripting11UnityEngine15ScrollViewState9InitProxyEv
_Oh:_ModulusRing_Multiply_m343333088
lse:__ZL76AnimatorTransitionInfo_t2534804151_CustomAttributesCacheGenerator_m_AnyStateP21CustomAttributesCache
Cec:__ZN9ShaderLab14SerializedPass8TransferI14SafeBinaryReadEEvRT_
EJc:__Z71Register_UnityEngine_GUILayoutUtility_INTERNAL_CALL_Internal_MoveWindowv
bU:__ZN12AudioManager16SetListenerPauseEb
o4a:__ZNSt3__26vectorIN30RuntimeInitializeOnLoadManager9ClassInfoE13stl_allocatorIS2_L18MemLabelIdentifier13ELi16EEE6assignINS_11__wrap_iterIPS2_EEEENS_9enable_ifIXaasr21__is_forward_iteratorIT_EE5valuesr16is_constructibleIS2_NS_15iterator_traitsISC_E9referenceEEE5valueEvE4typeESC_SC_
rUc:__ZL50__ManagedRegistrationHelperFunction_ContactPoint2DPv
gte:__ZL77AudioClip_t3680889665_CustomAttributesCacheGenerator_m_PCMSetPositionCallbackP21CustomAttributesCache
hlh:_StringBuilder_get_Length_m3238060835
b5d:__ZL64OnSerializedAttribute_t2595932830_CustomAttributesCacheGeneratorP21CustomAttributesCache
da:invoke_viiiiiiiiiii
rmk:___syscall_ret
m5i:_DeriveBytes_set_Salt_m1400945044
Rvd:_PointerEventData_set_worldNormal_m1888481930
Xyd:_CanvasScaler_set_referencePixelsPerUnit_m1768965301
ccj:_AnchorInfo__ctor_m46784903
Iuf:_CipherSuiteCollection_get_Item_m4188309062
S1i:_SslHandshakeHash_HashFinal_m2573455475
xTd:_SynchronizationAttribute_ReleaseLock_m1030353464
XUj:__ZNSt3__212basic_stringIcNS_11char_traitsIcEENS_9allocatorIcEEE6assignINS_11__wrap_iterIPKcEEEENS_9enable_ifIXaasr21__is_forward_iteratorIT_EE5valuesr38__libcpp_string_gets_noexcept_iteratorISC_EE5valueERS5_E4typeESC_SC_
Hid:__Z56Register_UnityEngine_Analytics_CustomEventData_AddDoublev
cYa:__ZN11ChannelInfo8TransferI19StreamedBinaryWriteILb0EEEEvRT_
eck:__ZN4utf88internal13validate_nextIPKcEENS0_9utf_errorERT_S5_Rj
IDe:__ZL53ToggleGroup_t123837990_CustomAttributesCacheGeneratorP21CustomAttributesCache
DOg:_SHA1Internal_AddLength_m2737455899
e3d:__ZL59_PropertyBuilder_t1366136710_CustomAttributesCacheGeneratorP21CustomAttributesCache
Pdf:_InputField_CreateCursorVerts_m3585916868
cyh:_KeyValuePair_2_get_Value_m755756747_gshared
nmc:__Z34Register_UnityEngine_Gradient_Initv
zff:_LayoutGroup_OnDidApplyAnimationProperties_m1333813659
qMf:_GenericTypeParameterBuilder_IsArrayImpl_m67259334
MSd:_Context_ToString_m1073616138
wEf:_DefaultMemberAttribute_get_MemberName_m3384235354
GHf:_Random_Next_m2295149237
fZa:__ZN13ScreenManager23SetIsOrientationEnabledE18EnabledOrientationb
Taf:_InputField_EnforceTextHOverflow_m3400115777
TPi:_List_1_System_Collections_IEnumerable_GetEnumerator_m1225415523_gshared
vWc:__ZN9Scripting11UnityEngine12TreeInstance9InitProxyEv
yri:__Z41RuntimeInvoker_TextureWrapMode_t584250749PFvvEPK10MethodInfoPvPS4_
X1a:__ZN9InputAxis8TransferI19StreamedBinaryWriteILb0EEEEvRT_
VFg:__Z33il2cpp_codegen_check_sub_overflowxx
jfe:__ZL98NativeMethodAttribute_t4187428193_CustomAttributesCacheGenerator_U3CIsThreadSafeU3Ek__BackingFieldP21CustomAttributesCache
Mbf:_InputField_get_caretColor_m2973283772
dyj:_ListPool_1_Release_m591299672_gshared
BYd:__ZL160U3CGetEnumeratorU3Ec__Iterator0_t1202911786_CustomAttributesCacheGenerator_U3CGetEnumeratorU3Ec__Iterator0_System_Collections_IEnumerator_get_Current_m596993724P21CustomAttributesCache
lif:_RectMask2D_get_Canvas_m9990042
LYf:_InternalEnumerator_1_MoveNext_m1096095130_AdjustorThunk
aVh:_Collection_1_RemoveAt_m226266097_gshared
Pai:_UnityEvent_1_AddListener_m1590149461_gshared
Tue:__ZL63GUISkin_t1244372282_CustomAttributesCacheGenerator_m_ScrollViewP21CustomAttributesCache
qke:__ZL62SortingGroupsUpdate_t3400410071_CustomAttributesCacheGeneratorP21CustomAttributesCache
ZLi:_Resources_ConvertObjects_TisRuntimeObject_m1486780300_gshared
Z7g:_Double_System_IConvertible_ToInt16_m3591921965_AdjustorThunk
o4h:_Comparison_1_Invoke_m2925518770_gshared
zwa:__ZN10GameObject23VirtualRedirectTransferER18StreamedBinaryReadILb0EE
fij:_SymmetricTransform__ctor_m2693628991
cFc:__Z36Camera_CUSTOM_get_pixelRect_InjectedP12Il2CppObjectR5RectTIfE
pg:_glFrontFace
nLg:_FileSystemInfo_InternalRefresh_m1700260373
WCd:_Dropdown_OnSubmit_m1624226516
Obe:__ZL101RuntimeMethodHandle_t1133924984_CustomAttributesCacheGenerator_RuntimeMethodHandle_Equals_m3301340296P21CustomAttributesCache
WGj:__ZNK15dense_hashtableINSt3__24pairIK10KeyWrapperIPK19Il2CppGenericMethodEPK26Il2CppGenericMethodIndicesEES6_N6il2cpp8metadata23Il2CppGenericMethodHashEN14dense_hash_mapIS6_SA_SE_NS6_14EqualsComparerINSD_26Il2CppGenericMethodCompareEEENS0_9allocatorISB_EEE9SelectKeyESI_SK_E12test_deletedEj
nhf:_MaskUtilities_IsDescendantOrSelf_m2247511982
fmi:__Z51RuntimeInvoker_UInt16_t2177724958_SByte_t1669577662PFvvEPK10MethodInfoPvPS4_
pci:__Z46RuntimeInvoker_Double_t594665363_RuntimeObjectPFvvEPK10MethodInfoPvPS4_
pri:__Z34RuntimeInvoker_Vector2_t2156229523PFvvEPK10MethodInfoPvPS4_
Kxa:__ZN12BaseRenderer21SetGlobalLayeringDataE18GlobalLayeringDataj
N9c:__Z51Register_UnityEngine_TextGenerator_GetLinesInternalv
Qoa:__ZN9Scripting11UnityEngine15HideInInspector12CleanupProxyEv
zSg:_SecurityElement__cctor_m3326869319
Sij:_AesManaged_set_Key_m767972181
YEg:_Int16_System_IConvertible_ToBoolean_m1656400658_AdjustorThunk
psg:_Byte_System_IConvertible_ToInt64_m285584218
pue:__ZL120GUILayoutUtility_t66395690_CustomAttributesCacheGenerator_GUILayoutUtility_INTERNAL_CALL_Internal_MoveWindow_m2976690564P21CustomAttributesCache
wha:__ZN6prcoreL17RemapGenericFloatI17TexFormatRGBFloat18TexFormatRGBAFloatEEvPKNS_9InnerInfoE
Fxg:_DictionaryEntry_t3123975638_marshal_pinvoke_cleanup
kgh:_Array_InternalArray__ICollection_Add_TisDictionaryEntry_t3123975638_m665385049_gshared
Dge:__ZL57BootConfigData_t3818279794_CustomAttributesCacheGeneratorP21CustomAttributesCache
VCf:_MissingMemberException__ctor_m2707802176
Ewc:__ZN28ReflectionProbeAnchorManager10InitializeEv
lvj:_Canvas_get_renderMode_m841659411
dWg:_String_Join_m2050845953
tNe:_SerializationInfo_GetValue_m42271953
HS:__ZN9AudioClip11CreateSoundEv
XPa:__ZN29SerializeTraitsForStringTypesIN4core12basic_stringIcNS0_20StringStorageDefaultIcEEEEE8TransferI24GenerateTypeTreeTransferEEvRS4_RT_
rUj:__ZN14dense_hash_mapI10KeyWrapperINSt3__24pairIPK9FieldInfoP11Il2CppClassEEEj17ReflectionMapHashIS8_ENS9_14EqualsComparerINS1_8equal_toIS8_EEEENS1_9allocatorINS2_IKS9_jEEEEEC2EjRKSB_RKSF_
HK:__ZN4core8hash_setINS_4pairIKiiLb0EEENS_9hash_pairINS_4hashIiEES2_iEENS_10equal_pairINSt3__28equal_toIiEES2_iEEE4growEi
GK:__ZN4core8hash_setINS_4pairIKiiLb0EEENS_9hash_pairINS_4hashIiEES2_iEENS_10equal_pairINSt3__28equal_toIiEES2_iEEE4growEv
G0e:_PlayerConnection_GetConnectionNativeApi_m3116196780
QPj:__ZNK15dense_hashtableINSt3__24pairIK10KeyWrapperINS1_IPK10MethodInfoP11Il2CppClassEEEjEES9_17ReflectionMapHashIS8_EN14dense_hash_mapIS9_jSD_NS9_14EqualsComparerINS0_8equal_toIS8_EEEENS0_9allocatorISB_EEE9SelectKeyESI_SK_E13find_positionERSA_
Cnd:__ZN11UnityEngine7Connect16PersistentValues13RestoreValuesER8JSONRead
Ead:__ZN9Scripting11UnityEngine8Tilemaps8TileData9InitProxyEv
fYd:__ZL65RuntimeArray_CustomAttributesCacheGenerator_Array_Sort_m182264525P21CustomAttributesCache
LEg:_Guid_BaseToString_m3600006650
Eeb:__ZN20ArchiveStorageReader31TryToReadDirectoryFromBlockDataEyPKvj
atd:_PointerEventData_set_pointerEnter_m3256217464
L2j:__ZN6il2cpp2vmL11GetIdentityEP14Il2CppIUnknown
Pfk:_GC_push_gc_structures
Rxf:_TlsServerCertificate_ProcessAsTls1_m819212276
jNi:_List_1_System_Collections_Generic_ICollectionU3CTU3E_get_IsReadOnly_m507350231_gshared
KJi:_Dictionary_2_Do_ICollectionCopyTo_TisRuntimeObject_m3942192587_gshared
FMj:__ZN6il2cpp6icalls8mscorlib6SystemL8IsPublicEPK9EventInfo
rYf:_InternalEnumerator_1_MoveNext_m359138619_AdjustorThunk
CGe:__ZL63EventTrigger_t2527451695_CustomAttributesCacheGenerator_m_RulesP21CustomAttributesCache
qqf:_PrimalityTests_RabinMillerTest_m2544317101
Qmb:__Z22GetShaderCachePathGLESv
vpf:_Kernel_DwordDivMod_m1540317819
U7h:_CachedInvokableCall_1_Invoke_m931536002_gshared
lXi:_Enumerator_System_Collections_IEnumerator_get_Current_m1399273671_gshared
KId:_TypeBuilder_GetPropertyImpl_m3104345782
wYa:__ZNSt3__213__stable_sortIRNS_4lessI4PPtrI11SpriteAtlasEEENS_11__wrap_iterIPS4_EEEEvT0_SA_T_NS_15iterator_traitsISA_E15difference_typeEPNSD_10value_typeEi
$Hg:_Int64_ToString_m2085073918_AdjustorThunk
C6f:_Transform_1_Invoke_m4084479750_gshared
BJd:_FieldInfo_GetFieldOffset_m1356898082
MDi:__Z36RuntimeInvoker_Enumerator_t652329154PFvvEPK10MethodInfoPvPS4_
qUe:_Camera_RaycastTry_m3913529496
Fdc:__ZN10BootConfig4Data14InitFromStringEPPKcjS2_
z3:__ZN8keywords6CreateEPKc
Lyj:__ZL7log2_32j
j3e:_Quaternion_Inverse_Injected_m4070500351
S:Math_imul
Iod:__Z58Register_UnityEngine_RemoteConfigSettings_Internal_Destroyv
Bqa:__ZN9Scripting11UnityEngine11ContextMenu9InitProxyEv
zVh:_Collection_1_System_Collections_IList_get_Item_m3314684800_gshared
fyi:__Z49RuntimeInvoker_Boolean_t97287965_Byte_t1134296376PFvvEPK10MethodInfoPvPS4_
kyf:_TlsServerKeyExchange_Update_m453798279
UTa:__ZN11PlayerPrefs6GetIntERKN4core12basic_stringIcNS0_20StringStorageDefaultIcEEEEi
Puf:_CipherSuiteCollection_System_Collections_IList_IndexOf_m1361500977
uof:_Text_set_fontStyle_m648756124
v9c:__Z45TextGenerator_CUSTOM_INTERNAL_get_rectExtentsP12Il2CppObjectP5RectTIfE
Esi:__Z50RuntimeInvoker_Touch_t1921856868_Int32_t2950945753PFvvEPK10MethodInfoPvPS4_
fK:__ZN9Scripting11UnityEngine18AssetBundleRequest12CleanupProxyEv
W2g:_DateTime__ctor_m2135476686_AdjustorThunk
ZQc:__ZN13GUIStyleState8TransferI8JSONReadEEvRT_
gZa:__ZN13ScreenManager21SetLockCursorInternalE14CursorLockMode
wIe:_SoapFieldAttribute_IsInteropXmlElement_m2819415462
oU:__ZN11AudioSource12SetAudioClipEP9AudioClip
L5e:_RectTransform_GetLocalCorners_m823861473
pwg:_SynchronizedArrayListWrapper_GetEnumerator_m1579424644
tjf:_Scrollbar_get_value_m760470106
L4h:_Comparison_1_EndInvoke_m2734814639_gshared
z5:__ZN18ScriptingArguments9AddObjectE18ScriptingObjectPtr
Mdd:__Z39CanvasGroup_Get_Custom_PropInteractableP12Il2CppObject
TX:__ZN11UnityEngine15CloudWebService16SessionContainerD2Ev
emd:__ZL38InitializeUnityConnectScriptingClassesv
usj:__ZL25UnresolvedVirtualCall_229P12Il2CppObjectPK10MethodInfo
X7b:__ZN13ProbeRenderer8ConvolveEbijjb
Xhj:_GUIUtility_set_systemCopyBuffer_m608712289
hQb:__ZN17GenericDynamicVBOC2ER9GfxDevice13GfxBufferModejj
BKc:__ZZN10GUIManager14InitGUIManagerEvEN41PreUpdateIMGUISendQueuedEventsRegistrator7ForwardEv
ldg:_ServicePointManager_get_SecurityProtocol_m966397919
hAg:_CCGregorianCalendar_day_from_fixed_m1674702403
lZ:__ZN11UnityEngine15CloudWebService17SessionEventQueue10PurgeItemsEj
A8b:__ZN6Camera16StandaloneRenderENS_10RenderFlagEP6ShaderRKN4core12basic_stringIcNS3_20StringStorageDefaultIcEEEE
Ofg:_X509Chain_PrepareForNextCertificate_m3691934993
nwa:__ZN16LevelGameManager23VirtualRedirectTransferER24GenerateTypeTreeTransfer
Ryb:__Z18Transfer_BlittableI18StreamedBinaryReadILb1EELb1EtEvRK29SerializationCommandArgumentsR31RuntimeSerializationCommandInfo
Yte:__ZL58EventType_t3528516131_CustomAttributesCacheGenerator_keyUpP21CustomAttributesCache
l5d:__ZL57X509Certificate_t713131622_CustomAttributesCacheGeneratorP21CustomAttributesCache
bYa:__ZN12BoneWeights48TransferI19StreamedBinaryWriteILb0EEEEvRT_
vib:__ZN9GfxDevice20DeallocRenderSurfaceEP17RenderSurfaceBase
w9f:_ValueCollection_System_Collections_Generic_ICollectionU3CTValueU3E_get_IsReadOnly_m1110422367_gshared
zmb:__ZN20GpuProgramParameters36UpdatePrepareValuesMaximumBufferSizeEv
Hnj:_AudioSourceExtension_Stop_m387892536
rWi:_List_1_System_Collections_IEnumerable_GetEnumerator_m1355413981_gshared
RMh:_SimpleCollator_GetContraction_m2205549079
MEh:_EqualityComparer_1_get_Default_m168544645_gshared
g_h:_ReadOnlyCollection_1_System_Collections_IList_get_IsReadOnly_m3888539454_gshared
Sca:__ZN13RuntimeStaticI10WatermarksLb0EE13StaticDestroyEPv
_qf:_ARC4Managed_GenerateKey_m1607343060
zhh:_Array_InternalArray__ICollection_CopyTo_TisDecimal_t2948259380_m2749946216_gshared
lzf:_ReceiveRecordAsyncResult_get_ResultingBuffer_m1839161335
X3a:__ZN30RuntimeInitializeOnLoadManager23VirtualRedirectTransferER14SafeBinaryRead
GTd:_EnvoyInfo__ctor_m276600651
NXc:__ZN20TextRenderingPrivate8FontImpl13CharacterInfo8TransferI18StreamedBinaryReadILb0EEEEvRT_
awb:__Z29Transfer_Blittable_ArrayFieldI24GenerateTypeTreeTransferfEvRT_R9ArrayInfoRK23StaticTransferFieldInfo
e7d:__ZL113SecurityException_t975544473_CustomAttributesCacheGenerator_SecurityException_t975544473____Demanded_PropertyInfoP21CustomAttributesCache
IXe:_UnityEvent_FindMethod_Impl_m2312362624
bac:__ZN19CustomRenderTexture9AddParentE4PPtrIS_E
Rqb:__ZN8Gradient8TransferI14SafeBinaryReadEEvRT_
uTe:_Vector3_GetHashCode_m2879461828
ebj:_Parser_ParseSpecial_m1961501104
OTg:_Single_System_IConvertible_ToUInt64_m3299129161_AdjustorThunk
XMa:__ZNSt3__26vectorIN4core12basic_stringIcNS1_20StringStorageDefaultIcEEEE13stl_allocatorIS5_L18MemLabelIdentifier1ELi16EEE7reserveEj
Xwe:__ZL93CanvasRenderer_t2598313366_CustomAttributesCacheGenerator_CanvasRenderer_set_cull_m4222419074P21CustomAttributesCache
oph:_TimerCallback_BeginInvoke_m2250763656
bZc:__ZN20TextRenderingPrivate15DynamicFontData36GetFaceForCharacterIfAvailableInFontERKNS_7FontRefERK13dynamic_arrayI4PPtrIN13TextRendering4FontEELj0EEj
d9f:_ValueCollection_System_Collections_Generic_ICollectionU3CTValueU3E_Contains_m3110959791_gshared
Scg:_IPv6Address_AsIPv4Int_m844941024
Soc:__Z43PlayerConnectionInternal_CUSTOM_IsConnectedv
S7a:__ZN18IDCollectorFunctorD0Ev
Lyf:_RecordProtocol__cctor_m1280873827
X_e:_Matrix4x4_MultiplyPoint_m1575665487_AdjustorThunk
SPd:_Marshal__cctor_m4007734770
Jek:_GC_new_free_list_inner
LSh:_SymmetricTransform_Random_m2004892672
Goi:__Z79RuntimeInvoker_Void_t1185182177_RuntimeObject_Byte_t1134296376_Byte_t1134296376PFvvEPK10MethodInfoPvPS4_
lsf:_EncryptedPrivateKeyInfo_get_IterationCount_m2912222740
oek:_GC_err_printf
jrd:__ZN9Scripting11UnityEngine2XR13InputTracking12CleanupProxyEv
Ksf:_RSAManaged_DecryptValue_m1804388365
YPf:_InternalEnumerator_1_System_Collections_IEnumerator_get_Current_m2980550840_AdjustorThunk
qH:__ZN25RuntimeAnimatorController8TransferI14SafeBinaryReadEEvRT_
_Qc:__ZN8JSONRead8TransferI10RectOffsetEEvRT_PKc17TransferMetaFlagsb
J3j:__ZNK15dense_hashtableINSt3__24pairIK10KeyWrapperINS1_IPKcS4_EEEiEES6_24NamespaceAndNamePairHashN14dense_hash_mapIS6_iS9_NS6_14EqualsComparerI26NamespaceAndNamePairEqualsEENS0_9allocatorIS8_EEE9SelectKeyESD_SF_E12test_deletedERK24dense_hashtable_iteratorIS8_S6_S9_SH_SD_SF_E
WY:__ZN9JSONWrite8TransferIN11UnityEngine15CloudWebService14DataErrorEvent15FileErrorDetailEEEvRT_PKc17TransferMetaFlags
M0i:_Collection_1_ClearItems_m2728738230_gshared
RGg:_Int32_Parse_m2087562008
wxa:__Z21ClearFenceWithoutSyncR8JobFence
xWf:_InternalEnumerator_1_Dispose_m630370856_AdjustorThunk
zMd:_MonoProperty_GetAccessors_m412928203
Jxj:_TweenRunner_1_Start_m3757154622_gshared
LN:__ZN12SoundManager20RegisterModifiedClipEP10SampleClip
xJe:_RemotingServices_GetClientChannelSinkChain_m1499550585
aIf:_Assembly_FillName_m1660001542
U2d:__ZL56_EventBuilder_t2558055199_CustomAttributesCacheGeneratorP21CustomAttributesCache
Gkf:_ScrollRect_get_decelerationRate_m74583805
bPg:_SHA384Managed_processBlock_m1272529332
yQ:__ZN11AudioSource4PlayEd
Ztg:_Char_ToString_m278452217_AdjustorThunk
PEj:__ZN15dense_hashtableI10KeyWrapperIPK17Il2CppGenericInstES4_N6il2cpp8metadata21Il2CppGenericInstHashEN14dense_hash_setIS4_S7_NS4_14EqualsComparerINS6_24Il2CppGenericInstCompareEEENSt3__29allocatorIS4_EEE8IdentityESB_SE_E13set_empty_keyERKS4_
Hdi:__Z63RuntimeInvoker_Char_t3634460470_Int16_t2552820387_RuntimeObjectPFvvEPK10MethodInfoPvPS4_
O$g:_Convert_ToDouble_m2924063577
zcb:__ZNK20LocalFileSystemPosix8IsHiddenERK13FileEntryData
rba:__Z17GetCoreModuleSpecv
nJh:_Enumerator_System_Collections_IEnumerator_get_Current_m3594024719_gshared
LZf:_InternalEnumerator_1_System_Collections_IEnumerator_Reset_m1601477281_AdjustorThunk
zJf:_CustomAttributeNamedArgument_ToString_m1488801416_AdjustorThunk
Twe:__ZL113CanvasRenderer_t2598313366_CustomAttributesCacheGenerator_CanvasRenderer_SplitUIVertexStreamsInternal_m3280623346P21CustomAttributesCache
YQa:__ZN7Cubemap23VirtualRedirectTransferER18StreamedBinaryReadILb0EE
S3f:_Enumerator_MoveNext_m76191888_AdjustorThunk
pZf:_InternalEnumerator_1__ctor_m1739091604_gshared
Uqc:__ZNSt3__27__sort4IRNS_6__lessI11KeyframeTplIfES3_EEPS3_EEjT0_S7_S7_S7_T_
y6c:_Read_CVT
Reb:__ZN12FileAccessor4SeekEx10FileOrigin
bt:__ZN9Scripting11UnityEngine25RuntimeAnimatorController12CleanupProxyEv
Pub:__ZL26Transfer_SimpleNativeClassI24GenerateTypeTreeTransfer17AnimationCurveTplIfELb0EEvRK29SerializationCommandArgumentsR31RuntimeSerializationCommandInfo
d$g:_Convert_ToDecimal_m1783778724
n5f:_ShimEnumerator_get_Value_m153531060_gshared
CAg:_DateTimeFormatInfo__ctor_m3106345035
Fvf:_TlsServerKeyExchange_verifySignature_m3412856769
HBh:_EqualityComparer_1_System_Collections_IEqualityComparer_GetHashCode_m4137147946_gshared
x0i:_Collection_1_System_Collections_ICollection_CopyTo_m5285659_gshared
Wca:__ZN16LightmapSettings20DidChangeActiveSceneEP10UnitySceneS1_
qwb:__Z18Transfer_BlittableI19StreamedBinaryWriteILb0EELb0EN4math12int3_storageEEvRK29SerializationCommandArgumentsR31RuntimeSerializationCommandInfo
OGe:__ZL59g_AssemblyU2DCSharp_Assembly_CustomAttributesCacheGeneratorP21CustomAttributesCache
TMj:__ZN6il2cpp5utils9PathUtils8BasenameIcEENSt3__212basic_stringIT_NS3_11char_traitsIS5_EENS3_9allocatorIS5_EEEERKSA_
LP:__ZN10AudioMixer11SetupGroupsEv
Gt:__ZN9Scripting11UnityEngine10Animations21AnimationClipPlayable9InitProxyEv
EIc:__Z35Register_UnityEngine_Event_get_typev
yna:__ZN9Scripting11UnityEngine9Rendering18GraphicsDeviceType12CleanupProxyEv
t0j:__ZN6il2cpp2vm9Exception23GetInvalidCastExceptionERKNS_5utils10StringViewIDsEE
wCe:__ZL64Scrollbar_t1494447233_CustomAttributesCacheGenerator_m_DirectionP21CustomAttributesCache
quk:_emscripten_glDepthRange__wrapper
wB:__ZN8Animator28BuildControllerPlayableCacheEv
R3d:__ZL48Header_t549724581_CustomAttributesCacheGeneratorP21CustomAttributesCache
uti:__Z36RuntimeInvoker_EventType_t3528516131PFvvEPK10MethodInfoPvPS4_
z6:__Z63ThreadAndSerializationSafeCheckGetMonoBehaviourBeingTransferredv
Doa:__ZN9Scripting11UnityEngine12LightmapData9InitProxyEv
ROi:_List_1_set_Item_m4224739467_gshared
Lfi:__Z74RuntimeInvoker_Int32_t2950945753_RuntimeObject_RuntimeObject_RuntimeObjectPFvvEPK10MethodInfoPvPS4_
kKf:_ConstructorBuilder_get_Name_m2426555260
yrc:__Z37Register_UnityEngine_Input_GetAxisRawv
Dce:__ZL80ModulusRing_t596511505_CustomAttributesCacheGenerator_ModulusRing_Pow_m729002192P21CustomAttributesCache
tmd:__ZN11UnityEngine7Connect13ConfigHandler13ConfigChangedERKN4core12basic_stringIcNS2_20StringStorageDefaultIcEEEEbbi
fbj:_Parser_ParseCharacterClass_m4285351396
g1g:_Convert_ToSByte_m2653418303
vXg:_SyncHashtable__ctor_m2449935938
$Tc:__ZN17CallbackArrayBaseIPFvRKN4core12basic_stringIcNS0_20StringStorageDefaultIcEEEER8JSONReadbEPFvPKvS6_S8_bEE8RegisterESA_SE_SC_
lQ:__ZN11AudioSource5ResetEv
wFf:_NumberFormatter_DecHexLen_m510984344
nOg:_RSAPKCS1SignatureFormatter_SetKey_m2935054088
mZb:__ZN12ImageFilters27SetSurfaceUseResolvedBufferEP13RenderTextureb
Rnb:__ZN14SafeBinaryRead21TransferSTLStyleArrayI10vector_setI4PPtrI10MonoScriptENSt3__24lessIS4_EE13stl_allocatorIS4_L18MemLabelIdentifier79ELi16EEEEEvRT_17TransferMetaFlags
COa:__ZN14Texture2DArray23VirtualRedirectTransferER18StreamedBinaryReadILb0EE
Imh:_UTF7Encoding_GetByteCount_m209415911
M9a:__ZN2UI13RectTransform13AwakeFromLoadE17AwakeFromLoadMode
Ndj:_RegularExpression_Compile_m2385682508
n6e:_ResourceRequest_t3109103591_marshal_pinvoke_back
I2b:__ZN14qsort_internal30FindAndMovePivotToLastPositionIP20ShadowCasterSortDatai26ShadowCasterSortDataSorterEEvT_S4_T0_T1_
u4d:__ZL60IRemotingTypeInfo_t2222593263_CustomAttributesCacheGeneratorP21CustomAttributesCache
kob:__Z18Transfer_BlittableI14SafeBinaryReadLb1EiEvRK29SerializationCommandArgumentsR31RuntimeSerializationCommandInfo
Ufg:_X509ExtensionEnumerator_get_Current_m256207749
z7h:_Predicate_1__ctor_m3829092036_gshared
Cwe:__ZL97CanvasGroup_t4083511760_CustomAttributesCacheGenerator_CanvasGroup_get_blocksRaycasts_m1805542303P21CustomAttributesCache
qzg:_EventArgs__cctor_m1889823314
dqg:_Array_Sort_m182264525
fff:_LayoutGroup_set_padding_m282562135
mZi:_Collection_1_System_Collections_IList_get_IsReadOnly_m773226719_gshared
UIf:_Default_IsArrayAssignable_m953489228
dG:__ZNK4PPtrI8RendererEcvPS0_Ev
YWj:_il2cpp_field_get_offset
ith:_UInt16_ToString_m355311020_AdjustorThunk
UIi:_Array_swap_TisUICharInfo_t75501106_TisUICharInfo_t75501106_m585514134_gshared
J8h:_InvokableCall_1_remove_Delegate_m667188944_gshared
ATd:_SynchronizedClientContextSink__ctor_m4129963630
Fk:_glGetStringi
Kih:_DecoderExceptionFallback_CreateFallbackBuffer_m1133375601
_4j:__ZNK15dense_hashtableI10KeyWrapperIP18Il2CppGenericClassES3_N6il2cpp8metadata22Il2CppGenericClassHashEN14dense_hash_setIS3_S6_NS3_14EqualsComparerINS5_25Il2CppGenericClassCompareEEENSt3__29allocatorIS3_EEE8IdentityESA_SD_E10test_emptyERK30dense_hashtable_const_iteratorIS3_S3_S6_SF_SA_SD_E
q2f:_Enumerator_get_CurrentKey_m889650866_gshared
T0f:_Comparer_1_get_Default_m1513846993_gshared
Nsj:__ZL25UnresolvedVirtualCall_248P12Il2CppObjecti25RaycastResult_t3360306849PK10MethodInfo
aTh:_EncryptedData_get_EncryptionAlgorithm_m1297902161
mNe:_SerializationEntry__ctor_m1411687997_AdjustorThunk
sD:__ZN8Animator9WriteStepEy
rza:__ZN9Coroutine16SetCurrentMethodE18ScriptingMethodPtr
HZ:__ZN11UnityEngine15CloudWebService20WebRequestRestClient18GetResponseHeadersEv
$zc:__ZN16PropertyAccessorC2Ev
nzb:__Z35Transfer_Blittable_FixedBufferFieldI18StreamedBinaryReadILb1EEaEvRK29SerializationCommandArgumentsR31RuntimeSerializationCommandInfo
vCe:__ZL65Scrollbar_t1494447233_CustomAttributesCacheGenerator_m_HandleRectP21CustomAttributesCache
SYa:__ZN13ScreenManager16SetScreenTimeoutEi
qtb:__Z18Transfer_BlittableI17RemapPPtrTransferLb0EdEvRK29SerializationCommandArgumentsR31RuntimeSerializationCommandInfo
uie:__ZL104MonoBehaviour_t3962482529_CustomAttributesCacheGenerator_MonoBehaviour_IsObjectMonoBehaviour_m2134950949P21CustomAttributesCache
o_i:_Collection_1_ConvertItem_m1743542180_gshared
C9c:__Z38Register_UnityEngine_Font_HasCharacterv
rDi:__Z68RuntimeInvoker_Boolean_t97287965_Int16_t2552820387_Int16_t2552820387PFvvEPK10MethodInfoPvPS4_
W6b:__Z35IntersectSpherePlaneBoundsOptimizedRKN4math7_float4EPS1_i
uNg:_RNGCryptoServiceProvider__cctor_m3587754670
xUf:_InternalEnumerator_1_MoveNext_m1728532725_AdjustorThunk
Vaa:__ZN17TransformInternal21DetachTransformThreadER18TransformHierarchyjj
m7i:_X509Crl_get_IssuerName_m1792797338
TNi:_List_1_get_Count_m241572196_gshared
x7j:__ZN6il2cpp2os5posix15PosixWaitObject13InterruptWaitEv
Bca:__Z22CleanupLODGroupManagerPv
AIc:__Z21Event_CUSTOM_PopEventP12Il2CppObject
ol:_glUniform3fv
Gkk:__ZNK6il2cpp8metadata24Il2CppGenericInstCompareclERK10KeyWrapperIPK17Il2CppGenericInstES8_
ngg:_X509ChainElement_Set_m655180762
fzj:_CustomEventData_AddInt32_m548429697
p3e:_Quaternion_GetHashCode_m2636680144
k1b:__ZNK16LightmapSettings31GetRealtimeLightmapDecodeValuesEv
uP:__ZN5audio5mixer12SetSuspendedERNS0_16AudioMixerMemoryEb
W8a:__ZN17PersistentManager21UnloadNonDirtyStreamsEv
Ylh:_UnicodeDecoder__ctor_m3606046165
Kki:__Z96RuntimeInvoker_Int32_t2950945753_RuntimeObject_Int32_t2950945753_RuntimeObject_Int32_t2950945753PFvvEPK10MethodInfoPvPS4_
Fjj:_AnalyticsEventTracker_OnEnable_m1121905268
mej:_Uri_get_Parser_m3737125102
uvj:_Canvas_get_overrideSorting_m2740418462
WVe:_Debug_LogFormat_m309087137
msg:_Byte_System_IConvertible_ToInt16_m4136764794_AdjustorThunk
SZa:__ZN12ImageFilters4BlitER17ShaderPassContextP7TextureP13RenderTextureiPK18SharedMaterialDataPKcP6ShaderiNS_9BlitFlagsE11CubemapFaceRK8Vector2fSH_
BVg:_String_LastIndexOf_m3451222878
c9i:_Mark_get_Index_m3048692661
UDe:__ZL69CanvasScaler_t2767979955_CustomAttributesCacheGenerator_m_ScaleFactorP21CustomAttributesCache
DRd:_ConfigHandler_CheckPath_m3079311646
vZ:__ZN11UnityEngine15CloudWebService10RestClientINS0_23WebRequestRestHeaderMapEED2Ev
O5h:_U3CCreateWhereIteratorU3Ec__Iterator1D_1__ctor_m1723214851_gshared
Ll:_emscripten_glDepthMask
AKe:_RemotingServices_CreateClientProxy_m3886727610
iSa:__ZN4crnd25static_huffman_data_model22prepare_decoder_tablesEv
USa:__ZN9Texture2D23VirtualRedirectTransferER17RemapPPtrTransfer
Qyf:_RecordProtocol_GetMessage_m2086135164
zBb:__Z18Transfer_BlittableI18StreamedBinaryReadILb0EELb0E10ColorRGBAfEvRK29SerializationCommandArgumentsR31RuntimeSerializationCommandInfo
$ca:__Znaj
OAk:_emscripten_glEnableClientState__wrapper
ppd:__ZN20UnityWebRequestProtoI24UnityWebRequestTransport16AtomicRefCounter14RedirectHelper14ResponseHelper15DownloadHandler13UploadHandler18CertificateHandler12HeaderHelper14AsyncOperationE26Job_ExecuteUnityWebRequestEPS9_
D2:__ZN17MessageIdentifierC2EPKcNS_7OptionsEPKN5Unity4TypeES1_
Kdi:__Z45RuntimeInvoker_Void_t1185182177_RuntimeObjectPFvvEPK10MethodInfoPvPS4_
M$e:_Mesh_SetTriangles_m1523451247
DTg:_Single_System_IConvertible_ToSByte_m1208276900
CGi:_Array_InternalArray__set_Item_TisVector4_t3319028937_m757305038_gshared
Vva:__ZN11GameManager15ThreadedCleanupEv
ptc:__ZNSt3__26__treeIPc15compare_tstringIPKcENS_9allocatorIS1_EEE25__emplace_unique_key_argsIS1_JS1_EEENS_4pairINS_15__tree_iteratorIS1_PNS_11__tree_nodeIS1_PvEEiEEbEERKT_DpOT0_
bji:__Z105RuntimeInvoker_Void_t1185182177_RuntimeObject_RuntimeObject_RuntimeObject_RuntimeObject_Int32_t2950945753PFvvEPK10MethodInfoPvPS4_
P8f:_ValueCollection_System_Collections_Generic_ICollectionU3CTValueU3E_Add_m3298059628_gshared
dei:__Z64RuntimeInvoker_RuntimeObject_Int16_t2552820387_Int16_t2552820387PFvvEPK10MethodInfoPvPS4_
RU:__Z55Register_UnityEngine_AudioSource_get_spatializeInternalv
JGe:__ZL71TrackableTrigger_t621205209_CustomAttributesCacheGenerator_m_MethodPathP21CustomAttributesCache
iK:__ZN14SafeBinaryRead8TransferI14ConstantStringEEvRT_PKc17TransferMetaFlags
Ubg:__ZN28GenericInterfaceFuncInvoker3IbP26X509Certificate_t713131622P20X509Chain_t194917408iE6InvokeEPK10MethodInfoP12Il2CppObjectS1_S3_i
pXb:__ZNK6Camera16GetStereoEnabledEv
GVa:__ZN16LightmapSettings16CheckConsistencyEv
Mni:__Z72RuntimeInvoker_Int32_t2950945753_TimeSpan_t881159249_TimeSpan_t881159249PFvvEPK10MethodInfoPvPS4_
pzf:_SendRecordAsyncResult_SetComplete_m153213906
JVa:__ZN16LightmapSettings23VirtualRedirectTransferER19StreamedBinaryWriteILb0EE
uwc:__ZN12LightManager15InitializeClassEv
sph:_WaitHandle__cctor_m4242752477
ILa:__ZN9ShaderLab11shaderprops16GetComputeBufferEPK19ShaderPropertySheetS3_NS_16FastPropertyNameE
Gck:__ZN6il2cpp6icalls8mscorlib6System10Reflection10MethodBase31GetMethodFromHandleInternalTypeEii
u8:__ZN23ManagedAttributeManager35CallManagedGetDefaultExecutionOrderE17ScriptingClassPtr
N5:__ZN18ScriptingArgumentsC2Ev
QTe:_Vector3_op_Equality_m4231250055
qji:__Z46RuntimeInvoker_ParameterAttributes_t1826424051PFvvEPK10MethodInfoPvPS4_
jwk:_emscripten_glBlendFuncSeparate__wrapper
WXe:_PlayerLoopSystem_t105772105_marshal_pinvoke_back
dWa:__ZN15SerializeTraitsI13dynamic_arrayI7Hash128Lj0EEE19ResizeSTLStyleArrayERS2_i
vue:__ZL68GUISettings_t1774757634_CustomAttributesCacheGenerator_m_CursorColorP21CustomAttributesCache
BJg:_FileSystemInfo__ctor_m3769019897
oLi:_Array_InternalArray__get_Item_TisContentType_t1787303396_m421427711_gshared
s4e:_Rect_get_xMin_m581135837_AdjustorThunk
OYb:__ZNK25CameraStackRenderingState27GetStereoImageEffectTextureEb
DRe:_HMACSHA384__ctor_m1677515580
qNg:_RIPEMD160Managed_J_m1336489154
jHc:__ZL52__ManagedRegistrationHelperFunction_PlayableDirectorPv
Dve:__ZL102GUIUtility_t1868551600_CustomAttributesCacheGenerator_GUIUtility_Internal_GetPixelsPerPoint_m290411053P21CustomAttributesCache
rJj:__ZN6il2cpp6icalls6System6System3Net7Sockets6Socket7ReceiveEiP11Il2CppArrayiiNS4_11SocketFlagsEPi
to:FUNCTION_TABLE_ii
Nva:__ZN10TagManager8TransferI18StreamedBinaryReadILb0EEEEvRT_
q1i:_Collection_1_System_Collections_IList_get_IsReadOnly_m2202364665_gshared
zNc:__Z18Transfer_BlittableI9JSONWriteLb0E8BitFieldEvRK29SerializationCommandArgumentsR31RuntimeSerializationCommandInfo
yLg:_MemoryStream_set_Capacity_m1773624579
cZj:__ZNK15dense_hashtableINSt3__24pairIK10KeyWrapperINS1_IP11Il2CppClassjEEES4_EES6_N6il2cpp8metadata14ArrayClassHashEN14dense_hash_mapIS6_S4_SB_NS6_14EqualsComparerINSA_17ArrayClassCompareEEENS0_9allocatorIS8_EEE9SelectKeyESF_SH_E10test_emptyEj
iNf:_MethodBuilder_get_ReflectedType_m3038768129
wfc:__ZNSt3__26vectorIN9ShaderLab20SerializedSubProgram15StructParameterENS_9allocatorIS3_EEE8__appendEj
rb:invoke_diiii
Uuk:b47
lkj:_EventTrigger_set_initTime_m3128947762
ks:__ZL57__ManagedRegistrationHelperFunction_AnimationClipPlayablePv
Rpi:__Z95RuntimeInvoker_Void_t1185182177_RuntimeObject_RuntimeObject_SByte_t1669577662_SByte_t1669577662PFvvEPK10MethodInfoPvPS4_
Ecc:__Z24CreateDirectoryRecursiveRKN4core12basic_stringIcNS_20StringStorageDefaultIcEEEE
Iuk:b41
Khc:__ZN9ShaderLab20SerializedSubProgram8TransferI18StreamedBinaryReadILb0EEEEvRT_
eAf:_SslClientStream_get_HaveRemoteValidation2Callback_m2858953511
Fuk:b40
Cga:__ZN19ThreadSpecificValueIP14StackAllocatorE15ReinitializeTLSEPv
pQ:__ZN11AudioSource23VirtualRedirectTransferER17RemapPPtrTransfer
fge:__ZL54ContextMenu_t1295656858_CustomAttributesCacheGeneratorP21CustomAttributesCache
f4:__ZN13RuntimeStaticI21ScalableBufferManagerLb0EE13StaticDestroyEPv
gcd:__ZN2UI13CanvasManager9AddCanvasEPNS_6CanvasE
IZa:__ZN9Texture3D8TransferI19StreamedBinaryWriteILb0EEEEvRT_
WZb:__ZNK6Camera22CalculateRenderingPathEv
Juk:b42
UOc:__ZN9JSONWrite8TransferI5RectTIfEEEvRT_PKc17TransferMetaFlags
Wng:_Hashtable_TestPrime_m3839319309
eF:__ZN11UnityEngine9Animation37SetGenericRootTransformPropertyValuesERKNS0_30AnimatorGenericBindingConstantERKN7mecanim10ValueArrayER9Transformbb
MRb:__Z13ConvertMipmap14GraphicsFormatPKvS_Pviiii
hWa:__ZN28EnlightenRendererInformation8TransferI14SafeBinaryReadEEvRT_
RJ:__ZN9Scripting11UnityEngine2XR5Tango24MeshReconstructionServer9InitProxyEv
xlg:_PKCS12_get_IterationCount_m626423090
vtb:__ZL12InvokeMethodI17RemapPPtrTransferEvRK29SerializationCommandArgumentsR31RuntimeSerializationCommandInfo
Qbg:_RemoteCertificateValidationCallback_Invoke_m3086073466
BWg:_StringComparer_Compare_m991165676
k4c:_tt_sbit_decoder_load_image
zRf:_InternalEnumerator_1_MoveNext_m3299696349_AdjustorThunk
$Ja:__Z14IsHalfRTFormat19RenderTextureFormat
GUi:_List_1_System_Collections_ICollection_get_IsSynchronized_m1552759297_gshared
KZj:__ZN15dense_hashtableINSt3__24pairIK10KeyWrapperIP11Il2CppClassES4_EES5_N6il2cpp8metadata16SZArrayClassHashEN14dense_hash_mapIS5_S4_SA_NS5_14EqualsComparerINS9_19SZArrayClassCompareEEENS0_9allocatorIS7_EEE9SelectKeyESE_SG_EC2EjRKSA_RKSE_RKSI_
NEg:_Guid_ToString_m3279186591
Obi:_U3CStartU3Ec__Iterator0_Dispose_m261027331_gshared
WUi:_List_1_Find_m3485944732_gshared
LKc:__ZNSt3__24listIN10GUIManager12SortedScriptE11memory_poolIS2_EE6__sortI13OldSortScriptEENS_15__list_iteratorIS2_PvEESA_SA_jRT_
TDh:_EqualityComparer_1_System_Collections_IEqualityComparer_GetHashCode_m2588073987_gshared
i1i:_Collection_1_System_Collections_IList_Add_m3364892189_gshared
lPi:_List_1_AddEnumerable_m3500350831_gshared
XHj:__ZN24dense_hashtable_iteratorINSt3__24pairIK10KeyWrapperIPK11Il2CppClassEPKcEES6_N6il2cpp5utils11PointerHashIS3_EEN14dense_hash_mapIS6_S9_SE_NS6_14EqualsComparerINS0_8equal_toIS5_EEEENS0_9allocatorISA_EEE9SelectKeyESJ_SL_E30advance_past_empty_and_deletedEv
Pze:__ZL108U3CStartU3Ec__Iterator0_t1249263001_CustomAttributesCacheGenerator_U3CStartU3Ec__Iterator0_Reset_m3373856720P21CustomAttributesCache
psf:_PrivateKeyInfo_get_PrivateKey_m3647771102
_sb:__Z18Transfer_BlittableI17RemapPPtrTransferLb1E8BitFieldEvRK29SerializationCommandArgumentsR31RuntimeSerializationCommandInfo
h$j:__ZN6il2cpp6icalls8mscorlib6System9ThreadingL11ThreadStartEPv
qfa:__ZN15DirectorManager12OnSampleTimeEv
SMd:__ZN28GenericInterfaceFuncInvoker1IP12Il2CppObjectS1_E6InvokeEPK10MethodInfoS1_S1_
pId:_TypeBuilder_check_not_created_m3652863637
jxd:_StandaloneInputModule_UpdateModule_m450861257
qoe:__ZL117SupportedRenderingFeatures_t353898663_CustomAttributesCacheGenerator_U3CreflectionProbeSupportFlagsU3Ek__BackingFieldP21CustomAttributesCache
I2h:_ReadOnlyCollection_1_System_Collections_IList_Insert_m2928873627_gshared
KP:__ZNK4PPtrI10AudioMixerEptEv
jDh:_EqualityComparer_1__cctor_m314889309_gshared
bta:__ZN12CachedReader10Align4ReadEv
yAh:_DefaultComparer_GetHashCode_m556015105_gshared
_5i:_X501__cctor_m2428304915
tvj:_Canvas_get_renderOrder_m1489855841
eje:__ZL66DispatchEventQueueEvents_t929081739_CustomAttributesCacheGeneratorP21CustomAttributesCache
Cei:__Z50RuntimeInvoker_Void_t1185182177_Single_t1397266774PFvvEPK10MethodInfoPvPS4_
Mxe:__ZL77ExecuteEvents_t3484638744_CustomAttributesCacheGenerator_U3CU3Ef__mgU24cache1P21CustomAttributesCache
elg:_X501_ToString_m4186311521
Cfj:_Event_ToString_m1688862299
Noi:__Z70RuntimeInvoker_Boolean_t97287965_RuntimeObject_IPAddressU26_t589322682PFvvEPK10MethodInfoPvPS4_
Mti:__Z105RuntimeInvoker_Void_t1185182177_Vector2U26_t2376273893_RuntimeObject_RuntimeObject_Vector2U26_t2376273893PFvvEPK10MethodInfoPvPS4_
Mta:__ZNK9Behaviour22GetTypeVirtualInternalEv
nXb:__ZN13RendererScene17BeginCameraRenderEv
gAg:_CCGregorianCalendar_month_from_fixed_m4268992710
heh:_Array_compare_TisUICharInfo_t75501106_m1310495481_gshared
Suc:__ZNK28MonoBehaviourPropertyBinding12SetPPtrValueERKN11UnityEngine9Animation10BoundCurveEi
Q7b:__Z21GetScriptingArraySize17ScriptingArrayPtr
jXc:__ZN20TextRenderingPrivate8FontImpl8TransferI14SafeBinaryReadEEvRT_
ula:__ZL51__ManagedRegistrationHelperFunction_HideInInspectorPv
kse:__ZL82AnimatorTransitionInfo_t2534804151_CustomAttributesCacheGenerator_m_NormalizedTimeP21CustomAttributesCache
G_d:__ZL55ISymbolWriter_t780458634_CustomAttributesCacheGeneratorP21CustomAttributesCache
fLc:__ZN11IMGUIModule21ClearDeveloperConsoleEv
hoe:__ZL81MessageTypeSubscribers_t1684935770_CustomAttributesCacheGenerator_m_messageTypeIdP21CustomAttributesCache
X0h:_ReadOnlyCollection_1_System_Collections_IList_Clear_m4022532825_gshared
ikh:_Encoding_get_ASCII_m3595602635
H3e:_Ray_get_direction_m761601601_AdjustorThunk
fjb:__ZN9GfxDevice17ImmediateTexCoordEifff
I8c:_ft_black_new
eLf:_DerivedType_GetCustomAttributes_m3536779709
zpj:__ZL24UnresolvedVirtualCall_72P12Il2CppObjectPK10MethodInfo
d8d:__ZL93Interlocked_t2273387594_CustomAttributesCacheGenerator_Interlocked_CompareExchange_m388540288P21CustomAttributesCache
xId:_MethodBase_get_IsAbstract_m428833029
uqg:_AssemblyLoadEventHandler__ctor_m896828968
Nr:__ZN13ConstraintJob23ConstraintComponentDataC2ERK18PositionConstraint
CDb:__ZNSt3__26vectorINS_4pairI17ScriptingClassPtrPKN5Unity4TypeEEENS_9allocatorIS7_EEE21__push_back_slow_pathIS7_EEvOT_
guk:_emscripten_glUniform4f__wrapper
IOi:_List_1_Reverse_m4144036584_gshared
EJh:_Enumerator_MoveNext_m2595190390_AdjustorThunk
Ffh:_Array_InternalArray__IndexOf_TisColor32_t2600501292_m3783551884_gshared
Z$b:__ZNK6Camera16GetProjectionFarEv
gr:__Z24InverseTransformRotationRK23TransformAccessReadOnlyRKN4math7_float4E
UTc:__ZN11UnityEngine9Analytics16StartupTimeEvent23SetSplashScreenTimeInfoEyyy
_6i:_X509Chain_Build_m2469702749
HRg:_Evidence_get_IsSynchronized_m3446368195
sQ:__ZN11AudioSource6UpdateEv
God:__Z31GetPerformanceReportingSettingsv
eOa:__ZNK14PlayableOutput11DerivesFromE17ScriptingClassPtr
jQa:__ZN7Texture34CreateFileTextureUploadInstructionE18TextureUploadFlagsj
qTd:__ZN25GenericVirtActionInvoker06InvokeEPK10MethodInfoP12Il2CppObject
tVd:__ZL64SerializableAttribute_t1992588303_CustomAttributesCacheGeneratorP21CustomAttributesCache
yfb:__ZN25SingleBlockMemoryFileDataC2E10MemLabelIdPvjb
Cue:__ZL59GUISkin_t1244372282_CustomAttributesCacheGenerator_m_toggleP21CustomAttributesCache
Dyc:__ZN19LowerResBlitTexture13ApplySettingsEv
gG:__ZN8Animator8TransferI14SafeBinaryReadEEvRT_
uZj:__ZN15dense_hashtableINSt3__24pairIK10KeyWrapperIP11Il2CppClassES4_EES5_N6il2cpp8metadata16SZArrayClassHashEN14dense_hash_mapIS5_S4_SA_NS5_14EqualsComparerINS9_19SZArrayClassCompareEEENS0_9allocatorIS7_EEE9SelectKeyESE_SG_E4swapERSJ_
bwa:__ZN17GlobalGameManager23VirtualRedirectTransferER18StreamedBinaryReadILb0EE
kMg:_NullStream_SetLength_m1485742029
saa:__Z23AsyncReadForceCloseFileRKN4core12basic_stringIcNS_20StringStorageDefaultIcEEEE
poe:__ZL120RenderPipelineManager_t4036911426_CustomAttributesCacheGenerator_RenderPipelineManager_DoRenderLoop_Internal_m3799666479P21CustomAttributesCache
gW:__ZN16BaseVideoTexture19UpdateVideoTexturesEv
yLd:_MonoField_GetValue_m3124733531
wdh:_Array_InternalArray__IEnumerable_GetEnumerator_TisOrderBlock_t1585977831_m2414028303_gshared
v7a:__ZNK16LightmapSettings23HasLightProbeTetrahedraEv
NWa:__ZN6Sprite23VirtualRedirectTransferER19StreamedBinaryWriteILb0EE
A9g:_Enum_GetHashCode_m2848082716
Rlc:__ZN2UI13RectTransform12SetAnchorMaxERK8Vector2f
oZj:__ZN14dense_hash_mapI10KeyWrapperIP11Il2CppClassES2_N6il2cpp8metadata16SZArrayClassHashENS3_14EqualsComparerINS5_19SZArrayClassCompareEEENSt3__29allocatorINSA_4pairIKS3_S2_EEEEE13set_empty_keyERSD_
Ytd:_EventTrigger_Execute_m2453060771
X3h:_Comparison_1_Invoke_m517083441_gshared
adh:_Array_InternalArray__IEnumerable_GetEnumerator_TisIntPtr_t_m2620447453_gshared
SOj:__ZNK15dense_hashtableINSt3__24pairIK10KeyWrapperINS1_IPK9FieldInfoP11Il2CppClassEEEjEES9_17ReflectionMapHashIS8_EN14dense_hash_mapIS9_jSD_NS9_14EqualsComparerINS0_8equal_toIS8_EEEENS0_9allocatorISB_EEE9SelectKeyESI_SK_E5beginEv
Q9j:__ZN6il2cpp2os6Thread15CurrentThreadIdEv
L_h:_ReadOnlyCollection_1_System_Collections_IList_get_IsFixedSize_m3402868227_gshared
fE:__ZN15SerializeTraitsIN4math4trsXEE8TransferI8BlobSizeEEvRS1_RT_
tPb:__ZN14DataBufferGLES11CopySubDataEPKS_jjj
ee:_emscripten_glVertexPointer
eNj:__ZN6il2cpp2vm7Runtime47RaiseExecutionEngineExceptionIfMethodIsNotFoundEPK10MethodInfo
K9i:_PatternCompiler_GetMachineFactory_m3758869886
n3b:__Z17GetFrustumPortionPK8Vector3fffPS_
ire:__ZL105RectTransform_t3704657025_CustomAttributesCacheGenerator_RectTransform_INTERNAL_get_anchorMin_m1735215721P21CustomAttributesCache
g2j:__ZN15dense_hashtableINSt3__24pairIK10KeyWrapperIP14Il2CppIUnknownEjEES5_N6il2cpp5utils11PointerHashIS3_EEN14dense_hash_mapIS5_jSB_NS5_14EqualsComparerINS0_8equal_toIS4_EEEENS0_9allocatorIS7_EEE9SelectKeyESG_SI_E14squash_deletedEv
nud:_EventTrigger_OnCancel_m585099428
X6d:__ZL107CodeAccessPermission_t2681295399_CustomAttributesCacheGenerator_CodeAccessPermission_GetHashCode_m880096813P21CustomAttributesCache
Sgj:_GUILayoutEntry_ApplyOptions_m1741659338
ZGe:_MethodDictionary_set_MethodKeys_m1451825752
hOe:_RuntimeTypeHandle_Equals_m2857439487_AdjustorThunk
cbe:__ZL69GC_t959872083_CustomAttributesCacheGenerator_GC_KeepAlive_m1400443516P21CustomAttributesCache
Chb:__ZNK9GfxDevice27GetPlatformAdjustedViewportEv
xna:__ZN9Scripting11UnityEngine9Rendering18GraphicsDeviceType9InitProxyEv
TZh:_ReadOnlyCollection_1_System_Collections_Generic_IListU3CTU3E_set_Item_m88350439_gshared
byg:_Hashtable_get_IsSynchronized_m1426775249
c9:__ZNSt3__26vectorINS_4pairIiiEE13stl_allocatorIS2_L18MemLabelIdentifier38ELi16EEE6insertENS_11__wrap_iterIPKS2_EEOS2_
bfa:__ZNSt3__26__treeINS_12__value_typeIPvsEENS_19__map_value_compareIS2_S3_NS_4lessIS2_EELb1EEE13stl_allocatorIS3_L18MemLabelIdentifier86ELi16EEE25__emplace_unique_key_argsIS2_JNS_4pairIS2_sEEEEENSD_INS_15__tree_iteratorIS3_PNS_11__tree_nodeIS3_S2_EEiEEbEERKT_DpOT0_
Ckj:_StandardEventPayload_IsRequiredDataValid_m361738930
L5h:_Func_3_Invoke_m1194147890_gshared
scj:_Reference_Compile_m4195878675
Otj:_InputBuffer_remove_onCommandSent_m3139499669
q0h:_ReadOnlyCollection_1_System_Collections_ICollection_CopyTo_m2672196987_gshared
cAc:__ZN16StreamedResource8TransferI24GenerateTypeTreeTransferEEvRT_
k5e:_RectTransform_get_anchorMin_m2928307238
iug:_ArrayList__ctor_m3828927650
iDa:__ZN10Matrix3x3f15InvertTransposeEv
chj:_GUILayoutGroup_SetHorizontal_m996475327
JSg:_SecurityException_get_Demanded_m2500043391
Vgj:_GUILayoutEntry__cctor_m663865902
sig:_CaptureCollection_GetEnumerator_m732412500
xbf:__ZN23GenericVirtFuncInvoker2IDsiDsE6InvokeEPK10MethodInfoP12Il2CppObjectiDs
KWb:__Z11IsBatchmodev
hIh:_Enumerator_System_Collections_IEnumerator_get_Current_m713684915_gshared
Xrb:__Z29Transfer_Blittable_ArrayFieldI14SafeBinaryRead8Vector3fEvRT_R9ArrayInfoRK23StaticTransferFieldInfo
hJd:_MemberInfo__ctor_m3258770133
W4d:__ZL62IFormatterConverter_t2171992254_CustomAttributesCacheGeneratorP21CustomAttributesCache
R9d:__ZL78Convert_t2465617642_CustomAttributesCacheGenerator_Convert_ToSByte_m4075629912P21CustomAttributesCache
QIe:_SoapTypeAttribute_get_XmlTypeNamespace_m4211398148
_Xc:__ZN20TextRenderingPrivate8FontImpl18ResetCachedTextureEv
ILj:__ZN6il2cpp6icalls8mscorlib6SystemL16GetFieldFromTypeINS_5utils10functional6FilterINSt3__212basic_stringIcNS7_11char_traitsIcEENS7_9allocatorIcEEEENS4_13VmStringUtils21CaseSensitiveComparerEEEEEP21Il2CppReflectionFieldP11Il2CppClassSK_iRKT_
leg:_X509KeyUsageExtension_Decode_m3150759625
rfk:_GC_print_finalization_stats
E4f:_KeyCollection_System_Collections_ICollection_get_IsSynchronized_m2596089789_gshared
byb:__Z35Transfer_Blittable_SingleValueFieldI19StreamedBinaryWriteILb0EE8Vector3fEvRT_R17GeneralMonoObjectRK23StaticTransferFieldInfo
vua:__ZN11NamedObject15ThreadedCleanupEv
Jhj:_GUITargetAttribute_GetGUITargetAttrValue_m2954410352
umc:__Z53Register_UnityEngine_Behaviour_get_isActiveAndEnabledv
lqg:_SimpleEnumerator_get_Current_m72361444
Iq:__ZNSt3__26vectorIN4core12basic_stringIcNS1_20StringStorageDefaultIcEEEENS_9allocatorIS5_EEE8__appendEj
l6f:__ZN21InterfaceFuncInvoker2I27DictionaryEntry_t3123975638P12Il2CppObjectbE6InvokeEjP11Il2CppClassS2_S2_b
rW:__ZN13ProduceHelperI10SampleClipLb0EE7ProduceE10MemLabelId18ObjectCreationMode
H2a:__ZN26PlayerSettingsSplashScreen8TransferI17RemapPPtrTransferEEvRT_
WPh:_ASN1_set_Value_m2803403806
PLj:__ZN6il2cpp6icalls8mscorlib6SystemL17CollectTypeFieldsINS_5utils10functional10TrueFilterEEEvP11Il2CppClassPKS7_iRNSt3__26vectorIP9FieldInfoNSB_9allocatorISE_EEEERKT_
$ei:__Z52RuntimeInvoker_Int16_t2552820387_Decimal_t2948259380PFvvEPK10MethodInfoPvPS4_
pnc:__Z13GetTagManagerv
Png:_Hashtable__ctor_m1815022027
x6h:__ZN28GenericInterfaceFuncInvoker1Ib39CustomAttributeNamedArgument_t287865710E6InvokeEPK10MethodInfoP12Il2CppObjectS0_
dnh:_UTF8Encoding_GetChars_m1433288684
dF:__ZN11UnityEngine9Animation37HasGenericRootTransformPropertyValuesERKNS0_30AnimatorGenericBindingConstantEb
RX:__ZN11UnityEngine15CloudWebService17CloudJobSchedulerD0Ev
jdi:__Z50RuntimeInvoker_Boolean_t97287965_SByte_t1669577662PFvvEPK10MethodInfoPvPS4_
_5a:__ZN18LoadSceneOperation7PerformEv
Oyi:__Z105RuntimeInvoker_Int32_t2950945753_RuntimeObject_OrderBlock_t1585977831_Int32_t2950945753_Int32_t2950945753PFvvEPK10MethodInfoPvPS4_
nTc:__ZN11UnityEngine9Analytics26PerformanceReportingConfig13ConfigChangedERKN4core12basic_stringIcNS2_20StringStorageDefaultIcEEEER8JSONRead
ute:__ZL93AudioSource_t3935305588_CustomAttributesCacheGenerator_AudioSource_Play_m3389845180____delay0P21CustomAttributesCache
yei:__Z96RuntimeInvoker_Boolean_t97287965_RuntimeObject_RuntimeObject_Int32_t2950945753_Int32_t2950945753PFvvEPK10MethodInfoPvPS4_
Keh:_Array_IndexOf_TisUICharInfo_t75501106_m3198896198_gshared
jbd:__ZNK2UI11CanvasGroup22GetTypeVirtualInternalEv
fxf:_Context_get_Current_m2853615040
MBg:_CultureInfo_construct_internal_locale_from_lcid_m2668301444
wPh:_PrimeGeneratorBase__ctor_m2973488305
VKa:__ZNK15PlayableMethods20CanInvokePrepareDataEv
WKc:__Z21CleanupGlobalGUIStatev
Srh:_Type_IsContextfulImpl_m3693603908
vXd:__ZL81RuntimeArray_CustomAttributesCacheGenerator_Array_GetValue_m120423883____indices0P21CustomAttributesCache
$Ih:_Enumerator_VerifyState_m2873941769_gshared
sBb:__Z18Transfer_BlittableI18StreamedBinaryReadILb0EELb1EN4math12int3_storageEEvRK29SerializationCommandArgumentsR31RuntimeSerializationCommandInfo
ici:__Z56RuntimeInvoker_RuntimeObject_RuntimeObject_RuntimeObjectPFvvEPK10MethodInfoPvPS4_
aUb:__ZN22VertexDeclarationCache5ClearEv
OPe:_CspParameters__ctor_m3852972821
cog:_AppDomainInitializer_EndInvoke_m2095010821
Uac:__ZN17PersistentManager12SetPathRemapERKN4core12basic_stringIcNS0_20StringStorageDefaultIcEEEES6_
Ny:__Z27ProcessRootMotionEmptyMixerP35AnimationPlayableEvaluationConstantP32AnimationPlayableEvaluationInputP33AnimationPlayableEvaluationOutput
U4b:__ZN6Camera24PrepareCullingParametersERK23CameraCullingParameters13RenderingPathR11CullResults
d5b:__Z20CullReflectionProbesR8JobFenceRK22SceneCullingParametersRK23ReflectionProbesContextPKjjPjS9_
yBc:__Z12SetIUISystemP9IUISystem
j6a:__ZN19RuntimeSceneManager22EndIntegrateMainThreadEP10UnitySceneNS_11LoadingModeE
mIi:_Array_Sort_TisUICharInfo_t75501106_m3474449559_gshared
okg:_Buffer_BlockCopy_m2884209081
IJb:__ZNSt3__218__insertion_sort_3IRN10vector_mapIiN17InstancingBatcher12PropertyTypeENS_4lessIiEE13stl_allocatorINS_4pairIiS3_EEL18MemLabelIdentifier1ELi16EEE13value_compareEPS8_EEvT0_SF_T_
Pab:__ZN17WeakPtrSharedDataD0Ev
Haj:_QuickSearch_GetShiftDistance_m2542665852
rNb:__ZN13GfxDeviceGLES15OnDeviceCreatedEb
u$a:__Z32TransferEnumWithNameForceIntSizeI14SafeBinaryRead11IndexFormatEvRT_RT0_PKc17TransferMetaFlags
OKi:_Array_InternalArray__get_Item_TisCustomAttributeTypedArgument_t2723150157_m2639399822_gshared
iOh:_BigInteger_GenerateRandom_m3141592944
Tvb:__Z29Transfer_Blittable_ArrayFieldI24GenerateTypeTreeTransfer4AABBEvRT_R9ArrayInfoRK23StaticTransferFieldInfo
IHc:__ZN9Scripting11UnityEngine12StylePainter12CleanupProxyEv
dkg:_Interval_Contains_m1454846757
wEd:_Graphic_CacheCanvas_m1120385152
oI:__ZN26AnimatorOverrideController15InitializeClassEv
C_f:_InternalEnumerator_1_MoveNext_m1262906009_gshared
rDd:_U3CDelayedDestroyDropdownListU3Ec__Iterator0_Dispose_m100123149
MHc:__ZN9Scripting11UnityEngine15ScrollViewState12CleanupProxyEv
acf:_InputField_set_contentType_m1277230266
nmk:_emscripten_GetProcAddress
bLh:_List_1_System_Collections_Generic_IEnumerableU3CTU3E_GetEnumerator_m944444416_gshared
Ca:invoke_fiiifii
Ink:_modff
gIa:__ZN20SphericalHarmonicsL219AddDirectionalLightERKN4math7_float3ERKNS0_7_float4E
whg:_X509ChainElementCollection_get_IsSynchronized_m3980338507
hfa:__Z26ScheduleJobForEachInternalR8JobFencePFvPvjES1_iPFvS1_E11JobPriority
lxe:__ZL67RemoteSettings_t1718627291_CustomAttributesCacheGenerator_CompletedP21CustomAttributesCache
gWb:__ZZ23InitPlayerLoopCallbacksvEN41PostLateUpdateProfilerEndFrameRegistrator7ForwardEv
Vjc:__ZN9Scripting18RaiseMonoExceptionEPKcz
_yc:__ZN10GameObject17WillHandleMessageERK17MessageIdentifier
xRg:_StrongNamePublicKeyBlob_Equals_m3655422942
uSg:_SecurityContext__ctor_m1730177197
ywj:_RectTransformUtility_GetTransposed_m3952754222
dxc:__ZN9ShaderLab16FastPropertyName15InitBy28BitHashEj
XBj:__ZN6il2cpp2vm5Class7GetNameEP11Il2CppClass
lOi:_List_1_System_Collections_IList_set_Item_m4182383657_gshared
DCh:_EqualityComparer_1_System_Collections_IEqualityComparer_GetHashCode_m3723747923_gshared
oHi:_Array_Resize_TisOrderBlock_t1585977831_m3449774576_gshared
m0e:_MonoBehaviour_StopCoroutineManaged_m3194025768
Ghi:__Z96RuntimeInvoker_Void_t1185182177_Int32_t2950945753_Single_t1397266774_RuntimeObject_RuntimeObjectPFvvEPK10MethodInfoPvPS4_
yYh:_ReadOnlyCollection_1_CopyTo_m3722791265_gshared
r1f:_Enumerator_System_Collections_IDictionaryEnumerator_get_Key_m195047678_AdjustorThunk
eCg:_DateTimeFormatInfo_get_RawAbbreviatedMonthNames_m2395953416
svj:_Canvas_get_pixelPerfect_m333060872
G$a:__ZN17PackedFloatVector12UnpackFloatsEPfiiii
WId:_TypeBuilder_ToString_m3497908325
WB:__ZN17AnimationPlayable28UpdateInternalStateRecursiveILi3ELb0EEEvPK35AnimationPlayableEvaluationConstant
aNb:__ZN13GfxDeviceGLES21DestroyComputeProgramER12ObjectHandleI18ComputeProgram_TagPvE
ach:_Enumerable_Any_TisRuntimeObject_m3853239423_gshared
eaj:_PatternCompiler_EmitIfDefined_m2075050865
V5g:_Decimal_System_IConvertible_ToInt64_m1446427516_AdjustorThunk
Fca:__ZN17UniqueIDGenerator16DestroyPureIndexEj
dFf:_NotImplementedException__ctor_m3095902440
ssj:__ZL25UnresolvedVirtualCall_227P12Il2CppObjectPK10MethodInfo
I8:__ZL21AppendNestedClassName17ScriptingClassPtrRN4core17string_with_labelILi1EEE
dfc:__ZN14SafeBinaryRead21TransferSTLStyleArrayINSt3__26vectorIN9ShaderLab20SerializedSubProgram12UAVParameterENS1_9allocatorIS5_EEEEEEvRT_17TransferMetaFlags
MZj:__ZN6il2cpp8metadata13ArrayMetadata20SetupArrayInterfacesEP11Il2CppClassRKNS_2os12FastAutoLockE
nuj:_FontTextureRebuildCallback_Invoke_m3604797831
yNb:__ZN13GfxDeviceGLES32InitStereoGlobalsBuffersPlatformEiijPKv
w1:__ZNK13BaseAllocator10IsAssignedEv
OY:__ZN24TextDOMTransferWriteBaseI9JSONWriteE12PushMetaFlagEi
Wsj:__ZL25UnresolvedVirtualCall_257P12Il2CppObjecti19Vector2_t2156229523PK10MethodInfo
OPc:__Z18Transfer_BlittableI8JSONReadLb1E10ColorRGBAfEvRK29SerializationCommandArgumentsR31RuntimeSerializationCommandInfo
qia:__ZN6prcoreL26RemapGenericIntegerToFloatI17TexFormatARGB888815TexFormatRFloatEEvPKNS_9InnerInfoE
m1:__ZN5Mutex6UnlockEv
QKj:__ZN6il2cpp2vm10ThreadPool10InitializeEv
HRi:_List_1__ctor_m808270210_gshared
fVj:__ZN6il2cpp2vm17TypeNameParseInfoD2Ev
ZFh:_PrimeHelper_ToPrime_m3704362632_gshared
fN:__ZN4FMOD7Channel7setModeEj
D5g:_Decimal_System_IConvertible_ToType_m2919262279
T9e:_Vector2_get_right_m1027081661
GUa:__ZNK8Renderer8GetLayerEv
vMg:_Stream_Close_m771352034
m$f:__ZN21InterfaceFuncInvoker1Ii19TimeSpan_t881159249E6InvokeEjP11Il2CppClassP12Il2CppObjectS0_
DHa:__ZN12FlareManager11DeleteFlareEi
TA:__ZN7mecanim9animation22DestroyBlendTreeOutputEPNS0_15BlendTreeOutputERNS_6memory9AllocatorE
g$b:__ZNK6Camera20GetReplacementShaderEv
EUi:_List_1_System_Collections_IList_Remove_m4226673807_gshared
Kjk:__ZNSt3__26__treeINS_12__value_typeINS_12basic_stringIcNS_11char_traitsIcEENS_9allocatorIcEEEEPFvvEEENS_19__map_value_compareIS7_SA_NS_4lessIS7_EELb1EEENS5_ISA_EEE4findIS7_EENS_15__tree_iteratorISA_PNS_11__tree_nodeISA_PvEEiEERKT_
gPa:__ZL23stbir__calculate_memoryP11stbir__info
mQj:__ZNK15dense_hashtableINSt3__24pairIK10KeyWrapperINS1_IPK10MethodInfoP11Il2CppClassEEEjEES9_17ReflectionMapHashIS8_EN14dense_hash_mapIS9_jSD_NS9_14EqualsComparerINS0_8equal_toIS8_EEEENS0_9allocatorISB_EEE9SelectKeyESI_SK_E12test_deletedERK24dense_hashtable_iteratorISB_S9_SD_SM_SI_SK_E
ljg:_Interpreter_Close_m126356671
y$i:_Collection_1_InsertItem_m168969280_gshared
Bcd:__ZNSt3__227__insertion_sort_incompleteIRPFbPN2UI6CanvasES3_EPS3_EEbT0_S8_T_
AVc:__ZN9Scripting11UnityEngine14SphereCollider12CleanupProxyEv
Vtj:__ZN25GenericVirtActionInvoker1IP8String_tE6InvokeEPK10MethodInfoP12Il2CppObjectS1_
a_a:__ZNK6Camera18GetRenderRectangleEv
EGj:__ZN6il2cpp5utils13dynamic_arrayIPK10Il2CppTypeLj4EE7reserveEj
p5j:__ZN6il2cpp8metadata15GenericMetadata7InflateEPK19Il2CppGenericMethodPK20Il2CppGenericContext
$Sc:__ZN9Scripting11UnityEngine22ParticleCollisionEvent9InitProxyEv
sYa:__ZN13sorted_vectorIN4core12basic_stringIcNS0_20StringStorageDefaultIcEEEENSt3__24lessIS4_EE13stl_allocatorIS4_L18MemLabelIdentifier81ELi16EEE4findIS4_EENS5_11__wrap_iterIPS4_EERKT_
Xxc:__Z13RegisterClassI30RuntimeInitializeOnLoadManagerEvPKc
Yaj:_Parser_HandleExplicitNumericGroups_m1412234891
mLi:_Array_InternalArray__get_Item_TisRaycastHit2D_t2279581989_m2440275162_gshared
sJf:_CustomAttributeNamedArgument_Equals_m1414002036
tQc:__ZL26Transfer_SimpleNativeClassI8JSONRead10RectOffsetLb1EEvRK29SerializationCommandArgumentsR31RuntimeSerializationCommandInfo
Udd:__Z44CanvasRenderer_CUSTOM_INTERNAL_CALL_SetColorP12Il2CppObjectRK10ColorRGBAf
cKh:_List_1__ctor_m3376109328_gshared
YLf:_FieldBuilder_GetFieldOffset_m725157755
qDa:__Z26TransformVerticesInnerLoopILb1ELb1ELb1EEvPhRK10Matrix4x4fRK10Matrix3x3fjPKhiS8_ii25GfxTransformVerticesFlagsj
A8f:_Enumerator_MoveNext_m3045873697_AdjustorThunk
wHh:_Enumerator_System_Collections_IEnumerator_Reset_m959124362_AdjustorThunk
n_b:__ZNK20DynamicPropertySheet18FindQueuedPropertyEN9ShaderLab16FastPropertyNameEN19ShaderPropertySheet12PropertyTypeE
m9g:_Enum_ToObject_m121831801
ape:__ZL57AsyncOperation_t1445031843_CustomAttributesCacheGeneratorP21CustomAttributesCache
MGd:_Image_get_hasBorder_m3423344180
Zbe:__ZL60TypeLoadException_t3707937253_CustomAttributesCacheGeneratorP21CustomAttributesCache
kid:__Z48UnityAnalyticsHandler_CUSTOM_SendCustomEventNameP12Il2CppObjectP12Il2CppString
xta:__ZN6ObjectD2Ev
Xpc:__ZN9Transform16SetLocalRotationERK11Quaternionf
ama:__ZL49__ManagedRegistrationHelperFunction_CommandBufferPv
gXb:__ZN13RenderManager37RenderCamerasWithScriptableRenderLoopEi
VNe:_RuntimeMethodHandle__ctor_m2229201676
Eph:_TimeSpan__ctor_m3689759052
NVd:__ZL49UInt16_t2177724958_CustomAttributesCacheGeneratorP21CustomAttributesCache
DMb:__ZN13GfxDeviceGLES22ReleaseThreadOwnershipEv
VDi:__Z37RuntimeInvoker_Enumerator_t3123848928PFvvEPK10MethodInfoPvPS4_
W5j:__ZN6il2cpp2os19ReleaseSocketHandleEj
Roh:_ThreadStart__ctor_m3250019360
wV:__ZN11AudioModule16GetDSPSampleRateEv
lbk:__ZN15dense_hashtableINSt3__24pairIK10KeyWrapperIPK19Il2CppGenericMethodEP10MethodInfoEES6_N6il2cpp8metadata23Il2CppGenericMethodHashEN14dense_hash_mapIS6_S9_SD_NS6_14EqualsComparerINSC_26Il2CppGenericMethodCompareEEENS0_9allocatorISA_EEE9SelectKeyESH_SJ_E5clearEv
aAc:__ZN16PropertyAccessor5ClearEv
$Td:_AsyncResult_get_AsyncDelegate_m3808237550
QGd:_Image_OnBeforeSerialize_m3415525254
Abf:_InputField_get_characterValidation_m4196664041
Wqh:_Type_get_Attributes_m58528356
IYe:_SpriteBone_t303320096_marshal_pinvoke
q7h:__ZN23GenericVirtFuncInvoker1Ib19Vector2_t2156229523E6InvokeEPK10MethodInfoP12Il2CppObjectS0_
A$b:__ZN6Camera28DefaultPerformRenderFunctionD0Ev
zkg:_Array_GetUpperBound_m4018715963
H7i:_X509Store__ctor_m2736551756
lsc:__Z13RegisterClassI9TextAssetEvPKc
q7j:__ZN6il2cpp2os5posix15PosixWaitObjectC2ENS2_4TypeE
lZb:__ZN6Camera21PostMultiCustomRenderENS_10RenderFlagEb
UEi:_Array_InternalArray__Insert_TisMonoResource_t4103430009_m1997865927_gshared
tPg:_SHA512Managed_HashFinal_m2173184560
CSb:__ZN12_GLOBAL__N_112UploadImagesEP7ApiGLESjji14GraphicsFormatPKhjS2_iiii16TextureUsageModePh
qJb:__ZN23ShaderVariantCollection13WarmupShadersEv
CEa:__ZNK4PPtrI8MaterialEptEv
rtc:__ZN13ProduceHelperI9TransformLb0EE7ProduceE10MemLabelId18ObjectCreationMode
f3i:_SslStreamBase_Finalize_m3260913635
p8:__Z25GetCommonScriptingClassesv
T6a:__Z27scripting_gc_collect_unsafei
Rrf:_MD5SHA1_HashFinal_m4115488658
BV:__ZN11AudioModule20SuspendVideoTexturesEv
mgh:_Array_InternalArray__ICollection_Add_TisKeyValuePair_2_t71524366_m3468275433_gshared
Vad:__ZN9Scripting11UnityEngine9CSSLayout6Native9InitProxyEv
GU:__Z59Register_UnityEngine_AudioExtensionManager_GetAudioListenerv
R_d:__ZL78Calendar_t1661121569_CustomAttributesCacheGenerator_Calendar_Clone_m1356182658P21CustomAttributesCache
jvb:__Z26Transfer_UnityEngineObjectI24GenerateTypeTreeTransferLb0EEvRK29SerializationCommandArgumentsR31RuntimeSerializationCommandInfo
M$g:_Convert_ToDouble_m278900635
e1c:_UNITY_FT_GlyphLoader_CheckPoints
nWe:_DebugLogHandler_LogException_m302830419
wdf:_InputField_LineDownCharacterPosition_m2798128425
XFh:_PrimeHelper_TestPrime_m2318568626_gshared
WZd:__ZL63KeyNotFoundException_t2292407383_CustomAttributesCacheGeneratorP21CustomAttributesCache
nJc:__ZN8GUIState8EndOnGUIEv
LHa:__ZN15SharedLightData7PrecalcEv
Wxa:__ZN10Matrix4x4fmLERKS_
fq:__ZN4PPtrI9TransformE8TransferI18StreamedBinaryReadILb0EEEEvRT_
Y3e:_Vector2__ctor_m3970636864
rxa:__ZN17TransformInternal12InitLocalTRSE15TransformAccessRKN4math7_float3ERKNS1_7_float4ES4_
Myb:__Z35Transfer_Blittable_FixedBufferFieldI18StreamedBinaryReadILb1EEsEvRK29SerializationCommandArgumentsR31RuntimeSerializationCommandInfo
wX:__ZNK4PPtrI4MeshEdeEv
Iyg:_Environment_InternalGetFolderPath_m468390978
FCe:__ZL156U3CClickRepeatU3Ec__Iterator0_t3442648935_CustomAttributesCacheGenerator_U3CClickRepeatU3Ec__Iterator0_System_Collections_IEnumerator_get_Current_m543328413P21CustomAttributesCache
Pbe:__ZL65StackOverflowException_t3629451388_CustomAttributesCacheGeneratorP21CustomAttributesCache
Q4f:_KeyCollection_System_Collections_IEnumerable_GetEnumerator_m2779004382_gshared
VQi:_List_1_System_Collections_Generic_ICollectionU3CTU3E_get_IsReadOnly_m2562366358_gshared
Urf:_RSASslSignatureFormatter__ctor_m1299283008
_kd:__ZN11UnityEngine15PlatformWrapper18GetOperatingSystemEv
cTg:_SecurityFrame_ToString_m339310712
ice:__ZL54ThreadStart_t1006689297_CustomAttributesCacheGeneratorP21CustomAttributesCache
_Yd:__ZL62ParamArrayAttribute_t3664765590_CustomAttributesCacheGeneratorP21CustomAttributesCache
XQc:__ZN8GUIStyle8TransferI8JSONReadEEvRT_
Chj:_GUIStyleState_t1397964415_marshal_pinvoke
Gdi:__Z49RuntimeInvoker_Char_t3634460470_Int16_t2552820387PFvvEPK10MethodInfoPvPS4_
EHi:_Array_Resize_TisVector4_t3319028937_m1507893064_gshared
IOg:_SHA1Managed_HashFinal_m2365675383
Mxd:_TouchInputModule_ProcessTouchPress_m3504077560
Pkj:_FieldWithTarget_get_typeString_m238478345
Amf:_Selectable_IsInteractable_m2611421038
K0c:_FT_MSB
YBh:_EqualityComparer_1_get_Default_m2572737998_gshared
qyk:_emscripten_glReadPixels__wrapper
oGh:_HashSet_1_Add_m1971460364_gshared
Yjk:__ZN6il2cpp6icalls8mscorlib4Mono8Security12Cryptography18KeyPairPersistence10_CanSecureEP12Il2CppString
xrf:_MD4__ctor_m919379109
Crj:__ZL25UnresolvedVirtualCall_183P12Il2CppObject20UIVertex_t4057497605PK10MethodInfo
rah:_Array_InternalArray__ICollection_Contains_TisParameterModifier_t1461694466_m1000453323_gshared
p1d:__ZL57FieldAttributes_t400321159_CustomAttributesCacheGeneratorP21CustomAttributesCache
gyh:_Dictionary_2_System_Collections_ICollection_CopyTo_m4047192178_gshared
BNj:__ZN6il2cpp2os4File11GetFileStatERKNSt3__212basic_stringIcNS2_11char_traitsIcEENS2_9allocatorIcEEEEPNS0_8FileStatEPi
WMg:_RIPEMD160Managed_Initialize_m2173168986
T3d:__ZL54IMessageCtrl_t317049502_CustomAttributesCacheGeneratorP21CustomAttributesCache
Mhd:__ZN14UnityAnalytics22HandleCustomEventLimitERN11UnityEngine9Analytics15UserCustomEventE
qtc:__ZN9TransformC2E10MemLabelId18ObjectCreationMode
gLb:__ZN13GfxDeviceGLES14SetRasterStateEPK17DeviceRasterState
fIf:_Assembly_ToString_m2053237013
Cpb:__Z30TransferField_LinearCollectionI14SafeBinaryReadEvRK29SerializationCommandArgumentsR31RuntimeSerializationCommandInfo
T_e:_Vector4_Equals_m1779210055
Bzg:_Exception_set_HResult_m3489164646
V2c:_otv_Coverage_get_count
uNd:_ParameterModifier_t1461694466_marshal_pinvoke_back
rsa:__ZN14SafeBinaryRead11EndTransferEv
uEh:_EqualityComparer_1__cctor_m2741186979_gshared
UQ:__ZN20SoundChannelInstance19set3DMinMaxDistanceEff
lee:__ZL70Uri_t100236324_CustomAttributesCacheGenerator_Uri_Unescape_m3373094076P21CustomAttributesCache
Sqj:__ZL25UnresolvedVirtualCall_145P12Il2CppObject19Vector2_t2156229523PK10MethodInfo
Mlf:_ScrollRect_set_verticalNormalizedPosition_m1452826170
c9g:_Enum_System_IConvertible_ToUInt16_m4216751959
Zri:__Z61RuntimeInvoker_Boolean_t97287965_PlayableHandleU26_t645981773PFvvEPK10MethodInfoPvPS4_
iTb:__ZN21UniformBufferTFMethod13MapBoneBufferEj
duj:_StringExtension_Anagram_m968226828
LEi:_Array_InternalArray__Insert_TisInt32_t2950945753_m4073217122_gshared
xNg:_RNGCryptoServiceProvider_RngClose_m3915778345
jYg:_SortedList_Remove_m2784369438
URa:__ZN4crnd12crn_unpacker10unpack_dxnEPPhjjj
S3g:_DateTime_get_Kind_m2154871796_AdjustorThunk
wEb:__ZN9TextAsset15ThreadedCleanupEv
x9i:_MatchCollection_get_SyncRoot_m1957585059
a9:__ZN14SerializedFileD2Ev
Saa:__Z21CompleteFenceInternalR8JobFence
tIc:__Z30Event_Get_Custom_PropModifiersP12Il2CppObject
qEi:__Z79RuntimeInvoker_RuntimeObject_OrderBlock_t1585977831_RuntimeObject_RuntimeObjectPFvvEPK10MethodInfoPvPS4_
uw:__ZN7mecanim9animation16CreateClipOutputEPKNS0_4ClipERNS_6memory9AllocatorE
tIe:_SoapAttribute_SetReflectionObject_m4109300849
bif:_RawImage_get_mainTexture_m2396337033
NNj:__ZN6il2cpp2vm10Reflection17GetAssemblyObjectEPK14Il2CppAssembly
Xih:_DecoderFallbackBuffer_Reset_m3069554060
GDb:__ZNSt3__218__stable_sort_moveIRN10vector_mapI17ScriptingClassPtrPKN5Unity4TypeENS_4lessIS2_EENS_9allocatorINS_4pairIS2_S6_EEEEE13value_compareENS_11__wrap_iterIPSB_EEEEvT0_SJ_T_NS_15iterator_traitsISJ_E15difference_typeEPNSM_10value_typeE
Udc:__ZN6Shader21AwakeFromLoadThreadedEv
Aha:__ZN6prcoreL17RemapGenericFloatI17TexFormatRGBFloat17TexFormatRGBAHalfEEvPKNS_9InnerInfoE
Nsh:_UInt16_System_IConvertible_ToSingle_m2654722405_AdjustorThunk
cpc:__Z58Register_UnityEngine_PlayerConnectionInternal_PollInternalv
H9e:_Vector2_GetHashCode_m3916089713_AdjustorThunk
Kqd:__ZN13RuntimeStaticINSt3__26vectorIjNS0_9allocatorIjEEEELb0EE16StaticInitializeEPv
m_:__ZN13UploadHandler10OnSentDataEj
llk:__ZN6il2cpp2os9SemaphoreC2Eii
Xpb:__ZNSt3__26vectorI8MonoPPtr13stl_allocatorIS1_L18MemLabelIdentifier1ELi16EEE8__appendEj
OZb:__ZN14qsort_internal30FindAndMovePivotToLastPositionIP17RODataReplacementi19ROSorterReplacementEEvT_S4_T0_T1_
tTb:__ZN15UniformTFMethod20IsBoneCountSupportedEi
VFe:__ZL76StandardEventPayload_t1629891255_CustomAttributesCacheGenerator_m_ParametersP21CustomAttributesCache
DZh:_ReadOnlyCollection_1_System_Collections_IList_get_Item_m3076053687_gshared
jvh:_UnauthorizedAccessException__ctor_m246605039
IMf:_MethodBuilder_get_DeclaringType_m2226312865
Dsk:dynCall_viidi
Uv:__ZN8Playable18OnApplicationPauseEb
V3f:_KeyCollection__ctor_m1356492051_gshared
Y5:__ZN24ScriptingMethodFiltering17FilterOnSignatureENS_18MethodSearchFilterE
Fhd:__ZNSt3__26__treeINS_12__value_typeIN4core12basic_stringIcNS2_20StringStorageDefaultIcEEEEN11UnityEngine9Analytics15UserCustomEvent11CustomValueEEENS_19__map_value_compareIS6_SB_NS_4lessIS6_EELb1EEE13stl_allocatorISB_L18MemLabelIdentifier6ELi16EEE7destroyEPNS_11__tree_nodeISB_PvEE
g0c:_cf2_arrstack_finalize
w6i:_X509Certificate_VerifySignature_m3538124832
zMg:_StreamAsyncResult_SetComplete_m1102187093
RKh:_List_1_Sort_m1293013666_gshared
Muc:__ZN13MonoBehaviour19HandleNotificationsEPviR11MessageData
V4e:_RectOffset_Init_m2028508611
Mlk:__ZN6il2cpp2os9EventImpl5ResetEv
pTi:_List_1_Sort_m933660666_gshared
gtf:_Alert__ctor_m3135936936
pHg:_Int64_System_IConvertible_ToInt32_m772105781
q3i:_TlsClientSettings__ctor_m3220697265
ORj:__ZNK15dense_hashtableINSt3__24pairIK10KeyWrapperINS1_IPK9EventInfoP11Il2CppClassEEEjEES9_17ReflectionMapHashIS8_EN14dense_hash_mapIS9_jSD_NS9_14EqualsComparerINS0_8equal_toIS8_EEEENS0_9allocatorISB_EEE9SelectKeyESI_SK_E23find_position_with_hashERSA_j
DTf:_InternalEnumerator_1__ctor_m1579105305_gshared
Gcj:_CaptureAssertion_set_CapturingGroup_m2003123956
xrd:__ZL45__ManagedRegistrationHelperFunction_SubsystemPv
Gti:__Z103RuntimeInvoker_Boolean_t97287965_RuntimeObject_Vector2_t2156229523_RuntimeObject_Vector2U26_t2376273893PFvvEPK10MethodInfoPvPS4_
wxh:_Dictionary_2_make_pair_m2250450206_gshared
Mkh:_ForwardingDecoder_GetChars_m4228908854
Gjg:_InterpreterFactory_get_GroupCount_m2226373271
kvk:b53
hvk:b50
ivk:b51
nvk:b56
ovk:b57
lvk:b54
mvk:b55
Gs:__ZL45__ManagedRegistrationHelperFunction_HumanBonePv
sMi:_List_1_System_Collections_IList_get_IsReadOnly_m3531293387_gshared
vL:__ZN4PPtrI15AudioMixerGroupE8TransferI18StreamedBinaryReadILb0EEEEvRT_
ZMh:_SimpleCollator_IsSafe_m310268646
Jdh:_Array_InternalArray__IEnumerable_GetEnumerator_TisWorkRequest_t1354518612_m2622205355_gshared
csg:_Byte_System_IConvertible_ToByte_m162267264_AdjustorThunk
Wlg:_X509Certificate_get_RawData_m2387471414
Swk:_glDetachShader__wrapper
sqg:_ArrayTypeMismatchException__ctor_m3375008173
C5f:_Transform_1_BeginInvoke_m1757796657_gshared
CVj:__ZNSt3__214__split_bufferINS_12basic_stringIcNS_11char_traitsIcEENS_9allocatorIcEEEERNS4_IS6_EEEC2EjjS8_
PGh:_KeyValuePair_2__ctor_m1794021352_AdjustorThunk
Uoa:__ZN9Scripting11UnityEngine7Hash12812CleanupProxyEv
buc:__ZN10GameObject12CleanupClassEv
Ehb:__ZN9GfxDevice25SetShaderPropertiesSharedERK19ShaderPropertySheet
aod:__ZN11UnityEngine7Connect20RemoteConfigSettingsC2ERKN4core12basic_stringIcNS2_20StringStorageDefaultIcEEEEPFvPS1_E18ScriptingObjectPtr
yyd:_BaseMeshEffect_get_graphic_m1852367505
axg:_CaseInsensitiveHashCodeProvider_GetHashCode_m2168170016
gEb:__ZN10MonoScript17MainThreadCleanupEv
Ykb:__ZN18AsyncUploadManager19AsyncResourceUploadER9GfxDeviceii9TextureID
_pa:__ZN9Scripting11UnityEngine12Experimental18GlobalIllumination11LightDataGI12CleanupProxyEv
vZf:_InternalEnumerator_1_Dispose_m28687982_AdjustorThunk
Huc:__ZL25InitializeDefaultMaterialv
Led:__Z53Register_UnityEngine_CanvasRenderer_get_materialCountv
BHd:_PropertyBuilder_GetCustomAttributes_m3798356764
WJg:_Stream__ctor_m3881936881
yNd:_PropertyInfo_get_MemberType_m2794839864
Yab:__ZN19FileAccessorHandlerD2Ev
rkj:_EventTrigger_RemoveRule_m1596811726
NJh:_Enumerator_Dispose_m2367589020_AdjustorThunk
m0f:_Comparer_1_System_Collections_IComparer_Compare_m4179495191_gshared
c8a:__ZN17PersistentManager12UnloadStreamERKN4core12basic_stringIcNS0_20StringStorageDefaultIcEEEEb
pfb:__ZN10MemoryFile4ReadEyyPvPy
rFi:_Array_InternalArray__Insert_TisUICharInfo_t75501106_m2924156520_gshared
vDh:_EqualityComparer_1_System_Collections_IEqualityComparer_Equals_m3139704160_gshared
cgh:_MonoProperty_GetterAdapterFrame_TisRuntimeObject_TisRuntimeObject_m458718082_gshared
JHi:_Array_Sort_TisInt32_t2950945753_TisInt32_t2950945753_m3955828611_gshared
kXj:_il2cpp_unity_liveness_calculation_from_statics
wxi:__Z70RuntimeInvoker_Boolean_t97287965_CharU26_t1697032762_Int16_t2552820387PFvvEPK10MethodInfoPvPS4_
eA:__ZNK26AnimatorControllerPlayable11DerivesFromE17ScriptingClassPtr
qIe:_SoapAttribute__ctor_m1857608874
CZf:_InternalEnumerator_1_System_Collections_IEnumerator_get_Current_m2649471526_gshared
zCh:_EqualityComparer_1_System_Collections_IEqualityComparer_Equals_m3218482536_gshared
sVa:__ZN8Renderer8TransferI17RemapPPtrTransferEEvRT_
LMf:_GenericTypeParameterBuilder_GetGenericArguments_m2988765390
h3i:_InternalAsyncResult_get_AsyncState_m1436290550
rQf:_InternalEnumerator_1_Dispose_m2018798800_AdjustorThunk
DPa:__ZN6prcore16BlitFuncInfoSIMD19BlitFuncExecuteSIMDEPKNS_9InnerInfoEPKv
wpd:__ZN20UnityWebRequestProtoI24UnityWebRequestTransport16AtomicRefCounter14RedirectHelper14ResponseHelper15DownloadHandler13UploadHandler18CertificateHandler12HeaderHelper14AsyncOperationE9DoRequestEv
n1f:_Enumerator_System_Collections_IDictionaryEnumerator_get_Entry_m522483686_gshared
aSh:_PrivateKeyInfo_RemoveLeadingZero_m3921889925
loh:_Thread_get_CurrentContext_m1695017876
zS:__ZN9AudioClip20OnBeforeDomainUnloadEv
RLi:_Mesh_GetAllocArrayFromChannel_TisColor32_t2600501292_m3180365313_gshared
n8b:__Z24LookRotationToQuaternionRK8Vector3fS1_P11Quaternionf
l8b:__ZN16ReflectionProbes9GetCameraEv
_2b:__Z23CalculateLightOcclusionRK17LightProbeContextRK29LightProbeSamplingCoordinatesi
Zic:__ZL18IsGpuProgramUsable20ShaderGpuProgramTypePK6Shader
Jcd:__ZN2UI6Canvas17SetSortingLayerIDEi
Gyd:_Button_get_onClick_m2332132945
n7j:__ZN6il2cpp2vm11MethodStack23CleanupForCurrentThreadEv
nBe:__ZL61Image_t2670269651_CustomAttributesCacheGenerator_m_FillMethodP21CustomAttributesCache
Xje:__ZL62EndGraphicsJobsLate_t3823419272_CustomAttributesCacheGeneratorP21CustomAttributesCache
v2g:_Convert_ToUInt64_m388601487
RFa:__ZN20TierGraphicsSettings8TransferI24GenerateTypeTreeTransferEEvRT_
qGj:__ZN15dense_hashtableINSt3__24pairIK10KeyWrapperIN6il2cpp5utils13dynamic_arrayIPK10Il2CppTypeLj4EEEEPFvvEEESA_NS3_8metadata19Il2CppSignatureHashEN14dense_hash_mapISA_SD_SG_NSA_14EqualsComparerINSF_22Il2CppSignatureCompareEEENS0_9allocatorISE_EEE9SelectKeyESK_SM_E16reset_thresholdsEv
a8e:_TouchScreenKeyboard_get_text_m1797464608
tNa:__ZN18UnityPropertySheet8TransferI19StreamedBinaryWriteILb0EEEEvRT_
ct:__ZN9Scripting11UnityEngine27AnimatorControllerParameter9InitProxyEv
fga:__ZNSt3__26__treeINS_12__value_typeIiN11TypeManager18TypeCallbackStructEEENS_19__map_value_compareIiS4_NS_4lessIiEELb1EEENS_9allocatorIS4_EEE7destroyEPNS_11__tree_nodeIS4_PvEE
qDe:__ZL60Slider_t3903728902_CustomAttributesCacheGenerator_m_FillRectP21CustomAttributesCache
rBa:__ZN9ShaderLab32FindBestMatchingShaderKeywordSetERK16ShaderKeywordSetRK13dynamic_arrayIS0_Lj0EEPS5_
hxi:__Z71RuntimeInvoker_Void_t1185182177_CornerU26_t2243868623_Int32_t2950945753PFvvEPK10MethodInfoPvPS4_
nYe:_TextureMixerPlayable_Equals_m1074187513_AdjustorThunk
Fzc:__ZNK14PlayableOutput23GetSourcePlayableUnsafeEv
Ujd:__ZN11UnityEngine7Connect17XRDeviceInfoEventD0Ev
j4d:__ZL60SoapTypeAttribute_t1750930817_CustomAttributesCacheGeneratorP21CustomAttributesCache
rOf:_Action_3__ctor_m3820700807_gshared
MIf:_Binder_ConvertArgs_m2124461494
sdc:__ZN21UnityDefaultAllocatorI17LowLevelAllocatorE10DeallocateEPv
Uyk:b86
uje:__ZL63Physics2DFixedUpdate_t3234482501_CustomAttributesCacheGeneratorP21CustomAttributesCache
MH:__ZN15PackedIntVector8TransferI14SafeBinaryReadEEvRT_
V9e:_Vector3__ctor_m3353183577_AdjustorThunk
gSf:_InternalEnumerator_1_System_Collections_IEnumerator_get_Current_m1514266661_gshared
wyf:_PrivateKeySelectionCallback__ctor_m265141085
Qrf:_MD5SHA1_Initialize_m675470944
Zgh:_Array_InternalArray__ICollection_Add_TisKeyframe_t4206410242_m442111799_gshared
hSi:_List_1_CheckMatch_m3263549496_gshared
W2e:_PropertyNameUtils_PropertyNameFromString_Injected_m1259736140
C0h:_ReadOnlyCollection_1_System_Collections_IList_get_IsReadOnly_m2041535988_gshared
h6i:_X509Certificate_set_KeyAlgorithmParameters_m2010117999
mT:__ZN13AudioListener8DoUpdateEv
anc:__ZL34GetComponentsImplementationRecurseILb0ELi0ELi0EEbR10GameObjectbRK17CompareParametersRK39GetComponentsImplementation_ReturnValue
B_e:__Z13bankers_roundd
w2a:__ZN14SafeBinaryRead8TransferI5RectTIfEEEvRT_PKc17TransferMetaFlags
qi:_emscripten_glGenFramebuffers
aga:__ZN17BaseObjectManager16StaticInitializeEPv
j3f:_Enumerator_MoveNext_m1127886695_gshared
sec:__ZNSt3__26vectorIN9ShaderLab26SerializedShaderDependencyENS_9allocatorIS2_EEE26__swap_out_circular_bufferERNS_14__split_bufferIS2_RS4_EE
sLh:_List_1_AddCollection_m4102468168_gshared
Una:__ZN9Scripting11UnityEngine9Profiling8Profiler12CleanupProxyEv
Pta:__ZN9Behaviour23VirtualRedirectTransferER17RemapPPtrTransfer
phd:__ZN21UnityAnalyticsManager23VirtualRedirectTransferER19StreamedBinaryWriteILb0EE
PNc:__Z18Transfer_BlittableI9JSONWriteLb0EyEvRK29SerializationCommandArgumentsR31RuntimeSerializationCommandInfo
FKa:__ZN13RenderTexture15ThreadedCleanupEv
Zeg:_X509BasicConstraintsExtension__ctor_m3721156175
zQa:__ZN12CubemapArray23VirtualRedirectTransferER14SafeBinaryRead
vrj:__ZL25UnresolvedVirtualCall_176P12Il2CppObject25RaycastResult_t3360306849S1_PK10MethodInfo
Fxe:__ZL70EventSystem_t1003666588_CustomAttributesCacheGenerator_m_DragThresholdP21CustomAttributesCache
xw:__ZN21AnimationClipPlayable16ProcessHumanPassEPK35AnimationPlayableEvaluationConstantPK32AnimationPlayableEvaluationInputP33AnimationPlayableEvaluationOutput
Zyg:_Path_GetFileName_m1354558116
TDc:__Z51Register_UnityEngine_QualitySettings_set_vSyncCountv
Pvk:_emscripten_glUniform3i__wrapper
uNh:_SimpleCollator_IsPrefix_m3581642267
D4e:_Rect_Contains_m1232228501_AdjustorThunk
Vlc:__Z43RectTransform_CUSTOM_INTERNAL_set_sizeDeltaP12Il2CppObjectRK13Vector2fIcall
yHg:_Int64_System_IConvertible_ToType_m3223988955_AdjustorThunk
b3j:__ZN15dense_hashtableINSt3__24pairIK10KeyWrapperINS1_IPKcS4_EEEiEES6_24NamespaceAndNamePairHashN14dense_hash_mapIS6_iS9_NS6_14EqualsComparerI26NamespaceAndNamePairEqualsEENS0_9allocatorIS8_EEE9SelectKeyESD_SF_E6insertERKS8_
fua:__ZN24GenerateTypeTreeTransfer18BeginArrayTransferEPKcS1_Ri17TransferMetaFlags
kLi:_Array_InternalArray__get_Item_TisPlayableBinding_t354260709_m3837494573_gshared
pm:___syscall51
kWg:_String_CreateString_m4016935005
t9i:_MatchCollection_get_FullList_m1829231879
tm:___syscall54
ipg:_Array_GetValue_m2528415604
U3d:__ZL55IMessageSink_t2514424906_CustomAttributesCacheGeneratorP21CustomAttributesCache
FPg:_SymmetricAlgorithm_Clear_m3302238152
S8e:_Transform_INTERNAL_CALL_TransformPoint_m4261269221
JEg:_Guid_AppendShort_m791023083
Mye:__ZL109PointerEventData_t3807901092_CustomAttributesCacheGenerator_PointerEventData_get_eligibleForClick_m3788762543P21CustomAttributesCache
DSi:_List_1__ctor_m4212503576_gshared
K7c:_ft_var_get_item_delta
Nwg:_BitArrayEnumerator_MoveNext_m3806676766
ACd:_Dropdown_get_value_m1555353112
f1c:_cff_builder_add_point1
k4j:__ZN6il2cpp2vm5Image21GetCachedResourceDataEPK11Il2CppImageRKNSt3__212basic_stringIcNS5_11char_traitsIcEENS5_9allocatorIcEEEE
Fob:__Z18Transfer_BlittableI14SafeBinaryReadLb0E10ColorRGBAfEvRK29SerializationCommandArgumentsR31RuntimeSerializationCommandInfo
za:invoke_iiiiiiiiii
JWe:_DrivenRectTransformTracker_Clear_m371772582
vU:__ZN11AudioSource25GetNumExtensionPropertiesEv
jih:_Array_InternalArray__ICollection_CopyTo_TisUILineInfo_t4195266810_m104406798_gshared
NT:__ZNK7Texture10GetVRUsageEv
I_e:_Mathf_Lerp_m1004423579
Vzh:_DefaultComparer__ctor_m41012692_gshared
aWe:_Debug_LogErrorFormat_m3558239521
sEd:_Graphic_get_canvas_m3320066409
Vcf:_InputField_ActivateInputFieldInternal_m3360893886
VWi:_List_1_Insert_m1781696722_gshared
k8i:_RijndaelManagedTransform__ctor_m1033522223
Acc:__ZN10FileSystem19SetCurrentDirectoryERKN4core12basic_stringIcNS0_20StringStorageDefaultIcEEEE
lVe:_Component_get_gameObject_m442555142
J8:__ZN16ScriptingManager24NotifyScriptCacheReleaseEi
wtc:__ZN23TransformChangeDispatch24RemovePermanentInterestsE15TransformAccessPKN5Unity4TypeE
TEc:__Z47Register_UnityEngine_Coroutine_ReleaseCoroutinev
EL:__ZN15AudioReverbZone13SetFMODValuesEv
h7:__ZN14SafeBinaryRead4InitERK16TypeTreeIteratorxx24TransferInstructionFlags10MemLabelId
K2:__ZL19StaticDestroyShaderPv
$d:_glRenderbufferStorageMultisample
Aye:__ZL105PointerEventData_t3807901092_CustomAttributesCacheGenerator_PointerEventData_get_pointerEnter_m3901270554P21CustomAttributesCache
qB:__ZN23AnimationPlayableOutput17SetTargetAnimatorEP8Animator
E1d:__ZL62ParameterAttributes_t1826424051_CustomAttributesCacheGeneratorP21CustomAttributesCache
q0b:__ZN22MotionVectorRenderLoopD2Ev
wqj:__ZL25UnresolvedVirtualCall_123P12Il2CppObjectiS0_S0_S0_PK10MethodInfo
vLg:_MemoryStream_get_CanRead_m1639425566
sSe:_Debug_LogException_m2207318968
cjh:_DecoderReplacementFallback_GetHashCode_m1611165826
fHd:_Image_get_minWidth_m755066479
fse:__ZL76AnimatorTransitionInfo_t2534804151_CustomAttributesCacheGenerator_m_FullPathP21CustomAttributesCache
Dne:__ZL99PlayableHandle_t1095853803_CustomAttributesCacheGenerator_PlayableHandle_GetPlayableType_m432385838P21CustomAttributesCache
ggh:_Array_InternalArray__ICollection_Add_TisClientCertificateType_t1004704908_m2622721177_gshared
VH:__ZN17PackedFloatVector8TransferI18StreamedBinaryReadILb0EEEEvRT_
ZQa:__ZN7Cubemap23VirtualRedirectTransferER17RemapPPtrTransfer
XGc:__Z37Register_UnityEngine_Screen_get_widthv
czj:_UnityAnalyticsHandler_SendCustomEvent_m1223269116
Iej:_Uri_get_Authority_m3816772302
Nkc:__ZN22BlockMemoryCacheWriter11GetPathNameEv
Qpf:_BigInteger_op_Division_m3713793389
V7e:_Touch_get_position_m3109777936
CMd:_ParameterInfo__ctor_m3269320476
$ie:__ZL60ProcessRemoteInput_t950001846_CustomAttributesCacheGeneratorP21CustomAttributesCache
_hg:_X509SubjectKeyIdentifierExtension_FromHexChars_m3244835916
PTg:_Single_CompareTo_m2785801815
f5i:_PKCS12_MAC_m3355614022
X3d:__ZL63IMethodReturnMessage_t3705538073_CustomAttributesCacheGeneratorP21CustomAttributesCache
Yo:stackAlloc
Bfb:__ZN25SingleBlockMemoryFileData4LockEPPv
gcb:__ZN12HandlerChain5TouchER13FileEntryData
uzk:_glProgramParameteri__wrapper
er:__ZN17CallbackArrayBaseIPFvP10UnitySceneS1_EPFvPKvS1_S1_EE8RegisterES3_S7_S5_
d3h:_ReadOnlyCollection_1_System_Collections_Generic_ICollectionU3CTU3E_get_IsReadOnly_m1215739200_gshared
iSe:_AnimationCurve_t3046754366_marshal_pinvoke
Znc:__Z32RectOffset_Get_Custom_PropBottomP12Il2CppObject
YVe:_Debug_LogError_m2850623458
Gpj:__ZL24UnresolvedVirtualCall_79P12Il2CppObjectPK10MethodInfo
hec:__ZNSt3__26__treeINS_12__value_typeIN4core12basic_stringIcNS2_20StringStorageDefaultIcEEEE4PPtrI7TextureEEENS_19__map_value_compareIS6_SA_NS_4lessIS6_EELb1EEENS_9allocatorISA_EEE7destroyEPNS_11__tree_nodeISA_PvEE
omj:__ZN25GenericVirtActionInvoker1IP24SingleU5BU5D_t1444911251E6InvokeEPK10MethodInfoP12Il2CppObjectS1_
oni:__Z69RuntimeInvoker_UInt64_t4134040092_Int32_t2950945753_SByte_t1669577662PFvvEPK10MethodInfoPvPS4_
vEe:__ZL74LayoutElement_t1785403678_CustomAttributesCacheGenerator_m_PreferredHeightP21CustomAttributesCache
Unk:_stat
yBa:__ZN9ShaderLab10SubProgram7CompileEv
aTi:_List_1_Contains_m353222571_gshared
uHd:_PropertyBuilder_get_CanRead_m3783190070
g9:__ZN14SerializedFile14SerializedTypeD2Ev
Ube:__ZL64ThreadStaticAttribute_t3840787420_CustomAttributesCacheGeneratorP21CustomAttributesCache
Huf:_CipherSuiteCollection_System_Collections_IList_get_Item_m2175128671
pya:__ZN6CameraD2Ev
qFc:__Z50Register_UnityEngine_Camera_get_pixelRect_Injectedv
la:invoke_iiiiiiiiiiii
y3g:_DateTime_System_IConvertible_ToType_m1242864300_AdjustorThunk
n9f:_ValueCollection_get_Count_m994935123_gshared
MYf:_InternalEnumerator_1_get_Current_m2446410893_AdjustorThunk
aDa:__Z29CalculateDefaultChannelsToAdd17ShaderChannelMaskS_
sne:__ZL89PlayableBinding_t354260709_CustomAttributesCacheGenerator_U3CstreamTypeU3Ek__BackingFieldP21CustomAttributesCache
$pg:_Array_Sort_m870838517
gUb:__ZNSt3__26__treeI20DeviceBlendStateGLES14MemoryCompLessI16DeviceBlendStateENS_9allocatorIS1_EEE7destroyEPNS_11__tree_nodeIS1_PvEE
cwj:_CanvasRenderer_SetMaterial_m633746949
OP:__ZN10AudioMixer12RebindOutputEv
Oqj:__ZL25UnresolvedVirtualCall_141P12Il2CppObject19Vector2_t2156229523S0_PK10MethodInfo
AZj:__ZNK15dense_hashtableINSt3__24pairIK10KeyWrapperIP11Il2CppClassES4_EES5_N6il2cpp8metadata16SZArrayClassHashEN14dense_hash_mapIS5_S4_SA_NS5_14EqualsComparerINS9_19SZArrayClassCompareEEENS0_9allocatorIS7_EEE9SelectKeyESE_SG_E5beginEv
dkf:_Selectable_get_navigation_m3508916916
Zff:_LayoutRebuilder_PerformLayoutControl_m4241054021
vBj:__ZN6il2cpp2vm17SetupFieldsLockedEP11Il2CppClassRKNS_2os12FastAutoLockE
Lff:_U3CDelayedSetDirtyU3Ec__Iterator0_System_Collections_IEnumerator_get_Current_m3096581881
hQ:__ZN11AudioSourceD0Ev
cRb:__ZN18GlslGpuProgramGLES13SwitchProgramEj
SUb:__ZN20ArchiveStorageReaderC2E10MemLabelId
Ydi:__Z132RuntimeInvoker_Int32_t2950945753_RuntimeObject_Int32_t2950945753_Int32_t2950945753_RuntimeObject_Int32_t2950945753_Int32_t2950945753PFvvEPK10MethodInfoPvPS4_
jgb:__ZN16MemoryFileSystem4NameEv
ywd:_ButtonState__ctor_m1506593332
gXj:_il2cpp_gchandle_free
HDc:__Z13SetCopyBufferRKN4core12basic_stringIcNS_20StringStorageDefaultIcEEEE
nIh:_Enumerator_get_Current_m2468920150_AdjustorThunk
J3i:_TlsException__ctor_m818940807
emg:_X509CertificateEnumerator_System_Collections_IEnumerator_get_Current_m418791713
Wgd:__ZN14UnityAnalyticsD2Ev
Omc:__Z42ScriptingGetComponentsOfTypeFromGameObjectRK26ScriptingGetComponentsArgs
KFd:_GridLayoutGroup_set_startAxis_m837106447
rme:__ZL73ArgumentCache_t2187958399_CustomAttributesCacheGenerator_m_ObjectArgumentP21CustomAttributesCache
OVe:_StateChanged_EndInvoke_m3313423087
RIi:_Array_swap_TisRaycastResult_t3360306849_TisRaycastResult_t3360306849_m3400922624_gshared
HVc:__ZN9Scripting11UnityEngine21ControllerColliderHit9InitProxyEv
NPe:_CspParameters__ctor_m2741097571
iLf:_EnumBuilder_get_DeclaringType_m4266754303
QNa:__ZNSt3__27__sort4IRPFbRKNS_4pairIN9ShaderLab16FastPropertyNameEN18UnityPropertySheet11UnityTexEnvEEES8_EPS6_EEjT0_SD_SD_SD_T_
ibj:_Assertion_get_TrueExpression_m2743006331
e0c:_cf2_hintmap_build
Nzj:_NativeHeaderAttribute_set_Header_m3310668383
Cmc:__Z11StringToIntRKN4core16basic_string_refIcEE
b9c:_Line_Up
sHi:_Array_Resize_TisRaycastResult_t3360306849_m1277390301_gshared
ge:_emscripten_glBufferSubData
OVg:_String_ReplaceUnchecked_m1381393810
DSh:_SymmetricTransform_CBC_m435753239
otb:__Z18Transfer_BlittableI17RemapPPtrTransferLb1EyEvRK29SerializationCommandArgumentsR31RuntimeSerializationCommandInfo
Dtj:_Hacker_showMainMenu_m656671394
bEe:__ZL76ContentSizeFitter_t3850442145_CustomAttributesCacheGenerator_m_HorizontalFitP21CustomAttributesCache
bja:__ZN6prcoreL12RemapGenericI15TexFormatRGB88817TexFormatARGB8888EEvPKNS_9InnerInfoE
Sp:__Z17CalculateGlobalRS23TransformAccessReadOnly
kQj:__ZN24dense_hashtable_iteratorINSt3__24pairIK10KeyWrapperINS1_IPK10MethodInfoP11Il2CppClassEEEjEES9_17ReflectionMapHashIS8_EN14dense_hash_mapIS9_jSD_NS9_14EqualsComparerINS0_8equal_toIS8_EEEENS0_9allocatorISB_EEE9SelectKeyESI_SK_E30advance_past_empty_and_deletedEv
L9c:__Z56Register_UnityEngine_TextGenerator_GetCharactersInternalv
vik:__ZNSt3__210__list_impIPN6il2cpp5utils10MemoryPool6RegionENS_9allocatorIS5_EEE5clearEv
mGb:__ZNK25PathNamePersistentManager24PathIDToPathNameInternalEi
ecb:__ZNK12HandlerChain7ToLocalERK13FileEntryDataRN4core12basic_stringIcNS3_20StringStorageDefaultIcEEEERyS9_
Iqd:__ZN13RuntimeStaticINSt3__26vectorIN5physx25PxVehicleWheelQueryResultENS0_9allocatorIS3_EEEELb0EE16StaticInitializeEPv
_fi:__Z38RuntimeInvoker_MemberTypes_t3790569052PFvvEPK10MethodInfoPvPS4_
_8a:__ZN22MemoryCacherReadBlocks14LockCacheBlockEjPPhS1_
AMg:_StreamAsyncResult_get_NBytes_m548041729
VUj:__ZN6il2cpp2vm14TypeNameParser17ParseAssemblyNameEv
ZZa:__ZNK9GfxDevice26GetSinglePassStereoEyeMaskEv
kWe:_DebugLogHandler_Internal_Log_m4175774469
mEj:__ZN15dense_hashtableINSt3__24pairIK10KeyWrapperIP9FieldInfoEiEES5_N6il2cpp5utils11PointerHashIS3_EEN14dense_hash_mapIS5_iSB_NS5_14EqualsComparerINS0_8equal_toIS4_EEEENS0_9allocatorIS7_EEE9SelectKeyESG_SI_E13set_empty_keyERKS7_
jck:__ZN4utf88internal15increase_safelyIPKcEENS0_9utf_errorERT_S5_
Gfe:__ZL66StaticAccessorAttribute_t2432663902_CustomAttributesCacheGeneratorP21CustomAttributesCache
xSg:_SecurityContext_get_CompressedStack_m3401528670
bug:_CharEnumerator_get_Current_m525608209
BVf:_InternalEnumerator_1_Dispose_m887344916_AdjustorThunk
ptd:__Z21ArrayElementTypeCheckP11Il2CppArrayPv
Ayk:_emscripten_glTexSubImage2D__wrapper
yWa:__ZN18StreamedBinaryReadILb0EE21TransferSTLStyleArrayI13dynamic_arrayI33EnlightenTerrainChunksInformationLj0EEEEvRT_17TransferMetaFlags
J_d:__ZL69DebuggerBrowsableAttribute_t1026244177_CustomAttributesCacheGeneratorP21CustomAttributesCache
Ala:__ZL48__ManagedRegistrationHelperFunction_LightmapDataPv
Mpk:__ZNSt3__212basic_stringIcNS_11char_traitsIcEENS_9allocatorIcEEE6appendEjc
wDb:__Z13TransferFieldI18StreamedBinaryReadILb0EELb0E16Converter_StringEvRK23StaticTransferFieldInfoR31RuntimeSerializationCommandInfoRT1_
Ddd:__Z42Register_UnityEngine_Canvas_get_rootCanvasv
_8d:__ZL78Convert_t2465617642_CustomAttributesCacheGenerator_Convert_ToBoolean_m40300963P21CustomAttributesCache
Upb:__Z14resize_trimmedINSt3__26vectorI8MonoPPtr13stl_allocatorIS2_L18MemLabelIdentifier1ELi16EEEEEvRT_j
Pe:_TTF_RenderText_Solid
JSe:__ZN23InterfaceActionInvoker3IP8String_tS1_iE6InvokeEjP11Il2CppClassP12Il2CppObjectS1_S1_i
eMi:_List_1__ctor_m3947764094_gshared
bYc:__ZN20TextRenderingPrivate21TextMeshGeneratorImpl5FlushEv
zdj:_Parser_IsIgnorePatternWhitespace_m2107132682
Ihd:__ZN14UnityAnalytics15Internal_CreateE18ScriptingObjectPtr
Ybg:_HttpRequestCreator_Create_m400548686
bod:__ZN11UnityEngine7Connect16PersistentValuesC2Ev
Lji:__Z49RuntimeInvoker_RuntimeObject_StringU26_t181565287PFvvEPK10MethodInfoPvPS4_
e2h:_ReadOnlyCollection_1_System_Collections_IList_Insert_m134149130_gshared
tNc:__Z18Transfer_BlittableI9JSONWriteLb0E5RectTIiEEvRK29SerializationCommandArgumentsR31RuntimeSerializationCommandInfo
hOh:_BigInteger_get_Rng_m4216817480
n$c:_cf2_getStdVW
hbh:_Array_InternalArray__ICollection_Remove_TisDateTime_t3738529785_m2250893026_gshared
l6d:__ZL67RijndaelManagedTransform_t4102601014_CustomAttributesCacheGeneratorP21CustomAttributesCache
SKb:__Z15IsIEEE754Format14GraphicsFormat
D9:__ZL12CreateStringPjR13dynamic_arrayIcLj0EEPKc
Ctb:__Z19TransferField_ArrayI17RemapPPtrTransfer27Converter_UnityEngineObjectEvRK23StaticTransferFieldInfoR31RuntimeSerializationCommandInfoRT0_
Mxg:_KeyNotFoundException__ctor_m541499307
Rba:__ZN13RuntimeStaticINSt3__23mapIN4core12basic_stringIcNS2_20StringStorageDefaultIcEEEES6_NS0_4lessIS6_EE13stl_allocatorINS0_4pairIKS6_S6_EEL18MemLabelIdentifier13ELi16EEEELb0EE16StaticInitializeEPv
Fch:_SetPropertyUtility_SetStruct_TisSpriteState_t1362986479_m665096788_gshared
sei:__Z61RuntimeInvoker_Single_t1397266774_RuntimeObject_RuntimeObjectPFvvEPK10MethodInfoPvPS4_
Q8i:_Enumerator__ctor_m1228633090
nbh:_Array_InternalArray__ICollection_Remove_TisIntPtr_t_m3807208150_gshared
dqi:__Z71RuntimeInvoker_Void_t1185182177_Vector3_t3722313464_Vector3_t3722313464PFvvEPK10MethodInfoPvPS4_
kVf:_InternalEnumerator_1_get_Current_m2316281569_AdjustorThunk
J_g:_DateTime__ctor_m1095105629
hMb:__ZN13GfxDeviceGLES15UploadTexture2DE9TextureID16TextureDimensionPKhiii14GraphicsFormati18TextureUploadFlags16TextureUsageMode
ofj:_Event_Cleanup_m2477919477
FO:__ZN4FMOD6System9createDSPEP20FMOD_DSP_DESCRIPTIONPPNS_3DSPE
u8d:__ZL87Thread_t2300836069_CustomAttributesCacheGenerator_Thread_GetCompressedStack_m2923422412P21CustomAttributesCache
Q6e:_HitInfo_t3229609740_marshal_pinvoke_back
Szf:_SslClientStream_get_ClientCertificates_m998716871
ZQd:__ZN21InterfaceFuncInvoker0IP8String_tE6InvokeEjP11Il2CppClassP12Il2CppObject
PM:__ZN4FMOD8ChannelI11EndCallbackEv
RJc:__ZN8GUIStyle14SetDefaultFontEPN13TextRendering4FontE
PNi:_List_1_ToArray_m2860284581_gshared
ATa:__ZN15QualitySettings23VirtualRedirectTransferER24GenerateTypeTreeTransfer
iMe:_ObjectReader_ReadValue_m3145979203
hLj:_TypeInferenceRuleAttribute_ToString_m4089326196
gK:__ZN9Scripting11UnityEngine24AssetBundleCreateRequest9InitProxyEv
plc:__Z49Sprite_Get_Custom_PropAssociatedAlphaSplitTextureP12Il2CppObject
nzd:_CanvasScaler_OnDisable_m3424669401
V7f:_Transform_1_BeginInvoke_m500585065_gshared
FEc:__Z59Register_UnityEngine_MonoBehaviour_Internal_CancelInvokeAllv
zCe:__ZL68Scrollbar_t1494447233_CustomAttributesCacheGenerator_m_NumberOfStepsP21CustomAttributesCache
vkf:_ScrollRect_set_content_m321343743
FEj:__ZN30dense_hashtable_const_iteratorINSt3__24pairIK10KeyWrapperIPK19Il2CppGenericMethodEPK26Il2CppGenericMethodIndicesEES6_N6il2cpp8metadata23Il2CppGenericMethodHashEN14dense_hash_mapIS6_SA_SE_NS6_14EqualsComparerINSD_26Il2CppGenericMethodCompareEEENS0_9allocatorISB_EEE9SelectKeyESI_SK_EppEv
$Yc:_UNITY_FT_Request_Metrics
nKa:__ZN7Texture8TransferI18StreamedBinaryReadILb0EEEEvRT_
Y1j:__ZN6il2cpp6icalls8mscorlib6System10Reflection10MonoMethod29get_IsGenericMethodDefinitionEP22Il2CppReflectionMethod
FYj:__ZN6il2cpp2vm6Thread21AllocThreadStaticDataEi
hDg:_NumberFormatInfo_get_PercentNegativePattern_m1304634118
gEa:__ZL12CopyChannelsj17ShaderChannelMaskRA4_K10StreamInfoRA12_K11ChannelInfoPKhS3_S7_Ph
OIf:_Default_SelectMethod_m469311730
pZe:_Input_get_mousePosition_m1616496925
rbk:__ZN30dense_hashtable_const_iteratorINSt3__24pairIK10KeyWrapperIPK19Il2CppGenericMethodEP10MethodInfoEES6_N6il2cpp8metadata23Il2CppGenericMethodHashEN14dense_hash_mapIS6_S9_SD_NS6_14EqualsComparerINSC_26Il2CppGenericMethodCompareEEENS0_9allocatorISA_EEE9SelectKeyESH_SJ_EppEv
guh:_UInt32_ToString_m2066897296_AdjustorThunk
Jif:__ZN21InterfaceFuncInvoker3IP30RaycastHit2DU5BU5D_t428665156015Ray_t3785851493fiE6InvokeEjP11Il2CppClassP12Il2CppObjectS2_fi
XWg:_Enumerator_Reset_m4274366540
SMc:__Z18Transfer_BlittableI9JSONWriteLb0E8Vector3fEvRK29SerializationCommandArgumentsR31RuntimeSerializationCommandInfo
vca:__ZN13RuntimeStaticI17UniqueIDGeneratorLb0EE13StaticDestroyEPv
Of:_emscripten_glUniform4i
_qe:__ZL103Transform_t3600365921_CustomAttributesCacheGenerator_Transform_INTERNAL_CALL_TransformPoint_m4261269221P21CustomAttributesCache
T0e:_PlayerConnection_RegisterDisconnection_m2618599213
_e:_emscripten_glUniform4f
wj:___unlock
j3i:_TlsCipherSuite_ComputeServerRecordMAC_m3941098609
d2c:_otv_validate
Wac:__ZN13sorted_vectorINSt3__24pairIN4core12basic_stringIcNS2_20StringStorageDefaultIcEEEES6_EEN10vector_mapIS6_S6_27compare_tstring_insensitiveIS6_E13stl_allocatorIS7_L18MemLabelIdentifier38ELi16EEE13value_compareESD_E9erase_oneIS6_EEjRKT_
iAh:_DefaultComparer__ctor_m963958896_gshared
OQg:_X509Certificate_Equals_m3784196370
nWi:_List_1__ctor_m3376067838_gshared
SQ:__ZN20SoundChannelInstance19setReverbPropertiesEP29FMOD_REVERB_CHANNELPROPERTIES
fJh:_Enumerator_MoveNext_m1446151600_gshared
COg:_SHA1Internal_ProcessFinalBlock_m1403775421
pwe:__ZL87Canvas_t3310196443_CustomAttributesCacheGenerator_Canvas_get_sortingLayerID_m3685979122P21CustomAttributesCache
PXi:_Queue_1_System_Collections_ICollection_CopyTo_m3452613063_gshared
sbe:__ZL69Math_t1671470975_CustomAttributesCacheGenerator_Math_Sqrt_m1297338011P21CustomAttributesCache
Jqc:__Z40Register_UnityEngine_Transform_IsChildOfv
wJe:_RemotingServices_GetOrCreateClientIdentity_m648299611
O_f:_InternalEnumerator_1_get_Current_m2356858238_AdjustorThunk
Poc:__Z45Register_UnityEngine_Display_GetSystemExtImplv
qSh:_RSAManaged_ImportParameters_m1844641996
Y0d:__ZL67AssemblyProductAttribute_t1000945320_CustomAttributesCacheGeneratorP21CustomAttributesCache
skb:__ZN9GfxDevice31DrawIndexedNullGeometryIndirectE16GfxPrimitiveTypeP9GfxBuffer15ComputeBufferIDj
u1f:_Enumerator_System_Collections_IDictionaryEnumerator_get_Value_m3325938730_AdjustorThunk
yx:__ZN7mecanim9animation23TransformValuesFromClipEiiiRKNS_10ValueArrayERKNS0_10ClipOutputERKNS0_12ClipBindingsERS1_RNS_14ValueArrayMaskEb
lFa:__ZN14SafeBinaryRead21TransferSTLStyleArrayI13dynamic_arrayI21PlatformShaderDefinesLj0EEEEvRT_17TransferMetaFlags
NGi:_Array_qsort_TisOrderBlock_t1585977831_TisOrderBlock_t1585977831_m1675918557_gshared
IUc:__GLOBAL__sub_I_Runtime_Dynamics_0_cpp
k9f:_ValueCollection_System_Collections_ICollection_get_SyncRoot_m1114275063_gshared
Iyj:__ZL17log2withScale_128yyi
zEg:_Guid_Equals_m1866984197
bhd:__ZN14UnityAnalytics19ConfigChangedStaticEPS_RKN4core12basic_stringIcNS1_20StringStorageDefaultIcEEEER8JSONReadb
e2f:_Enumerator__ctor_m65667165_gshared
AHf:_PlatformNotSupportedException__ctor_m1787918017
Sda:__ZN13RuntimeStaticI15DirectorManagerLb0EE16StaticInitializeEPv
e$h:_ReadOnlyCollection_1_System_Collections_ICollection_CopyTo_m2643246984_gshared
w1a:__ZN11TimeManager6UpdateEv
XJh:_Enumerator_System_Collections_IEnumerator_get_Current_m209407522_gshared
NNe:_StreamingContext_GetHashCode_m2281950854_AdjustorThunk
_Qf:_InternalEnumerator_1__ctor_m619554185_AdjustorThunk
gzd:_CanvasScaler_get_fallbackScreenDPI_m2811935689
Er:__ZNK16ParentConstraint18GetTranslationAxisEv
eKe:_WellKnownServiceTypeEntry_get_ObjectUri_m560402900
DAg:_DateTimeFormatInfo_ReadOnly_m890935083
c1h:_ReadOnlyCollection_1_System_Collections_ICollection_get_SyncRoot_m1280260618_gshared
Tef:_LayoutElement_set_preferredHeight_m1999633022
$nk:_fflush
m7a:__ZN17LightProbeContext4InitERK16LightmapSettingsRK14RenderSettings
bhi:__Z82RuntimeInvoker_Int32_t2950945753_RuntimeObject_Int32_t2950945753_SByte_t1669577662PFvvEPK10MethodInfoPvPS4_
P3b:__ZN18DeferredRenderLoop14RenderLightingER21ActiveLightingContextP13RenderTexture9TextureIDPS3_iRK8Vector4fRK14LightingLayersR10MinMaxAABBb12ObjectHandleI17RenderSurface_TagP17RenderSurfaceBaseE
w6e:_SceneManager_Internal_ActiveSceneChanged_m3676176255
z6i:_X509Certificate_GetIssuerName_m1142198382
gdj:_ExpressionAssertion_set_Negate_m1236561973
Y7g:_Double_System_IConvertible_ToInt16_m3591921965
hZa:__ZN9Texture3DD2Ev
eVh:_Collection_1_set_Item_m4280581817_gshared
yGd:_Image_get_fillMethod_m1027254375
Yya:__ZN10ColorRGBAf8TransferI19StreamedBinaryWriteILb0EEEEvRT_
_7d:__ZL97CompressedStack_t1202932761_CustomAttributesCacheGenerator_CompressedStack_CreateCopy_m2591279216P21CustomAttributesCache
ZZg:_Convert_ToChar_m2796006345
qFi:_Array_InternalArray__Insert_TisContentType_t1787303396_m3566390691_gshared
i7j:__ZNSt3__26vectorI20Il2CppStackFrameInfoNS_9allocatorIS1_EEE7reserveEj
bca:__ZN5CacheD2Ev
rvg:_ArrayListWrapper_GetEnumerator_m2336495952
t6b:__Z34ProcessIndexListIsNodeVisibleStep2RK22SceneCullingParametersPK9SceneNodePK4AABBR9IndexList
eEb:__ZN10MonoScriptD2Ev
soa:__ZN9Scripting11UnityEngine10Networking16PlayerConnection16PlayerConnection12CleanupProxyEv
Pia:__ZN6prcoreL12RemapGenericI17TexFormatARGB888817TexFormatBGRA8888EEvPKNS_9InnerInfoE
MTb:__ZN19ConstantBuffersGLES8UpdateCBE5CbKeyPKvj
Pyd:_U3COnFinishSubmitU3Ec__Iterator0_System_Collections_Generic_IEnumeratorU3CobjectU3E_get_Current_m2586882303
Cmj:_AudioSource_get_spatializeInternal_m2117549793
irc:__Z39Input_CUSTOM_INTERNAL_get_mousePositionP8Vector3f
DMe:_SerializationCallbacks_GetMethodsByAttribute_m2095490433
J4c:_tt_cmap13_char_next
Hxe:__ZL117EventSystem_t1003666588_CustomAttributesCacheGenerator_EventSystem_t1003666588____lastSelectedGameObject_PropertyInfoP21CustomAttributesCache
CWb:__ZN9ShaderLab4Pass16SetupPassOptionsEv
UVi:_List_1_GetIndex_m1042356532_gshared
ch:_JS_Sound_ReleaseInstance
OXj:_il2cpp_type_equals
bEg:_Guid_CheckArray_m921056615
LRd:_ConfigHandler_ReadLifetine_m208994800
ili:__Z96RuntimeInvoker_IntPtr_t_SByte_t1669577662_SByte_t1669577662_RuntimeObject_BooleanU26_t4125257963PFvvEPK10MethodInfoPvPS4_
RPj:__ZNK15dense_hashtableINSt3__24pairIK10KeyWrapperINS1_IPK10MethodInfoP11Il2CppClassEEEjEES9_17ReflectionMapHashIS8_EN14dense_hash_mapIS9_jSD_NS9_14EqualsComparerINS0_8equal_toIS8_EEEENS0_9allocatorISB_EEE9SelectKeyESI_SK_E12test_deletedEj
x_j:__ZN6il2cpp6icalls8mscorlib6System7Runtime15InteropServices7Marshal19copy_from_unmanagedEiiP11Il2CppArrayi
vsh:_UInt16_System_IConvertible_ToByte_m3185614807_AdjustorThunk
Czf:_SecurityParameters_set_ServerWriteMAC_m3003817350
pNe:_SerializationEntry_get_Value_m2039470570
h4e:_Rect_get_max_m350137314_AdjustorThunk
Dm:FUNCTION_TABLE_diddi
W$j:__ZN6il2cpp6icalls8mscorlib6System5Array8FastCopyEP11Il2CppArrayiS5_ii
gMj:__ZNSt3__26vectorIPK10MethodInfoNS_9allocatorIS3_EEE21__push_back_slow_pathIRKS3_EEvOT_
_xi:__Z54RuntimeInvoker_Boolean_t97287965_LabelFixup_t858502054PFvvEPK10MethodInfoPvPS4_
Abd:__ZNK2UI14CanvasRenderer22GetTypeVirtualInternalEv
XTi:_List_1_Clear_m2244610185_gshared
moc:__Z42Register_UnityEngine_RectOffset_get_bottomv
q$d:__ZL55BinaryReader_t2428077293_CustomAttributesCacheGeneratorP21CustomAttributesCache
Cnk:_newlocale
iHf:_ObjectDisposedException_get_Message_m1666887471
Jrb:__ZN9BoundsInt8TransferI14SafeBinaryReadEEvRT_
H$b:__Z20DoDeferredRenderLoopRK17RenderLoopContextR13dynamic_arrayI16RenderObjectDataLj0EES5_RK11CullResultsRP13RenderTextureSB_Pb
Dwk:_emscripten_glUniform1f__wrapper
Irk:dynCall_di
Xlg:_X509Certificate_get_SubjectName_m3160893681
t6a:__ZN21EnlightenSceneMapping6AppendEiRKS_
XWe:_BaseInvokableCall_AllowInvoke_m878393606
AMc:__Z28RegisterModule_JSONSerializev
EWe:_DisplaysUpdatedDelegate__ctor_m2116638722
pUc:__ZL57__ManagedRegistrationHelperFunction_CachedContactPoints2DPv
$9a:__ZN2UI13RectTransform8TransferI14SafeBinaryReadEEvRT_
LNc:__Z35Transfer_Blittable_FixedBufferFieldI9JSONWriteaEvRK29SerializationCommandArgumentsR31RuntimeSerializationCommandInfo
lTe:_Behaviour_get_enabled_m753527255
kpc:__Z20IsHumanControllingUsv
K8f:_Enumerator_MoveNext_m181298207_gshared
vCi:__Z44RuntimeInvoker_ParameterModifier_t1461694466PFvvEPK10MethodInfoPvPS4_
v1:__ZNK20DynamicHeapAllocatorI17LowLevelAllocatorE10GetPtrSizeEPKv
Lwb:__Z18Transfer_BlittableI19StreamedBinaryWriteILb0EELb1EtEvRK29SerializationCommandArgumentsR31RuntimeSerializationCommandInfo
BWi:_List_1_System_Collections_IList_get_IsReadOnly_m3278465421_gshared
k$d:__ZL51TextInfo_t3810425522_CustomAttributesCacheGeneratorP21CustomAttributesCache
xmc:__ZN10systeminfo21GetPersistentDataPathEv
rij:_SymmetricTransform_get_KeepLastBlock_m2492071306
GLb:__ZN13GfxDeviceGLES17DestroyGpuProgramEPK10GpuProgram
oGi:_Array_InternalArray__set_Item_TisRaycastResult_t3360306849_m730888808_gshared
cob:__Z44InitializeTransferFunctionScriptingTraitsForI18StreamedBinaryReadILb0EEEvR31TransferFunctionScriptingTraits
l8f:_Enumerator_System_Collections_IEnumerator_Reset_m53411943_gshared
$1b:__ZNSt3__218__insertion_sort_3IR23CompareReflectionProbesP31RuntimeReflectionProbeBlendInfoEEvT0_S5_T_
Mtb:__ZN12NativeBufferI27Converter_SimpleNativeClassI8GradientEE15SetupForWritingER9ArrayInfo
POh:_Kernel_RightShift_m2207393597
Mga:__ZNSt3__213__stable_sortIRNS_4lessIN4core12basic_stringIcNS2_20StringStorageDefaultIcEEEEEENS_11__wrap_iterIPS6_EEEEvT0_SC_T_NS_15iterator_traitsISC_E15difference_typeEPNSF_10value_typeEi
xFe:__ZL48Shadow_t773074319_CustomAttributesCacheGeneratorP21CustomAttributesCache
N2:__ZN12_GLOBAL__N_113StaticDestroyEPv
kJc:__ZNK8GUIStyle4DrawER8GUIStateRK5RectTIfER10GUIContentbbbb
nBk:_glUnmapBuffer__wrapper
V6f:_Transform_1__ctor_m3369371265_gshared
sRc:__ZN8JSONRead21TransferSTLStyleArrayINSt3__26vectorI8Gradient13stl_allocatorIS3_L18MemLabelIdentifier1ELi16EEEEEEvRT_17TransferMetaFlags
x3a:__ZNSt3__218__insertion_sort_3IRNS_6__lessINS_4pairIPKN5Unity4TypeE7Hash128EES8_EEPS8_EEvT0_SC_T_
Ybf:_InputField_set_onValueChanged_m3658917578
uvb:__ZN10RectOffset8TransferI24GenerateTypeTreeTransferEEvRT_
v3i:_TlsClientSettings_get_ClientCertificate_m3139459118
IIg:_BinaryReader__ctor_m2266204403
fqa:__ZN9Scripting11UnityEngine6Events14UnityEventBase9InitProxyEv
OHh:_Enumerator_VerifyState_m3047769867_AdjustorThunk
Gub:__Z18Transfer_BlittableI24GenerateTypeTreeTransferLb1E5RectTIiEEvRK29SerializationCommandArgumentsR31RuntimeSerializationCommandInfo
B9i:_Enumerator_System_Collections_IEnumerator_Reset_m24787251
Lbd:__ZN2UI13CanvasManager19RemoveDirtyRendererEPNS_6CanvasEPNS_14CanvasRendererE
Emk:_isspace
sKe:_BinaryFormatter__ctor_m2620705134
AHb:__Z15GetIApplicationv
Mkd:__ZN11UnityEngine15PlatformWrapper25GetGraphicsRendererStringEv
ymh:_UTF7Encoding_InternalGetBytes_m797138468
Psc:__ZZL31RegisterRectTransformPropertiesR22GenericPropertyBindingEN39Wrapper_RectTransformAnchoredPositiony113SetFloatValueEPvf
Z$:__ZN11UnityEngine15CloudWebService17WebFileDownloaderINS0_20WebRequestRestClientENS0_23WebRequestRestHeaderMapEED2Ev
Nb:invoke_vi
hM:__ZN12AudioManager8InitFMODE15FMOD_OUTPUTTYPE
Dmg:_SmallXmlParser_HandleWhitespaces_m549588711
Lb:invoke_vd
Lya:__ZNK6Camera19GetStereoViewMatrixE15StereoscopicEye
p9i:_Regex_get_RightToLeft_m2317867572
Daa:__ZNK10GameObject8IsActiveEv
OGc:__Z34Component_Get_Custom_PropTransformP12Il2CppObject
rwe:__ZL83Canvas_t3310196443_CustomAttributesCacheGenerator_Canvas_get_rootCanvas_m3165691493P21CustomAttributesCache
Uve:__ZL67g_UnityEngine_PhysicsModule_Assembly_CustomAttributesCacheGeneratorP21CustomAttributesCache
o6i:_X509Certificate_get_SignatureAlgorithm_m122054440
VQb:__ZN18GfxFramebufferGLES23SetupDefaultFramebufferEPP17RenderSurfaceBaseS2_N2gl6HandleILNS3_10ObjectTypeE9EEE
p_h:_ReadOnlyCollection_1_get_Item_m3437922467_gshared
ZBd:_DefaultControls_CreateDropdown_m3286664171
cZa:__ZN13ScreenManager18RequestOrientationE17ScreenOrientation
UBj:__ZN6il2cpp2vm5Class12SetupMethodsEP11Il2CppClass
gCc:__Z39DeleteLastPathNameComponentWithAnySlashRKN4core12basic_stringIcNS_20StringStorageDefaultIcEEEE
zKc:__ZN10GUIManager14InitGUIManagerEv
Mpi:__Z77RuntimeInvoker_Void_t1185182177_RegexOptionsU26_t1638284957_SByte_t1669577662PFvvEPK10MethodInfoPvPS4_
LEe:__ZL78LayoutRebuilder_t541313304_CustomAttributesCacheGenerator_U3CU3Ef__amU24cache1P21CustomAttributesCache
MMj:__ZNSt3__26vectorIP11Il2CppClassNS_9allocatorIS2_EEE26__swap_out_circular_bufferERNS_14__split_bufferIS2_RS4_EE
Xsh:_UInt16_Equals_m642257745
Kog:_Array_System_Collections_IList_IndexOf_m3301661616
pIf:_AssemblyFileVersionAttribute__ctor_m3720707642
Maf:_WaitForSeconds__ctor_m2199082655
YOd:_RuntimeResourceSet_CloneDisposableObjectIfPossible_m2725520898
ERe:_HMACSHA384_set_ProduceLegacyHmacValues_m76936446
VJc:__Z37Register_UnityEngine_GUIStyle_Cleanupv
Ka:invoke_iiifii
AFc:__Z26Mesh_CUSTOM_SetIndicesImplP12Il2CppObjecti16GfxPrimitiveTypeP11Il2CppArrayihi
Qmf:_SliderEvent__ctor_m3149452941
Plg:_DeriveBytes__cctor_m1212925033
Rxd:_UIBehaviour_OnDestroy_m1613239498
Ytc:__ZN8GUILayer12AddToManagerEv
IEd:_Graphic_OnDisable_m1097930217
zMj:__ZN6il2cpp6icalls8mscorlib6System8MonoType13IsPointerImplEP20Il2CppReflectionType
Pi:_emscripten_glFramebufferRenderbuffer
X4b:__ZN19CullingGroupManager17CullAndSendEventsERK22SceneCullingParametersiRK13CullingOutputRK8JobFence
$Qd:__ZN21InterfaceFuncInvoker3IP12Il2CppObjectP8String_tS1_PS3_E6InvokeEjP11Il2CppClassS1_S3_S1_S4_
Swj:_AnimationLayerMixerPlayable_GetHandle_m3854437798_AdjustorThunk
LOi:_List_1_ToArray_m2949058867_gshared
Fqe:__ZL98DataUtility_t2196215967_CustomAttributesCacheGenerator_DataUtility_Internal_GetMinSize_m2628270685P21CustomAttributesCache
exa:__ZN9Transform30EnsureTransformHierarchyExistsEv
Tqh:_Type_FilterName_impl_m2651733559
PV:__ZN11AudioModule26SetDefaultMicrophoneDriverEPv
gFh:_GenericEqualityComparer_1_GetHashCode_m457148860_gshared
ayh:_Dictionary_2_System_Collections_Generic_ICollectionU3CSystem_Collections_Generic_KeyValuePairU3CTKeyU2CTValueU3EU3E_Add_m1448015620_gshared
Bpc:__Z46Register_UnityEngine_Application_get_isPlayingv
cXh:_Collection_1_ClearItems_m2182923889_gshared
jDc:__ZN13MonoBehaviour13StopCoroutineEPKc
Iac:__ZNSt3__26vectorINS_4pairIN4core12basic_stringIcNS2_20StringStorageDefaultIcEEEEPK17MessageIdentifierEENS_9allocatorISA_EEE12__move_rangeEPSA_SE_SE_
PZb:__ZN14qsort_internal17MedianOfThreeSwapIP17RODataReplacement19ROSorterReplacementEEvT_S4_S4_T0_
OUg:_String_Split_m3646115398
Z4e:_RectOffset_ToString_m2007443979
KAj:__ZNK15dense_hashtableINSt3__24pairIK10KeyWrapperIPK22Il2CppGenericParameterEP11Il2CppClassEES6_N6il2cpp5utils11PointerHashIS4_EEN14dense_hash_mapIS6_S9_SE_NS6_14EqualsComparerINS0_8equal_toIS5_EEEENS0_9allocatorISA_EEE9SelectKeyESJ_SL_E3endEv
fCc:__ZN17TransformInternal36OnScaleChangedCalculateTransformTypeE15TransformAccess
Kdb:__ZN17ArchiveFileSystem10ToAbsoluteEPKc
Txc:__Z13RegisterClassI11PreloadDataEvPKc
iFc:__Z35Camera_CUSTOM_RaycastTry2D_InjectedP12Il2CppObjectRK3Rayfi
xld:__ZN19UnityConnectService15GetPlayerUserIdEv
vfh:_Array_InternalArray__IndexOf_TisSByte_t1669577662_m4156538463_gshared
EC:__ZN7mecanim6CRCKeyENS_7eStringE
zoj:__ZL24UnresolvedVirtualCall_18P12Il2CppObjectiPK10MethodInfo
roc:__ZL12SetPrefValueRKN4core12basic_stringIcNS_20StringStorageDefaultIcEEEERK9PrefValue
kac:__Z21GetBackgroundJobQueuev
Pec:__ZL30ReconstructParamNamesFromTableIN9ShaderLab20SerializedSubProgram15MatrixParameterEEvRK14dense_hash_mapIiN4core17string_with_labelILi1EEE18SInt32HashFunctionNSt3__28equal_toIiEE13stl_allocatorINS8_4pairIKiS6_EEL18MemLabelIdentifier1ELi16EEERNS8_6vectorIT_NS8_9allocatorISL_EEEE
MZa:__ZN19ShaderPropertySheet20ReservePropertyCountEj
Rbk:__ZN6il2cpp5utils11StringUtils6PrintfEPKcz
QZj:__ZNSt3__26vectorIN6il2cpp8metadata18GenericArrayMethodENS_9allocatorIS3_EEE7reserveEj
ZNa:__ZN15NameToObjectMapI6ShaderNSt3__23mapI4PPtrIS0_EN4core12basic_stringIcNS5_20StringStorageDefaultIcEEEENS1_4lessIS4_EENS1_9allocatorINS1_4pairIKS4_S9_EEEEEENS1_8multimapIS9_S4_NSA_IS9_EENSC_INSD_IKS9_S4_EEEEEEE4FindERSK_
WPa:__ZN24GenerateTypeTreeTransfer21TransferResourceImageE19ActiveResourceImagePKcR13StreamingInfoPvjiPKN5Unity4TypeE
zIi:_Array_Sort_TisVector3_t3722313464_m1030213405_gshared
B5j:__ZN6il2cpp2vm6Object5CloneEP12Il2CppObject
Bre:__ZL94TextGenerator_t3211863866_CustomAttributesCacheGenerator_TextGenerator_Dispose_cpp_m1826354328P21CustomAttributesCache
Wjk:__ZN6il2cpp6icalls8mscorlib6System9Threading5Mutex20CreateMutex_internalEbP12Il2CppStringPb
Zle:__ZL47Time_t2420636075_CustomAttributesCacheGeneratorP21CustomAttributesCache
yVe:_Coroutine_Finalize_m1957108547
dij:_KeyBuilder_Key_m2503211157
xGa:__ZNSt3__212__deque_baseI18ReflectionProbeJobNS_9allocatorIS1_EEED2Ev
ZB:__ZN11UnityEngine9Animation27DestroyAnimationSetBindingsEPNS0_20AnimationSetBindingsERN7mecanim6memory9AllocatorE
Vec:__ZN15dense_hashtableINSt3__24pairIKiN4core17string_with_labelILi1EEEEEi18SInt32HashFunctionN14dense_hash_mapIiS5_S7_NS0_8equal_toIiEE13stl_allocatorIS6_L18MemLabelIdentifier1ELi16EEE9SelectKeyESA_SD_E13set_empty_keyERKS6_
oVe:_Component_GetComponentInChildren_m388868270
zFh:_GenericEqualityComparer_1_Equals_m1705889345_gshared
wI:__ZN8Animator12CleanupClassEv
zFd:__ZN21InterfaceFuncInvoker0IiE6InvokeEjP11Il2CppClassP12Il2CppObject
Tfd:__ZN17CallbackArrayBaseIPFvP6CameraEPFvPKvS1_EE8RegisterES3_S7_S5_
Obg:_FtpWebRequest__cctor_m699542155
asg:_Byte_System_IConvertible_ToBoolean_m2888023769
G4j:__GLOBAL__sub_I_GenericMetadata_cpp
BXd:__ZL70RuntimeArray_CustomAttributesCacheGenerator_Array_SetValue_m3412648248P21CustomAttributesCache
Nag:_NameObjectCollectionBase_GetEnumerator_m3677320185
T5b:__Z24CalculateSpotLightBoundsffRK10Matrix4x4fR15SpotLightBounds
kyj:_ListPool_1_Get_m3176656818_gshared
HJa:__ZNK13RenderTexture21GetShadowSamplingModeEv
GX:__ZN23CloudWebServicesManager23VirtualRedirectTransferER14SafeBinaryRead
Nlg:_PKCS12_AddCertificate_m3857004455
Gif:_GetRayIntersectionAllCallback__ctor_m391992746
tFb:__Z19ShouldTransferFieldR32SerializationCommandQueueBuilder17ScriptingClassPtriR18TransferField_InfoRK20CoreScriptingClasses
d6d:__ZL67RSACryptoServiceProvider_t2683512874_CustomAttributesCacheGeneratorP21CustomAttributesCache
HEc:__Z48Register_UnityEngine_MonoBehaviour_InvokeDelayedv
eSg:_SecurityElement_IsValidText_m1346599242
Ctc:__Z33PPtrToObjectDontLoadNoThreadCheckI8MaterialEPT_4PPtrIS1_E
pnb:__ZN26SinglePassStereoSupportExt21SetStereoMatrixCommonE21MonoOrStereoscopicEye24BuiltinShaderMatrixParamRK10Matrix4x4f
crf:_ARC4Managed_TransformBlock_m1687647868
_Vc:__ZL21InitializeCachedStripPv
gxh:_Dictionary_2_System_Collections_Generic_ICollectionU3CSystem_Collections_Generic_KeyValuePairU3CTKeyU2CTValueU3EU3E_Add_m3652125112_gshared
C9b:__ZN19CustomRenderTexture16GetRenderTextureEv
t8d:__ZL80Thread_t2300836069_CustomAttributesCacheGenerator_Thread_GetHashCode_m3479107071P21CustomAttributesCache
k$j:__ZN6il2cpp6icalls8mscorlib6System9Threading6Thread23GetCachedCurrentCultureEP12Il2CppThread
Nxa:__ZNK6Camera22GetWorldToCameraMatrixEv
Tqk:runPostSets
d7j:__ZN6il2cpp2vm12GenericClass11IsValueTypeEP18Il2CppGenericClass
Gdc:__ZN13ScreenManager24SetIsFullscreenImmediateEb
FEb:__ZN13MonoBehaviour7SetNameEPKc
dHe:_MethodDictionary_IsOverridenKey_m946843558
sKg:_FileStream_BeginRead_m2419864669
Rbi:_U3CStartU3Ec__Iterator0_MoveNext_m4270440387_gshared
$Fj:__ZN10KeyWrapperIN6il2cpp5utils13dynamic_arrayIPK10Il2CppTypeLj4EEEEC2ERKS7_
FJb:__ZN17InstancingBatcher22FindCBUpperBoundKonstsEv
chd:__ZN11UnityEngine9Analytics15AnalyticsConfig13ConfigChangedERKN4core12basic_stringIcNS2_20StringStorageDefaultIcEEEER8JSONRead
m6a:__ZN18AwakeFromLoadQueue5ClearEv
PKg:_FileStream_SetLength_m99749826
o4b:__ZNSt3__27__sort5IR15ReflProbeSorterPP15ReflectionProbeEEjT0_S6_S6_S6_S6_T_
Hea:__ZN8Playable10DisconnectEPS_i
j0g:_Convert_ToInt16_m4174439391
vk:_glGenTransformFeedbacks
y5a:__ZN13LoadOperationD2Ev
qwe:__ZL86Canvas_t3310196443_CustomAttributesCacheGenerator_Canvas_set_sortingLayerID_m861680532P21CustomAttributesCache
lLh:_List_1_System_Collections_ICollection_get_SyncRoot_m1990178029_gshared
rFg:_Int16_System_IConvertible_ToType_m3672347013
Ehf:_Navigation_set_mode_m3709908198_AdjustorThunk
FZd:__ZL86MSCompatUnicodeTable_t1453885583_CustomAttributesCacheGenerator_U3CU3Ef__switchU24map4P21CustomAttributesCache
ing:_AttrListImpl_GetValue_m3657391095
wIb:__Z21PlayerStartFirstSceneb
UWi:_List_1_CheckIndex_m3933537097_gshared
RNa:__ZNSt3__27__sort5IRPFbRKNS_4pairIN9ShaderLab16FastPropertyNameEN18UnityPropertySheet11UnityTexEnvEEES8_EPS6_EEjT0_SD_SD_SD_SD_T_
ZOb:__ZNK7ApiGLES18GetExtensionStringEv
uWi:_List_1_System_Collections_IList_IndexOf_m2444653486_gshared
toi:__Z50RuntimeInvoker_SecurityCompressionType_t4242483129PFvvEPK10MethodInfoPvPS4_
zi:_emscripten_get_num_gamepads
Ewk:_emscripten_glVertexAttrib1f__wrapper
jAh:_DefaultComparer_GetHashCode_m402448534_gshared
Gbb:__ZNK12HandlerChain4SizeERK13FileEntryData
Wo:FUNCTION_TABLE_iiiiiiiii
D2f:_Enumerator_Dispose_m1360775770_AdjustorThunk
$Zi:_Collection_1_ClearItems_m1096166028_gshared
G$h:_ReadOnlyCollection_1_System_Collections_Generic_ICollectionU3CTU3E_Remove_m4177779688_gshared
rra:__ZN9Scripting11UnityEngine14AnimationCurve9InitProxyEv
Htg:_Char_IsLetter_m3996985877
KXi:_Queue_1_Peek_m2302800625_gshared
YWd:__ZL51Delegate_t1188392813_CustomAttributesCacheGeneratorP21CustomAttributesCache
dce:__ZL56WeakReference_t1334886716_CustomAttributesCacheGeneratorP21CustomAttributesCache
oOi:_List_1_AddCollection_m4263017124_gshared
Sek:_GC_allochblk
VSd:__ZN21InterfaceFuncInvoker1IbP19Context_t3285446944E6InvokeEjP11Il2CppClassP12Il2CppObjectS1_
E6a:__Z15UnloadGameScenev
cih:_Array_InternalArray__ICollection_CopyTo_TisKeyframe_t4206410242_m2132255743_gshared
iBk:_glCheckFramebufferStatus__wrapper
pGd:_Image__ctor_m2551076292
swh:_Dictionary_2_System_Collections_ICollection_CopyTo_m3143696177_gshared
USj:__ZN15dense_hashtableINSt3__24pairIK10KeyWrapperIPK14Il2CppAssemblyEPK22Il2CppMonoAssemblyNameEES6_N6il2cpp5utils11PointerHashIS4_EEN14dense_hash_mapIS6_SA_SF_NS6_14EqualsComparerINS0_8equal_toIS5_EEEENS0_9allocatorISB_EEE9SelectKeyESK_SM_E5clearEv
rgi:__Z103RuntimeInvoker_Void_t1185182177_Int32_t2950945753_Int32_t2950945753_Int32_t2950945753_SByte_t1669577662PFvvEPK10MethodInfoPvPS4_
St:__ZN16MecanimAnimationD0Ev
jpj:__ZL24UnresolvedVirtualCall_56P12Il2CppObjectS0_iiS0_S0_PK10MethodInfo
rBh:_DefaultComparer__ctor_m1095326935_gshared
Fsj:__ZL25UnresolvedVirtualCall_240P12Il2CppObjecti40CustomAttributeTypedArgument_t2723150157PK10MethodInfo
$Gc:__Z36Renderer_Get_Custom_PropSortingOrderP12Il2CppObject
iPj:__ZNK15dense_hashtableINSt3__24pairIK10KeyWrapperIPK10Il2CppTypeEjEES6_N6il2cpp8metadata14Il2CppTypeHashEN14dense_hash_mapIS6_jSB_NS6_14EqualsComparerINSA_26Il2CppTypeEqualityComparerEEENS0_9allocatorIS8_EEE9SelectKeyESF_SH_E13find_positionERS7_
xJa:__ZN7Texture5ResetEv
gub:__Z18Transfer_BlittableI24GenerateTypeTreeTransferLb0E8Vector2fEvRK29SerializationCommandArgumentsR31RuntimeSerializationCommandInfo
s6d:__ZL54SHA384Managed_t74158575_CustomAttributesCacheGeneratorP21CustomAttributesCache
FSd:_Context_get_HasDynamicSinks_m3952434387
Okh:_Latin1Encoding_GetByteCount_m1145650505
Xtb:__Z18Transfer_BlittableI24GenerateTypeTreeTransferLb1EhEvRK29SerializationCommandArgumentsR31RuntimeSerializationCommandInfo
rrj:__ZL25UnresolvedVirtualCall_172P12Il2CppObject22OrderBlock_t1585977831S1_PK10MethodInfo
mMf:_GenericTypeParameterBuilder_GetPropertyImpl_m2584778600
YAb:__Z13TransferFieldI18StreamedBinaryReadILb1EELb0E16Converter_StringEvRK23StaticTransferFieldInfoR31RuntimeSerializationCommandInfoRT1_
ZAh:_DefaultComparer_GetHashCode_m177499767_gshared
D0a:__ZN10VertexData10DeallocateEv
uDc:__ZNK16TypeTreeIterator10ByteOffsetEv
$rk:dynCall_iiifii
rda:__ZnwjRKSt9nothrow_t
SF:__ZN8Animator11ClearObjectEv
_Kg:__ZN21InterfaceFuncInvoker3IiP22ByteU5BU5D_t4116647657iiE6InvokeEjP11Il2CppClassP12Il2CppObjectS1_ii
eog:_ApplicationException__ctor_m2557611022
yMa:__ZN14SafeBinaryRead19TransferSTLStyleMapINSt3__23mapI39DeprecatedFastPropertyNameSerializationN18UnityPropertySheet11UnityTexEnvENS1_4lessIS3_EENS1_9allocatorINS1_4pairIKS3_S5_EEEEEEEEvRT_17TransferMetaFlags
JEc:__Z45Register_UnityEngine_MonoBehaviour_IsInvokingv
$Ti:_List_1_CheckMatch_m579516778_gshared
$wb:__ZL26Transfer_SimpleNativeClassI19StreamedBinaryWriteILb0EE17AnimationCurveTplIfELb0EEvRK29SerializationCommandArgumentsR31RuntimeSerializationCommandInfo
PIb:__Z43GiveManagedDebuggerChanceToAttachIfRequiredv
Yrg:_Buffer_ByteLengthInternal_m1388208719
tye:__ZL92PointerEventData_t3807901092_CustomAttributesCacheGenerator_U3CworldNormalU3Ek__BackingFieldP21CustomAttributesCache
Dhh:_Array_InternalArray__ICollection_CopyTo_TisInt64_t3736567304_m2845057751_gshared
qDc:__Z35UnregisterSerializationCacheBuilderPFv17ScriptingClassPtrR23CachedSerializationDataRbE
mWd:__ZL52ICloneable_t724424198_CustomAttributesCacheGeneratorP21CustomAttributesCache
i8:__ZNSt3__26__treeINS_12__value_typeIPKc18ScriptingMethodPtrEENS_19__map_value_compareIS3_S5_14CStringCompareLb1EEE13stl_allocatorIS5_L18MemLabelIdentifier1ELi16EEE25__emplace_unique_key_argsIS3_JRKNS_21piecewise_construct_tENS_5tupleIJOS3_EEENSH_IJEEEEEENS_4pairINS_15__tree_iteratorIS5_PNS_11__tree_nodeIS5_PvEEiEEbEERKT_DpOT0_
CHg:_Int64_System_IConvertible_ToUInt32_m109903525_AdjustorThunk
gBa:__Z30GetBuiltinVectorParamArraySize24BuiltinShaderVectorParam
qZd:__ZL67DecimalConstantAttribute_t1976047975_CustomAttributesCacheGeneratorP21CustomAttributesCache
nla:__ZL46__ManagedRegistrationHelperFunction_SpriteBonePv
oOj:__ZNSt3__218uninitialized_copyIPNS_4pairIK10KeyWrapperINS1_IPK14Il2CppAssemblyP11Il2CppClassEEEjEESC_EET0_T_SE_SD_
qJa:__ZN13RenderTextureC2E10MemLabelId18ObjectCreationMode
HFg:_Int32_GetFormatException_m519586683
B7d:__ZL46StringBuilder_t_CustomAttributesCacheGeneratorP21CustomAttributesCache
dJg:_BinaryReader_ReadSByte_m3736742795
sGc:__Z60Register_UnityEngine_ScriptableObject_CreateScriptableObjectv
tLi:_Array_InternalArray__get_Item_TisVector2_t2156229523_m2502961026_gshared
YUa:__ZN21RendererUpdateManager11AddRendererER8Renderer
kPj:__ZNK15dense_hashtableINSt3__24pairIK10KeyWrapperIPK10Il2CppTypeEjEES6_N6il2cpp8metadata14Il2CppTypeHashEN14dense_hash_mapIS6_jSB_NS6_14EqualsComparerINSA_26Il2CppTypeEqualityComparerEEENS0_9allocatorIS8_EEE9SelectKeyESF_SH_E12test_deletedERK30dense_hashtable_const_iteratorIS8_S6_SB_SJ_SF_SH_E
Nob:__Z35Transfer_Blittable_FixedBufferFieldI14SafeBinaryReadsEvRK29SerializationCommandArgumentsR31RuntimeSerializationCommandInfo
c_g:_Convert_ToDateTime_m3802186295
Sbk:__ZN6il2cpp5utils11StringUtils11Utf16ToUtf8EPKDs
v5a:__ZN18StreamedBinaryReadILb0EE21TransferSTLStyleArrayINSt3__26vectorIN15ResourceManager10DependencyE13stl_allocatorIS5_L18MemLabelIdentifier52ELi16EEEEEEvRT_17TransferMetaFlags
Quh:_UInt64_CompareTo_m1614517204_AdjustorThunk
$kd:__ZN11UnityEngine15PlatformWrapper20IsRootedOrJailbrokenEv
oWb:__ZZ23InitPlayerLoopCallbacksvEN52PreLateUpdateScriptRunBehaviourLateUpdateRegistrator7ForwardEv
Utj:__ZN30GenericInterfaceActionInvoker1IP8String_tE6InvokeEPK10MethodInfoP12Il2CppObjectS1_
u6b:__Z33IntersectAABBPlaneBoundsOptimizedRK4AABBPKN4math7_float4Ei
l9b:__ZN19ScriptingInvocation6InvokeI28ScriptingSystemTypeObjectPtrEET_P21ScriptingExceptionPtrb
Thb:__ZN9GfxDevice19EndGeometryJobFrameEv
_fj:_GUILayoutUtility_Layout_m1159951704
$af:_InputField_get_shouldActivateOnSelect_m3055465770
IAh:_DefaultComparer_Equals_m2269092119_gshared
Rtb:__ZN27Converter_SimpleNativeClassI17AnimationCurveTplIfEE17ScriptingToNativeER18ScriptingObjectPtrPS1_
Sqh:_Type__cctor_m2371893800
Hkk:__ZN6il2cpp8metadata24Il2CppGenericInstCompare7CompareERK10KeyWrapperIPK17Il2CppGenericInstES8_
CEj:__ZNK15dense_hashtableINSt3__24pairIK10KeyWrapperIPK19Il2CppGenericMethodEPK26Il2CppGenericMethodIndicesEES6_N6il2cpp8metadata23Il2CppGenericMethodHashEN14dense_hash_mapIS6_SA_SE_NS6_14EqualsComparerINSD_26Il2CppGenericMethodCompareEEENS0_9allocatorISB_EEE9SelectKeyESI_SK_E5beginEv
sud:_ExecuteEvents_Execute_m3049310229
Hv:__ZN27AnimationLayerMixerPlayable21UpdateLayerParametersEv
ime:__ZL84Object_t631007953_CustomAttributesCacheGenerator_Object_DestroyImmediate_m2288369078P21CustomAttributesCache
aNf:__ZN21InterfaceFuncInvoker1IiP12MemberInfo_tE6InvokeEjP11Il2CppClassP12Il2CppObjectS1_
$og:_Array_get_IsSynchronized_m3066873806
Eoa:__ZN9Scripting11UnityEngine12LightmapData12CleanupProxyEv
ry:__ZN7mecanim9animation16CopyMotionOutputEPKNS0_18AnimationNodeStateEPS1_bbRKNS_6bitsetILj83EEE
b2e:_PlayableAsset_Internal_CreatePlayable_m2550417712
tVb:__Z31ManagerContextInitializeClassesv
P$h:_ReadOnlyCollection_1_System_Collections_IList_Contains_m2650112051_gshared
N9g:_Array_get_swapper_TisVector3_t3722313464_m1221246401_gshared
w$h:_ReadOnlyCollection_1_CopyTo_m1950082901_gshared
O5c:_ft_smooth_transform
DZc:_UNITY_FT_List_Finalize
okk:__ZN6il2cpp6icalls8mscorlib6System7Runtime8Remoting10Activation18ActivationServices34AllocateUninitializedClassInstanceEP20Il2CppReflectionType
$_b:__Z20LightAttenuateApproxRKfS0_
J7:__ZN9Scripting30SetCachedPtrOnScriptingWrapperE18ScriptingObjectPtrP6Object
fXg:_HashKeys_get_IsSynchronized_m174400341
_1:__ZN17LowLevelAllocator6MallocEj
_yi:__Z57RuntimeInvoker_Int32_t2950945753_KeyValuePair_2_t71524366PFvvEPK10MethodInfoPvPS4_
_fh:_NoAllocHelpers_SafeLength_TisColor32_t2600501292_m3406165959_gshared
$x:__ZN17AnimationPlayable17SetInternalWeightEf
Yje:__ZL71ParticleSystemBeginUpdateAll_t1600980369_CustomAttributesCacheGeneratorP21CustomAttributesCache
Aai:_UnityEvent_1__ctor_m1789019280_gshared
tjg:_RepeatContext_get_IsMinimum_m3640286252
Edi:__Z64RuntimeInvoker_Boolean_t97287965_RuntimeObject_Int32_t2950945753PFvvEPK10MethodInfoPvPS4_
uTf:_InternalEnumerator_1__ctor_m4055378331_AdjustorThunk
XMe:_ObjectRecord_ChainFixup_m1889316362
SHa:__ZN18BlockRangeInternal16PopLastNodeIndexEP10BlockRangeji
Fdk:__ZN6il2cpp2vm13CachedCCWBaseINS0_13ManagedObjectEE6AddRefEv
sQj:__ZN6il2cpp2gc19AppendOnlyGCHashMapINSt3__24pairIPK11Il2CppImageP11Il2CppClassEEP22Il2CppReflectionModule17ReflectionMapHashIS9_ENS2_8equal_toIS9_EEE10CopyValuesEPv
Fxd:_TouchInputModule_UpdateModule_m2582897964
g$a:__ZN4MeshD0Ev
brd:__ZL42RequestRecreateEyeTexturesBeforeNextUpdatev
xAa:__ZNK6Camera20IsCurrentlyRenderingEv
xx:__ZN21AnimationClipPlayable23ProcessRootMotionNoClipEPK35AnimationPlayableEvaluationConstantPK32AnimationPlayableEvaluationInputP33AnimationPlayableEvaluationOutput
jed:__Z36CanvasRenderer_CUSTOM_SetPopMaterialP12Il2CppObjectS0_i
SNc:__Z18Transfer_BlittableI9JSONWriteLb0EdEvRK29SerializationCommandArgumentsR31RuntimeSerializationCommandInfo
O2c:_otv_u_O_O_u_O_O
Xya:__ZN6Camera8TransferI19StreamedBinaryWriteILb0EEEEvRT_
l5g:_DBNull_System_IConvertible_ToSByte_m3533624679
zEa:__ZThn252_N31CanvasBatchIntermediateRenderer14OnAssetDeletedEv
Zmk:_wctomb
xtg:_Char_CompareTo_m42489266
mRf:_InternalEnumerator_1_System_Collections_IEnumerator_get_Current_m3575233890_AdjustorThunk
zAi:__Z67RuntimeInvoker_Void_t1185182177_Int32_t2950945753_Double_t594665363PFvvEPK10MethodInfoPvPS4_
Hoc:__Z27Camera_CUSTOM_GetAllCamerasP11Il2CppArray
GEb:__ZNK13MonoBehaviour25GetNeedsPerObjectTypeTreeEv
gBb:__Z35Transfer_Blittable_FixedBufferFieldI18StreamedBinaryReadILb0EEiEvRK29SerializationCommandArgumentsR31RuntimeSerializationCommandInfo
Uc:___cxa_rethrow
nNd:_ParameterInfo_GetCustomAttributes_m2376494592
wPc:__Z18Transfer_BlittableI8JSONReadLb1EhEvRK29SerializationCommandArgumentsR31RuntimeSerializationCommandInfo
AEd:_Graphic_get_canvasRenderer_m315509948
A0i:_Collection_1_System_Collections_IList_Contains_m3397768605_gshared
Hhf:_Navigation_set_selectOnUp_m827629728_AdjustorThunk
$me:__ZL69NativeFixedLengthAttribute_t3072952540_CustomAttributesCacheGeneratorP21CustomAttributesCache
zJi:_Dictionary_2_Do_CopyTo_TisInt32_t2950945753_TisInt32_t2950945753_m3384108308_gshared
OBc:__ZN10systeminfo23SupportsLocationServiceEv
NBg:_CultureInfo_construct_internal_locale_from_name_m3254739477
vzf:_RSASslSignatureDeformatter_VerifySignature_m1061897602
Y8b:__ZN13MonoBehaviour8SetClassE17ScriptingClassPtr18ScriptingObjectPtr
Qhb:__ZN9GfxDevice33ScheduleComputeBufferJobsInternalEPFvP20ComputeBufferJobDataEPFvRK8JobFenceEPK27ComputeBufferJobInstructionj
SEi:_Array_InternalArray__Insert_TisLabelFixup_t858502054_m171542753_gshared
g_f:_InternalEnumerator_1_System_Collections_IEnumerator_get_Current_m3539708496_AdjustorThunk
mcb:__ZN20LocalFileSystemPosix4ReadER13FileEntryDatayyPvPy
Q2b:__ZNSt3__211__sift_downIRN23ForwardShaderRenderLoop18RenderObjectSorterILb0EEEP21ForwardRenderPassDataEEvT0_S7_T_NS_15iterator_traitsIS7_E15difference_typeES7_
RQg:_SecurityPermission__ctor_m1462427327
ltk:dynCall_iiiiiiffiiiiiiiiiffffiiii
VEb:__ZN13MonoBehaviour5DoGUIENS_13GUILayoutTypeEii
NQd:_ChannelData_get_ClientProviders_m594662942
AI:__ZZN8Animator15InitializeClassEvEN43FunctorImpl_438kDidModifyAnimatorController4CallEPviR11MessageData
Gaj:_QuickSearch_GetChar_m1297698557
Iua:__ZNK12TLSAllocatorI14StackAllocatorE8ContainsEPKv
z1a:__ZN11TimeManager8TransferI18StreamedBinaryReadILb0EEEEvRT_
P_b:__ZL8AddLightRK12ActiveLightsRK8Vector3fiR13dynamic_arrayI11CulledLightLj0EE
p_g:_DateTime__ParseEnum_m253019513
d2g:_Convert_ToUInt32_m2194577773
t$a:__ZN14BlendShapeData8TransferI14SafeBinaryReadEEvRT_
pyg:_Hashtable_Remove_m4032631466
JQh:_DSAManaged_GenerateKeyPair_m2236915969
$ce:__ZL91RSASslSignatureFormatter_t2709678514_CustomAttributesCacheGenerator_U3CU3Ef__switchU24map16P21CustomAttributesCache
FPa:__ZN7Texture25ReloadFromStorageIfNeededEPvb
Seh:_Array_InternalArray__IndexOf_TisBoolean_t97287965_m1161209222_gshared
eEj:__ZNK15dense_hashtableINSt3__24pairIK10KeyWrapperIP9FieldInfoEiEES5_N6il2cpp5utils11PointerHashIS3_EEN14dense_hash_mapIS5_iSB_NS5_14EqualsComparerINS0_8equal_toIS4_EEEENS0_9allocatorIS7_EEE9SelectKeyESG_SI_E3endEv
Rve:__ZL55RaycastHit2D_t2279581989_CustomAttributesCacheGeneratorP21CustomAttributesCache
xqa:__ZN9Scripting11UnityEngine12CullingGroup9InitProxyEv
dwg:_SynchronizedArrayListWrapper_Clear_m2191301493
h7c:_Update_Max
j6h:_Predicate_1__ctor_m2943702050_gshared
oWg:_String_CreateString_m780602784
d0j:__ZN6il2cpp6icalls8mscorlib6SystemL15ThrowNoWideningEv
cqc:__ZNK23TransformChangeDispatch24GetChangeMaskForInterestENS_12InterestTypeE
iqc:__Z45Transform_CUSTOM_INTERNAL_CALL_TransformPointP12Il2CppObjectRK8Vector3fRS1_
vMf:_GenericTypeParameterBuilder_InvokeMember_m1647304778
mGd:_HorizontalOrVerticalLayoutGroup_set_childControlWidth_m3261460516
QMa:__ZNSt3__26__treeINS_12__value_typeI39DeprecatedFastPropertyNameSerializationfEENS_19__map_value_compareIS2_S3_NS_4lessIS2_EELb1EEENS_9allocatorIS3_EEE7destroyEPNS_11__tree_nodeIS3_PvEE
h5c:_tt_cmap4_char_index
myd:_AspectRatioFitter_GetParentSize_m3159144324
$Sg:_SecurityFrame_get_Assembly_m2874566710
QQf:_InternalEnumerator_1__ctor_m2336656763_AdjustorThunk
jXi:_Enumerator_System_Collections_IEnumerator_Reset_m1487823313_gshared
Qbb:__ZNK12HandlerChain8IsHiddenERK13FileEntryData
Ogb:__ZNSt3__26__treeINS_12__value_typeIN4core12basic_stringIcNS2_20StringStorageDefaultIcEEEEPN16MemoryFileSystem4NodeEEENS_19__map_value_compareIS6_SA_NS_4lessIS6_EELb1EEE13stl_allocatorISA_L18MemLabelIdentifier55ELi16EEE25__emplace_unique_key_argsIS6_JNS_4pairIKS6_S9_EEEEENSK_INS_15__tree_iteratorISA_PNS_11__tree_nodeISA_PvEEiEEbEERKT_DpOT0_
iOi:_List_1_System_Collections_IList_get_IsFixedSize_m1752888098_gshared
ftb:__ZL26Transfer_SimpleNativeClassI17RemapPPtrTransfer10RectOffsetLb0EEvRK29SerializationCommandArgumentsR31RuntimeSerializationCommandInfo
Jkd:__ZN11UnityEngine15PlatformWrapper18GetWin8ScalingModeEv
Slf:_ScrollRect_CalculateLayoutInputVertical_m3155297482
$Gg:_Int32_ToString_m2507389746_AdjustorThunk
N0g:_Decimal_op_Explicit_m438967917
s4d:__ZL55IChannelInfo_t3866172133_CustomAttributesCacheGeneratorP21CustomAttributesCache
kxj:_AnimatorControllerPlayable_SetHandle_m2260644454_AdjustorThunk
DOf:__ZN30GenericInterfaceActionInvoker2IP12Il2CppObjectS1_E6InvokeEPK10MethodInfoS1_S1_S1_
yyg:_Environment_get_SocketSecurityEnabled_m190813817
rsi:__Z53RuntimeInvoker_Void_t1185182177_Vector4U26_t200349727PFvvEPK10MethodInfoPvPS4_
Ime:__ZL57UnityEventBase_t3960448221_CustomAttributesCacheGeneratorP21CustomAttributesCache
gMg:_NullStream_Flush_m3382897993
kgc:__ZNSt3__26vectorIN9ShaderLab20SerializedSubProgram13BufferBindingENS_9allocatorIS3_EEEC2ERKS6_
Sbf:_InputField_set_selectionColor_m2084640295
QCi:__Z114RuntimeInvoker_Int32_t2950945753_CustomAttributeTypedArgument_t2723150157_CustomAttributeTypedArgument_t2723150157PFvvEPK10MethodInfoPvPS4_
xJi:_Dictionary_2_Do_CopyTo_TisKeyValuePair_2_t2401056908_TisKeyValuePair_2_t2401056908_m676905794_gshared
cBa:__ZNK9ShaderLab20ShaderBlendStateDesc15ToGfxBlendStateEPK19ShaderPropertySheetS3_R13GfxBlendState
HTd:_EnvoyInfo_get_EnvoySinks_m1211050346
q3f:_Enumerator_System_Collections_IEnumerator_get_Current_m1747693366_AdjustorThunk
GRd:_ConfigHandler_OnIgnorableWhitespace_m278399491
CB:__ZN11UnityEngine9AnimationL22GenericBindingCallbackEPvS1_i
OE:__ZN12_GLOBAL__N_121ProcessAnimationBeginER35AnimationPlayableEvaluationConstantR32AnimationPlayableEvaluationInputR33AnimationPlayableEvaluationOutput
Qjc:__ZN9ShaderLab9IntShaderC2Ev
K5h:_Func_3__ctor_m1375075958_gshared
uqj:__ZL25UnresolvedVirtualCall_121P12Il2CppObjectaiS0_PK10MethodInfo
GMj:__ZN6il2cpp6icalls8mscorlib6SystemL9IsPrivateEPK9EventInfo
bjk:__ZN6il2cpp6icalls8mscorlib6System10Reflection4Emit11TypeBuilder20setup_internal_classEP27Il2CppReflectionTypeBuilderS7_
Jce:__ZL72PKCS12_t4101533061_CustomAttributesCacheGenerator_U3CU3Ef__switchU24mapCP21CustomAttributesCache
ofh:_Array_InternalArray__IndexOf_TisILTokenInfo_t2325775114_m2602704009_gshared
vud:_ExecuteEvents_Execute_m3613826831
pxh:_Dictionary_2_System_Collections_IDictionary_GetEnumerator_m972834308_gshared
SRi:_List_1_System_Collections_ICollection_get_IsSynchronized_m967177678_gshared
Dlh:_StringBuilder_AppendFormat_m3255666490
RLc:__ZN5Unity9rapidjson6WriterI16TempBufferWriterNS0_4UTF8IcEES4_13JSONAllocatorE11WriteUint64Ey
PKc:__ZN13GUIStateScope3EndER16GUIKeyboardStateR8GUIStatePN5IMGUI19NamedKeyControlListE
_Id:_TypeBuilder_GetGenericArguments_m2872156836
fVd:_MethodCall_get_Uri_m1720935531
Vpj:__ZL24UnresolvedVirtualCall_94P12Il2CppObjectS0_S0_iPK10MethodInfo
uAj:__ZN13Il2CppHashMapIPK22Il2CppGenericParameterP11Il2CppClassN6il2cpp5utils11PointerHashIS1_EENSt3__28equal_toIS2_EENS9_9allocatorINS9_4pairIK10KeyWrapperIS2_ES4_EEEEEC2EjRKS8_RKSB_
OQc:__ZN8JSONRead21TransferSTLStyleArrayI31ArrayOfManagedObjectsTransfererEEvRT_17TransferMetaFlags
_cb:__Z15CreateDirectoryRKN4core12basic_stringIcNS_20StringStorageDefaultIcEEEE
N0a:__Z21CalculateGlobalMatrix23TransformAccessReadOnly
$Id:_TypeBuilder_GetGenericTypeDefinition_m1632720438
$9g:_Array_InternalArray__ICollection_Contains_TisLink_t544317964_m163190451_gshared
K4g:_DateTimeOffset_System_IComparable_CompareTo_m176229495_AdjustorThunk
$Ze:_ManagedStreamHelpers_ValidateLoadFromStream_m580138133
zve:__ZL104GUIUtility_t1868551600_CustomAttributesCacheGenerator_GUIUtility_EndContainerGUIFromException_m530164245P21CustomAttributesCache
h3a:__ZNK13BuildSettings22GetTypeVirtualInternalEv
Rkc:__ZN13MonoBehaviour20SetScriptingDataFromERKS_
y9h:__ZN30GenericInterfaceActionInvoker1I17Scene_t2348375561E6InvokeEPK10MethodInfoP12Il2CppObjectS0_
pUf:_InternalEnumerator_1__ctor_m1486034688_gshared
oyb:__Z35Transfer_Blittable_FixedBufferFieldI18StreamedBinaryReadILb1EEhEvRK29SerializationCommandArgumentsR31RuntimeSerializationCommandInfo
N8d:__ZL56AppDomainSetup_t123196401_CustomAttributesCacheGeneratorP21CustomAttributesCache
aVi:_List_1_CheckIndex_m2250397830_gshared
CVg:_String_LastIndexOf_m578673845
v2e:_PlayableOutput_GetHandle_m777137769_AdjustorThunk
Q0e:_PlayerEditorConnectionEvents_UnregisterManagedCallback_m400366024
tuj:_FontTextureRebuildCallback_EndInvoke_m3732346867
Cjc:__ZN9ShaderLab20SerializedSubProgram14ConstantBufferC2EOS1_
z:tempBigIntI
Sjg:_Interval_get_Empty_m3617514670
ACi:__Z31RuntimeInvoker_Mark_t3471605523PFvvEPK10MethodInfoPvPS4_
bIf:_Assembly_GetName_m981771927
bee:__ZL53RegexOptions_t92845595_CustomAttributesCacheGeneratorP21CustomAttributesCache
Pz:__ZN7mecanim12statemachine24CreateStateMachineOutputEPKNS0_20StateMachineConstantEjRNS_6memory9AllocatorE
b7j:__ZN6il2cpp2vm12GenericClass8GetClassEP18Il2CppGenericClass
nib:__ZNK9GfxDevice27GetActiveRenderSurfaceWidthEv
vze:__ZL114StandaloneInputModule_t2760469101_CustomAttributesCacheGenerator_StandaloneInputModule_ForceAutoSelect_m2837047882P21CustomAttributesCache
Okd:__ZN11UnityEngine15PlatformWrapper28GetCleanGraphicsFixedVersionEv
shf:_MaskableGraphic_RecalculateClipping_m1772937317
gCf:_UnmanagedMemoryStream_SetLength_m3752964620
Zfb:__ZN16MemoryFileSystem5WriteER13FileEntryDatayyPvPy
q2i:_SslStreamBase_RaiseLocalPrivateKeySelection_m4112368540
GVj:__ZN6il2cpp2vm4Type7GetTypeEPK10Il2CppType
pZc:_open_face_PS_from_sfnt_stream
SUf:_InternalEnumerator_1_get_Current_m165106323_AdjustorThunk
nmh:_UTF32Encoding_GetByteCount_m3610769032
rV:__ZN11AudioModule16SetListenerPauseEb
hXb:__Z16FindCameraStacksRKNSt3__24listI4PPtrI6CameraENS_9allocatorIS3_EEEERNS_6vectorI11CameraStackNS4_ISA_EEEE
y9i:_MatchCollection_CopyTo_m3807326147
SVa:__ZN10GISettings8TransferI14SafeBinaryReadEEvRT_
sn:FUNCTION_TABLE_vifff
GMe:_ObjectReader_get_CurrentObject_m2820303483
YRe:_MD5CryptoServiceProvider__ctor_m3271163125
Z9b:__ZN19CustomRenderTexture12ClearGPUDataEv
CEg:_Guid_Equals_m3683678873
Wxj:_ListPool_1_Get_m2875520964_gshared
Y7d:__ZL95UnicodeEncoding_t1959134050_CustomAttributesCacheGenerator_UnicodeEncoding_GetBytes_m3223155660P21CustomAttributesCache
GJa:__ZN13RenderTexture13ApplySettingsEv
ULe:_ObjectReader_RegisterObject_m1853376334
QNf:_ModuleBuilderTokenGenerator_GetToken_m2588853565
qrg:_Boolean_System_IConvertible_ToDecimal_m3176932461_AdjustorThunk
u2b:__ZNSt3__26__treeINS_12__value_typeIi17ShadowCachingDataEENS_19__map_value_compareIiS3_NS_4lessIiEELb1EEE13stl_allocatorIS3_L18MemLabelIdentifier66ELi16EEE25__emplace_unique_key_argsIiJNS_4pairIiS2_EEEEENSD_INS_15__tree_iteratorIS3_PNS_11__tree_nodeIS3_PvEEiEEbEERKT_DpOT0_
Te:_JS_Sound_SetListenerPosition
ln:FUNCTION_TABLE_fiffi
Isi:__Z54RuntimeInvoker_Int32_t2950945753_LayerMask_t3493934918PFvvEPK10MethodInfoPvPS4_
Tdd:__Z55Register_UnityEngine_CanvasGroup_get_ignoreParentGroupsv
J$h:_ReadOnlyCollection_1_System_Collections_Generic_IListU3CTU3E_set_Item_m711370667_gshared
I3j:__ZNK15dense_hashtableINSt3__24pairIK10KeyWrapperINS1_IPKcS4_EEEiEES6_24NamespaceAndNamePairHashN14dense_hash_mapIS6_iS9_NS6_14EqualsComparerI26NamespaceAndNamePairEqualsEENS0_9allocatorIS8_EEE9SelectKeyESD_SF_E10test_emptyERK24dense_hashtable_iteratorIS8_S6_S9_SH_SD_SF_E
T0a:__ZN12EventManager11RemoveEventEP10EventEntryPFvPvS2_iES2_
ZIf:_Default_check_arguments_with_score_m3467814020
oyk:_glGetActiveUniform__wrapper
EAf:_StreamWriter_LowLevelWrite_m1081676583
vJh:_Enumerator__ctor_m3875432026_AdjustorThunk
Djb:__ZN9GfxDevice20SetRenderSurfaceNameEP17RenderSurfaceBasePKc
S8a:__ZNK8Material16MarkDependenciesER27GarbageCollectorThreadState
Xmf:_Slider_set_handleRect_m1101657556
X4g:_DateTimeOffset_ToString_m3985341516_AdjustorThunk
cWh:_Collection_1_System_Collections_IList_Contains_m3348135931_gshared
VNc:__ZL17Transfer_GUIStyleI9JSONWriteLb0EEvRK29SerializationCommandArgumentsR31RuntimeSerializationCommandInfo
W$b:__Z28GetHaloVertexPositionsStereoP8Vector3fRKS_S2_f
oia:__ZN6prcoreL27StretchGenericFloatBilinearI15TexFormatRGHalfEEvPKNS_9InnerInfoE
oH:__Z16return_effectiveRK21AnimationClipOverride
vwh:_Dictionary_2_System_Collections_IDictionary_GetEnumerator_m751864982_gshared
S$b:__ZN9DepthPass7PrepareER6CameraRK13dynamic_arrayI16RenderObjectDataLj0EERK15RenderNodeQueueRK17ShaderReplaceDatab
bpa:__ZN9Scripting11UnityEngine12Experimental3U2D10SpriteBone9InitProxyEv
UKa:__ZNK15PlayableMethods18InvokePrepareFrameER18ScriptingObjectPtrRK9HPlayableP18ScriptingFrameData
rH:__ZN14SafeBinaryRead21TransferSTLStyleArrayI13dynamic_arrayI21AnimationClipOverrideLj0EEEEvRT_17TransferMetaFlags
pW:__Z13RegisterClassI12AudioManagerEvPKc
zrj:__ZL25UnresolvedVirtualCall_180P12Il2CppObject22UILineInfo_t4195266810S1_PK10MethodInfo
EBb:__Z18Transfer_BlittableI18StreamedBinaryReadILb0EELb1E9BoundsIntEvRK29SerializationCommandArgumentsR31RuntimeSerializationCommandInfo
ADe:__ZL71SpriteState_t1362986479_CustomAttributesCacheGenerator_m_DisabledSpriteP21CustomAttributesCache
Amd:__ZN22BaseUnityConnectClient28UpdateConfigFromServerStaticEPv
Neg:_PublicKey_DecodeDSA_m3490622362
Npc:__Z49Register_UnityEngine_Resources_GetBuiltinResourcev
Irh:_Type_GetMethod_m1479779718
W4c:_tt_cmap10_char_index
Q2i:_TlsException__ctor_m3242533711
Kqf:_BitConverterLE_GetUIntBytes_m795219058
fye:__ZL94AxisEventData_t2331243652_CustomAttributesCacheGenerator_AxisEventData_get_moveDir_m2423724085P21CustomAttributesCache
QXg:_SortedList__ctor_m3676552745
YAj:__ZN15dense_hashtableINSt3__24pairIK10KeyWrapperIPK22Il2CppGenericParameterEP11Il2CppClassEES6_N6il2cpp5utils11PointerHashIS4_EEN14dense_hash_mapIS6_S9_SE_NS6_14EqualsComparerINS0_8equal_toIS5_EEEENS0_9allocatorISA_EEE9SelectKeyESJ_SL_E3endEv
eDj:__ZNK15dense_hashtableINSt3__24pairIK10KeyWrapperIPK11Il2CppClassEPKcEES6_N6il2cpp5utils11PointerHashIS3_EEN14dense_hash_mapIS6_S9_SE_NS6_14EqualsComparerINS0_8equal_toIS5_EEEENS0_9allocatorISA_EEE9SelectKeyESJ_SL_E8min_sizeEjj
DU:__ZN11AudioSource24ClearExtensionPropertiesE12PropertyName
fEa:__ZN14VertexDataInfo12UpdateFormatEj17ShaderChannelMaskS0_RK19VertexStreamsLayoutRK20VertexChannelsLayout
gic:__ZN9ShaderLab22SerializedBindChannels8TransferI19StreamedBinaryWriteILb0EEEEvRT_
efi:__Z52RuntimeInvoker_Decimal_t2948259380_Int32_t2950945753PFvvEPK10MethodInfoPvPS4_
srb:__ZN15SerializeTraitsI5RectTIiEE8TransferI14SafeBinaryReadEEvRS1_RT_
CJc:__ZN5IMGUI20MoveWindowFromLayoutER8GUIStateiRK5RectTIfE
_li:__Z50RuntimeInvoker_SByte_t1669577662_Int64_t3736567304PFvvEPK10MethodInfoPvPS4_
UZc:_UNITY_FT_Stream_ReadUShort
qTh:_Collection_1_System_Collections_IList_get_Item_m1677338752_gshared
Sxb:__Z29Transfer_Blittable_ArrayFieldI19StreamedBinaryWriteILb0EE11ColorRGBA32EvRT_R9ArrayInfoRK23StaticTransferFieldInfo
xMa:__ZNSt3__26__treeINS_12__value_typeIN4core12basic_stringIcNS2_20StringStorageDefaultIcEEEES6_EENS_19__map_value_compareIS6_S7_NS_4lessIS6_EELb1EEE13stl_allocatorIS7_L18MemLabelIdentifier1ELi16EEE7destroyEPNS_11__tree_nodeIS7_PvEE
JJf:_AssemblyBuilder_get_Location_m384539722
Ioh:_Thread_get_ManagedThreadId_m1068113671
RPb:__Z13IsDepthFormat14GraphicsFormat
C2a:__ZN12AspectRatios8TransferI24GenerateTypeTreeTransferEEvRT_
fEf:_MonoType_GetFields_m4176012508
Tbc:__Z29StdTemplateConversionFunctionIshEbPvR14SafeBinaryRead
O2g:_CurrentSystemTimeZone_GetTimeZoneData_m2641861607
Jf:_emscripten_glUniform1fv
ICh:_EqualityComparer_1_System_Collections_IEqualityComparer_GetHashCode_m3423304513_gshared
I$d:__ZL57FileSystemInfo_t3745885336_CustomAttributesCacheGeneratorP21CustomAttributesCache
jBj:__ZN6il2cpp2vm5Class13GetArrayClassEP11Il2CppClassj
Zwd:_StandaloneInputModule_set_inputActionsPerSecond_m4057208843
HIb:__ZN19RuntimeSceneManager18LoadSceneAsyncIntoER10UnitySceneRKN4core12basic_stringIcNS2_20StringStorageDefaultIcEEEENS_11LoadingModeEb
BBf:_TextWriter_Write_m164803641
oNc:__Z35Transfer_Blittable_FixedBufferFieldI9JSONWritetEvRK29SerializationCommandArgumentsR31RuntimeSerializationCommandInfo
dLc:__ZN11IMGUIModule12AddGUIScriptER8ListNodeI13MonoBehaviourE
lb:invoke_difi
Xfj:_GUILayoutUtility_BeginWindow_m2240221150
jxk:_glDeleteSamplers__wrapper
Tca:__ZL50StaticRegisterSceneLoadedCallback_LightmapSettingsPv
$9f:_HybridDictionary_set_Item_m2997363718
j0b:__ZN29MotionVectorRenderLoopScratch15ThreadedCleanupEv
Nm:FUNCTION_TABLE_iiffi
E_f:_InternalEnumerator_1_get_Current_m1477715453_AdjustorThunk
N3h:__ZN28GenericInterfaceFuncInvoker1IiP12Il2CppObjectE6InvokeEPK10MethodInfoS1_S1_
